(dp0
S'rares'
p1
(lp2
VSpecial
p3
aVUncommon
p4
aVUncommon
p5
aVCommon
p6
aVCommon
p7
aVUncommon
p8
aVCommon
p9
aVRare
p10
aVUncommon
p11
aVCommon
p12
aVCommon
p13
aVCommon
p14
aVCommon
p15
aVCommon
p16
aVUncommon
p17
aVCommon
p18
aVRare
p19
aVRare
p20
aVRare
p21
aVRare
p22
aVRare
p23
aVCommon
p24
aVCommon
p25
aVCommon
p26
aVCommon
p27
aVRare
p28
aVMythic Rare
p29
aVCommon
p30
aVCommon
p31
aVCommon
p32
aVCommon
p33
aVUncommon
p34
aVRare
p35
aVUncommon
p36
aVCommon
p37
aVCommon
p38
aVUncommon
p39
aVUncommon
p40
aVRare
p41
aVCommon
p42
aVUncommon
p43
aVCommon
p44
aVUncommon
p45
aVUncommon
p46
aVUncommon
p47
aVRare
p48
aVCommon
p49
aVCommon
p50
aVCommon
p51
aVCommon
p52
aVCommon
p53
aVCommon
p54
aVUncommon
p55
aVCommon
p56
aVRare
p57
aVUncommon
p58
aVUncommon
p59
aVRare
p60
aVUncommon
p61
aVUncommon
p62
aVRare
p63
aVRare
p64
aVRare
p65
aVUncommon
p66
aVRare
p67
aVRare
p68
aVUncommon
p69
aVCommon
p70
aVRare
p71
aVUncommon
p72
aVUncommon
p73
aVRare
p74
aVRare
p75
aVRare
p76
aVRare
p77
aVRare
p78
aVCommon
p79
aVUncommon
p80
aVRare
p81
aVCommon
p82
aVUncommon
p83
aVCommon
p84
aVRare
p85
aVRare
p86
aVCommon
p87
aVUncommon
p88
aVCommon
p89
aVRare
p90
aVCommon
p91
aVCommon
p92
aVCommon
p93
aVCommon
p94
aVCommon
p95
aVCommon
p96
aVRare
p97
aVCommon
p98
aVUncommon
p99
aVRare
p100
aVUncommon
p101
aVUncommon
p102
aVCommon
p103
aVCommon
p104
aVUncommon
p105
aVUncommon
p106
aVRare
p107
aVRare
p108
aVUncommon
p109
aVCommon
p110
aVRare
p111
aVCommon
p112
aVUncommon
p113
aVUncommon
p114
aVUncommon
p115
aVCommon
p116
aVRare
p117
aVUncommon
p118
aVCommon
p119
aVCommon
p120
aVUncommon
p121
aVRare
p122
aVCommon
p123
aVUncommon
p124
aVCommon
p125
aVUncommon
p126
aVCommon
p127
aVRare
p128
aVUncommon
p129
aVUncommon
p130
aVMythic Rare
p131
asS'editns'
p132
(lp133
VAnthologies
p134
aVMagic: The Gathering-Commander
p135
aVMagic 2012
p136
aVMagic 2012
p137
aVLimited Edition Beta
p138
aVLimited Edition Beta
p139
aVFourth Edition
p140
aVPlanar Chaos
p141
aVDuel Decks: Ajani vs. Nicol Bolas
p142
aVAlliances
p143
aVAlliances
p144
aVAlliances
p145
aVAlliances
p146
aVDuel Decks: Knights vs. Dragons
p147
aVScars of Mirrodin
p148
aVMagic 2010
p149
aVTempest
p150
aVTempest
p151
aVTenth Edition
p152
aVTenth Edition
p153
aVTenth Edition
p154
aVTenth Edition
p155
aVVintage Masters
p156
aVVintage Masters
p157
aVVintage Masters
p158
aVVintage Masters
p159
aVFrom the Vault: Exiled
p160
aVMasters Edition III
p161
aVRevised Edition
p162
aVGuildpact
p163
aVGuildpact
p164
aVGuildpact
p165
aVNinth Edition
p166
aVEventide
p167
aVEventide
p168
aVConflux
p169
aVPlanechase 2012 Edition
p170
aVPlanechase 2012 Edition
p171
aVChampions of Kamigawa
p172
aVChampions of Kamigawa
p173
aVRavnica: City of Guilds
p174
aVRavnica: City of Guilds
p175
aVCommander 2013 Edition
p176
aVOdyssey
p177
aVOdyssey
p178
aVOdyssey
p179
aVTime Spiral
p180
aVTime Spiral
p181
aVReturn to Ravnica
p182
aVGatecrash
p183
aVExodus
p184
aVUnlimited Edition
p185
aVUnlimited Edition
p186
aVZendikar
p187
aVZendikar
p188
aVMirrodin
p189
aVShards of Alara
p190
aVSeventh Edition
p191
aVSeventh Edition
p192
aVSeventh Edition
p193
aVSeventh Edition
p194
aVSeventh Edition
p195
aVSeventh Edition
p196
aVMagic 2015 Core Set
p197
aVUrza's Legacy
p198
aVRise of the Eldrazi
p199
aVRise of the Eldrazi
p200
aVJudgment
p201
aVPromo set for Gatherer
p202
aVShadowmoor
p203
aVNew Phyrexia
p204
aVFifth Dawn
p205
aVFifth Dawn
p206
aVFifth Dawn
p207
aVFifth Dawn
p208
aVFifth Dawn
p209
aVPortal Second Age
p210
aVPortal Second Age
p211
aVPlanechase
p212
aVPlanechase
p213
aVPlanechase
p214
aVLegions
p215
aVLegions
p216
aVUrza's Saga
p217
aVUrza's Saga
p218
aVUrza's Saga
p219
aVMasters Edition
p220
aVMasters Edition
p221
aVMasters Edition
p222
aVTheros
p223
aVWeatherlight
p224
aVWeatherlight
p225
aVWeatherlight
p226
aVWeatherlight
p227
aVEighth Edition
p228
aVNemesis
p229
aVNemesis
p230
aVNemesis
p231
aVWorldwake
p232
aVChronicles
p233
aVInvasion
p234
aVInvasion
p235
aVInvasion
p236
aVInvasion
p237
aVInvasion
p238
aVJourney into Nyx
p239
aVAlara Reborn
p240
aVFifth Edition
p241
aVArchenemy
p242
aVArchenemy
p243
aVKhans of Tarkir
p244
aVKhans of Tarkir
p245
aVKhans of Tarkir
p246
aVMirage
p247
aVMirage
p248
aVLimited Edition Alpha
p249
aVLimited Edition Alpha
p250
aVVisions
p251
aVMasters Edition IV
p252
aVDragon's Maze
p253
aVDragon's Maze
p254
aVLegends
p255
aVDissension
p256
aVLorwyn
p257
aVMagic 2011
p258
aVHomelands
p259
aVDuel Decks: Heroes vs. Monsters
p260
aVPortal
p261
aVDark Ascension
p262
asS'ids'
p263
(lp264
V-2146729911
p265
aV247535
p266
aV236457
p267
aV228117
p268
aV530
p269
aV436
p270
aV2322
p271
aV122408
p272
aV249396
p273
aV3102
p274
aV3165
p275
aV3101
p276
aV3164
p277
aV243429
p278
aV209048
p279
aV191071
p280
aV4637
p281
aV4690
p282
aV130553
p283
aV135262
p284
aV135270
p285
aV136279
p286
aV382862
p287
aV382863
p288
aV382864
p289
aV382865
p290
aV194969
p291
aV201159
p292
aV1330
p293
aV107689
p294
aV96951
p295
aV96962
p296
aV83002
p297
aV153478
p298
aV157415
p299
aV177931
p300
aV275255
p301
aV265145
p302
aV79248
p303
aV50291
p304
aV88981
p305
aV89047
p306
aV376266
p307
aV29798
p308
aV29880
p309
aV30747
p310
aV118901
p311
aV122082
p312
aV289214
p313
aV366461
p314
aV6147
p315
aV832
p316
aV738
p317
aV185703
p318
aV197890
p319
aV48588
p320
aV175263
p321
aV13030
p322
aV25629
p323
aV25632
p324
aV25647
p325
aV25689
p326
aV15861
p327
aV383190
p328
aV12504
p329
aV198304
p330
aV193638
p331
aV36118
p332
aV97058
p333
aV152079
p334
aV221533
p335
aV51610
p336
aV51613
p337
aV51612
p338
aV50141
p339
aV51611
p340
aV6613
p341
aV6633
p342
aV205418
p343
aV205340
p344
aV205399
p345
aV44334
p346
aV44496
p347
aV5727
p348
aV5605
p349
aV5617
p350
aV159253
p351
aV159254
p352
aV159736
p353
aV373583
p354
aV4535
p355
aV4570
p356
aV4572
p357
aV4571
p358
aV45488
p359
aV21308
p360
aV21390
p361
aV21401
p362
aV197843
p363
aV2841
p364
aV22932
p365
aV22937
p366
aV22947
p367
aV22948
p368
aV23099
p369
aV380378
p370
aV179545
p371
aV4107
p372
aV220482
p373
aV212585
p374
aV386486
p375
aV386487
p376
aV386488
p377
aV3479
p378
aV3528
p379
aV141
p380
aV235
p381
aV3633
p382
aV221570
p383
aV369063
p384
aV369000
p385
aV1559
p386
aV111225
p387
aV139696
p388
aV205053
p389
aV3017
p390
aV373352
p391
aV4289
p392
aV227080
p393
asS'texts'
p394
(lp395
VDestroy target artifact or enchantment.
p396
aVPut a 1/1 green Snake creature token, a 2/2 green Wolf creature token, and a 3/3 green Elephant creature token onto the battlefield.
p397
aVFlying<br>{T}: Add one mana of any color to your mana pool.
p398
aVBloodthirst 1 <i>(If an opponent was dealt damage this turn, this creature enters the battlefield with a +1/+1 counter on it.)</i><br>First strike <i>(This creature deals combat damage before creatures without first strike.)</i>
p399
aV{T}, Sacrifice Black Lotus: Add three mana of any one color to your mana pool.
p400
aVAs Black Vise enters the battlefield, choose an opponent.<br>At the beginning of the chosen player's upkeep, Black Vise deals X damage to that player, where X is the number of cards in his or her hand minus 4.
p401
aVFlying<br>{T}: Add one mana of any color to your mana pool.
p402
aVBenalish Commander's power and toughness are each equal to the number of Soldiers you control.<br>Suspend X\u2014{X}{W}{W}. X can't be 0. <i>(Rather than cast this card from your hand, you may pay {X}{W}{W} and exile it with X time counters on it. At the beginning of your upkeep, remove a time counter. When the last is removed, cast it without paying its mana cost. It has haste.)</i><br>Whenever a time counter is removed from Benalish Commander while it's exiled, put a 1/1 white Soldier creature token onto the battlefield.
p403
aVEquipped creature gets +2/+2 and has lifelink and trample.<br>Equip {3}
p404
aV{T}, Untap a tapped land an opponent controls: Add one mana of any type that land could produce to your mana pool.
p405
aVCounter target instant spell if it's blue.<br>Draw a card at the beginning of the next turn's upkeep.
p406
aVEnchant creature<br>When Bestial Fury enters the battlefield, draw a card at the beginning of the next turn's upkeep.<br>Whenever enchanted creature becomes blocked, it gets +4/+0 and gains trample until end of turn.
p407
aV{2}{U}{U}: Look at the top five cards of your library, put one of them into your hand, and exile the rest.
p408
aVKicker {2}{W} <i>(You may pay an additional {2}{W} as you cast this spell.)</i><br>If Benalish Lancer was kicked, it enters the battlefield with two +1/+1 counters on it and with first strike.
p409
aVBlackcleave Cliffs enters the battlefield tapped unless you control two or fewer other lands.<br>{T}: Add {B} or {R} to your mana pool.
p410
aVBerserkers of Blood Ridge attacks each turn if able.
p411
aVIslandwalk
p412
aVSacrifice Blood Pet: Add {B} to your mana pool.
p413
aV{2}: Target blue or red creature gets +1/+0 until end of turn.
p414
aVEquipped creature gets +1/+1.<br>Equip {1} <i>({1}: Attach to target creature you control. Equip only as a sorcery.)</i>
p415
aVDraw three cards, then discard a card.
p416
aVG
p417
aVSacrifice Benevolent Bodyguard: Target creature you control gains protection from the color of your choice until end of turn.
p418
aVCast Berserk only before the combat damage step.<br>Target creature gains trample and gets +X/+0 until end of turn, where X is its power. At the beginning of the next end step, destroy that creature if it attacked this turn.
p419
aV{T}, Sacrifice Black Lotus: Add three mana of any one color to your mana pool.
p420
aVShroud <i>(This creature can't be the target of spells or abilities.)</i><br>Fading 3 <i>(This creature enters the battlefield with three fade counters on it. At the beginning of your upkeep, remove a fade counter from it. If you can't, sacrifice it.)</i>
p421
aVCast Berserk only before the combat damage step.<br>Target creature gains trample and gets +X/+0 until end of turn, where X is its power. At the beginning of the next end step, destroy that creature if it attacked this turn.
p422
aVIf target creature has toughness 5 or greater, it gets +4/-4 until end of turn. Otherwise, it gets +4/-X until end of turn, where X is its toughness minus 1.
p423
aVEnchant creature<br>Enchanted creature has protection from blue. This effect doesn't remove Blue Ward.
p424
aV{B}, Sacrifice a creature: Target creature gets -1/-1 until end of turn.
p425
aVFlying<br>Whenever you draw a card, Niv-Mizzet, the Firemind deals 1 damage to target creature or player.<br>{T}: Draw a card.
p426
aVBloodthirst 1 <i>(If an opponent was dealt damage this turn, this creature enters the battlefield with a +1/+1 counter on it.)</i><br>Creatures with power less than Battering Wurm's power can't block it.
p427
aVDestroy target attacking creature. You gain life equal to its power.
p428
aVFirst strike<br>Belligerent Hatchling enters the battlefield with four -1/-1 counters on it.<br>Whenever you cast a red spell, remove a -1/-1 counter from Belligerent Hatchling.<br>Whenever you cast a white spell, remove a -1/-1 counter from Belligerent Hatchling.
p429
aVExile target card from a graveyard. Put a 1/1 white and black Spirit creature token with flying onto the battlefield.
p430
aV{1}: Target creature with power 5 or greater gains vigilance until end of turn.
p431
aVDestroy target permanent. Its controller puts a 3/3 green Beast creature token onto the battlefield.
p432
aVWhen Beetleback Chief enters the battlefield, put two 1/1 red Goblin creature tokens onto the battlefield.
p433
aVAt the beginning of your upkeep, put a devotion counter on Pious Kitsune. Then if a creature named Eight-and-a-Half-Tails is on the battlefield, you gain 1 life for each devotion counter on Pious Kitsune.<br>{T}, Remove a devotion counter from Pious Kitsune: You gain 1 life.
p434
aVDraw two cards.
p435
aVTap three untapped creatures you control: Tap target creature.
p436
aVFlying<br>At the beginning of each player's upkeep, that player sacrifices a creature. If the player can't, sacrifice Woebringer Demon.
p437
aVEquipped creature gets +2/+2 and has lifelink and trample.<br>Equip {3}
p438
aVThreshold- As long as seven or more cards are in your graveyard, Mystic Zealot gets +1/+1 and has flying.
p439
aVPut a 6/6 green Wurm creature token onto the battlefield.<br>Flashback {3}{G} <i>(You may cast this card from your graveyard for its flashback cost. Then exile it.)</i>
p440
aV{2}, {T}, Sacrifice Darkwater Egg: Add {U}{B} to your mana pool. Draw a card.
p441
aVTarget creature gets -3/-0 until end of turn.<br>Draw a card.
p442
aVFlanking <i>(Whenever a creature without flanking blocks this creature, the blocking creature gets -1/-1 until end of turn.)</i>
p443
aVWhenever you cast an instant or sorcery spell, Blistercoil Weird gets +1/+1 until end of turn. Untap it.
p444
aVExile target card from a graveyard. Put a 1/1 white and black Spirit creature token with flying onto the battlefield.
p445
aVEnchant creature<br>When enchanted creature dies, you draw two cards.
p446
aV{T}, Sacrifice Black Lotus: Add three mana of any one color to your mana pool.
p447
aVAs Black Vise enters the battlefield, choose an opponent.<br>At the beginning of the chosen player's upkeep, Black Vise deals X damage to that player, where X is the number of cards in his or her hand minus 4.
p448
aVReveal the top three cards of your library. Put all creature cards revealed this way into your hand and the rest into your graveyard.
p449
aVWhenever a creature you control attacks, you may put a quest counter on Beastmaster Ascension.<br>As long as Beastmaster Ascension has seven or more quest counters on it, creatures you control get +5/+5.
p450
aVChoose one- Destroy target creature; or return target creature card from your graveyard to the battlefield.<br>Entwine\u2014Sacrifice three lands. <i>(Choose both if you pay the entwine cost.)</i>
p451
aVFlying<br>Exalted <i>(Whenever a creature you control attacks alone, that creature gets +1/+1 until end of turn.)</i><br>Whenever a creature you control attacks alone, it gains lifelink until end of turn.
p452
aVFlying<br><br>{T}: Target creature gains flying until end of turn.
p453
aVCast Necrologia only during your end step.<br>As an additional cost to cast Necrologia, pay X life.<br>Draw X cards.
p454
aVFlying<br>When Foul Imp enters the battlefield, you lose 2 life.
p455
aVAt the beginning of your draw step, draw an additional card.<br>At the beginning of your end step, discard your hand.
p456
aVVolcanic Hammer deals 3 damage to target creature or player.
p457
aVReach <i>(This creature can block creatures with flying.)</i>
p458
aVSliver creatures you control have "This creature can't be blocked except by two or more creatures."
p459
aVBeast of Burden's power and toughness are each equal to the number of creatures on the battlefield.
p460
aVEnchant creature<br>Enchanted creature gets +2/+2 and has "Whenever this creature attacks, untap all lands you control."<br>Totem armor <i>(If enchanted creature would be destroyed, instead remove all damage from it and destroy this Aura.)</i>
p461
aVLevel up {2}{G} <i>({2}{G}: Put a level counter on this. Level up only as a sorcery.)</i><br>LEVEL 1-3<br>4/4<br><br>LEVEL 4+<br>6/6<br>Trample
p462
aVSacrifice Benevolent Bodyguard: Target creature you control gains protection from the color of your choice until end of turn.
p463
aVBeast of Burden's power and toughness are each equal to the number of creatures on the battlefield.
p464
aVEnchant creature<br>Enchanted creature has "{T}: This creature deals 1 damage to target creature or player."
p465
aVDestroy target permanent. Its controller puts a 3/3 green Beast creature token onto the battlefield.
p466
aVPut a 1/1 green Insect creature token onto the battlefield for each Forest you control. Shuffle Beacon of Creation into its owner's library.
p467
aVTarget creature gets +4/+4 until end of turn.<br>Scry 2. <i>(To scry 2, look at the top two cards of your library, then put any number of them on the bottom of your library and the rest on top in any order.)</i>
p468
aVDouble target player's life total. Shuffle Beacon of Immortality into its owner's library.
p469
aVPut target artifact or creature card from a graveyard onto the battlefield under your control. Shuffle Beacon of Unrest into its owner's library.
p470
aV{2}: The next time an artifact source of your choice would deal damage to you this turn, prevent that damage.
p471
aVTap any number of untapped creatures you control. You gain 4 life for each creature tapped this way.
p472
aVBlaze deals X damage to target creature or player.
p473
aVPut target artifact or creature card from a graveyard onto the battlefield under your control. Shuffle Beacon of Unrest into its owner's library.
p474
aVReveal the top three cards of your library. Put all creature cards revealed this way into your hand and the rest into your graveyard.
p475
aV<i>({2/B} can be paid with any two mana or with {B}. This card's converted mana cost is 6.)</i><br>Search your library for a card with converted mana cost less than or equal to the number of lands you control, reveal it, and put it into your hand. Then shuffle your library.
p476
aVWhenever a Beast becomes blocked, it gets +1/+1 until end of turn for each creature blocking it.
p477
aV{T}: The next time a source of your choice would deal damage to you this turn, that damage is dealt to Beacon of Destiny instead.
p478
aVDestroy target land or nonblack creature. It can't be regenerated.
p479
aVWhenever a green creature dies, its controller discards a card.
p480
aVEnchant creature <i>(Target a creature as you cast this. This card enters the battlefield attached to that creature.)</i><br>Enchanted creature gets +1/+1 for each Forest you control.
p481
aVBanding <i>(Any creatures with banding, and up to one without, can attack in a band. Bands are blocked as a group. If any creatures with banding you control are blocking or being blocked by a creature, you divide that creature's combat damage, not its controller, among any of the creatures it's being blocked by or is blocking.)</i>
p482
aVCast Berserk only before the combat damage step.<br>Target creature gains trample and gets +X/+0 until end of turn, where X is its power. At the beginning of the next end step, destroy that creature if it attacked this turn.
p483
aVEnchant creature<br>When Bestial Fury enters the battlefield, draw a card at the beginning of the next turn's upkeep.<br>Whenever enchanted creature becomes blocked, it gets +4/+0 and gains trample until end of turn.
p484
aVHexproof <i>(This creature can't be the target of spells or abilities your opponents control.)</i>
p485
aVEnchant creature<br>Sacrifice an untapped creature: Enchanted creature gets +2/+0 until end of turn.<br>Sacrifice enchanted creature: Creatures you control get +2/+0 until end of turn.
p486
aVBanding <i>(Any creatures with banding, and up to one without, can attack in a band. Bands are blocked as a group. If any creatures with banding you control are blocking or being blocked by a creature, you divide that creature's combat damage, not its controller, among any of the creatures it's being blocked by or is blocking.)</i>
p487
aV{1}{W}, {T}: Prevent all combat damage that would be dealt by target blocked creature this turn.
p488
aVFlash <i>(You may cast this spell any time you could cast an instant.)</i><br>First strike <i>(This creature deals combat damage before creatures without first strike.)</i>
p489
aVDestroy target attacking creature. You gain life equal to its power.
p490
aVFlying<br>Belbe's Percher can block only creatures with flying.
p491
aV{X}, {T}: Target creature gets -X/+X until end of turn.
p492
aVAs Belbe's Portal enters the battlefield, choose a creature type.<br>{3}, {T}: You may put a creature card of the chosen type from your hand onto the battlefield.
p493
aVPut a 1/1 green Snake creature token, a 2/2 green Wolf creature token, and a 3/3 green Elephant creature token onto the battlefield.
p494
aVProtection from red<br>Beasts of Bogardan gets +1/+1 as long as an opponent controls a white permanent.
p495
aVKicker {2}{W} <i>(You may pay an additional {2}{W} as you cast this spell.)</i><br>If Benalish Lancer was kicked, it enters the battlefield with two +1/+1 counters on it and with first strike.
p496
aV{W}, {T}: Tap target creature.
p497
aV{3}{U}, {T}: Draw a card.
p498
aVKicker {1}{G} <i>(You may pay an additional {1}{G} as you cast this spell.)</i><br>When Benalish Emissary enters the battlefield, if it was kicked, destroy target land.
p499
aVEach player separates all nontoken lands he or she controls into two piles. For each player, one of his or her piles is chosen by one of his or her opponents of his or her choice. Destroy all lands in the chosen piles. Tap all lands in the other piles.
p500
aVWhen Bearer of the Heavens dies, destroy all permanents at the beginning of the next end step.
p501
aVEquipped creature gets +2/+2 and has lifelink and trample.<br>Equip {3}
p502
aV{0}: Return Blinking Spirit to its owner's hand.
p503
aVPut target artifact or creature card from a graveyard onto the battlefield under your control. Shuffle Beacon of Unrest into its owner's library.
p504
aVWhen you set this scheme in motion, destroy all nonland permanents target opponent controls.
p505
aVDelve <i>(Each card you exile from your graveyard while casting this spell pays for {1}.)</i><br>Target creature gets +6/+6 until end of turn.
p506
aVRaid- When Bellowing Saddlebrute enters the battlefield, you lose 4 life unless you attacked with a creature this turn.
p507
aVLook at the top four cards of your library. Put two of them into your hand and the rest into your graveyard. You lose 2 life.
p508
aVIf a spell would deal damage to a creature or player, it deals that much damage minus 1 to that creature or player instead.
p509
aVExile a card from your hand: Add {B}{B} or {G}{G} to your mana pool.
p510
aVFlying<br>Whenever Cockatrice blocks or becomes blocked by a non-Wall creature, destroy that creature at end of combat.
p511
aV{W}{W}, {T}: Destroy target black permanent.
p512
aVFlying<br>Phasing <i>(This phases in or out before you untap during each of your untap steps. While it's phased out, it's treated as though it doesn't exist.)</i>
p513
aVCast Blaze of Glory only during combat before blockers are declared.<br>Target creature defending player controls can block any number of creatures this turn. It blocks each attacking creature this turn if able.
p514
aVChoose target creature or player. Draw three cards, then discard a card. Blast of Genius deals damage equal to the discarded card's converted mana cost to that creature or player.
p515
aVWhenever an instant or sorcery spell you control deals damage, put two 1/1 red and white Soldier creature tokens with haste onto the battlefield.
p516
aVTrample<br>Rampage 2 <i>(Whenever this creature becomes blocked, it gets +2/+2 until end of turn for each creature blocking it beyond the first.)</i>
p517
aVFlying<br>Whenever Beacon Hawk deals combat damage to a player, you may untap target creature.<br>{W}: Beacon Hawk gets +0/+1 until end of turn.
p518
aVWhen Benthicore enters the battlefield, put two 1/1 blue Merfolk Wizard creature tokens onto the battlefield.<br>Tap two untapped Merfolk you control: Untap Benthicore. It gains shroud until end of turn. <i>(It can't be the target of spells or abilities.)</i>
p519
aVFirst strike <i>(This creature deals combat damage before creatures without first strike.)</i><br>Protection from white <i>(This creature can't be blocked, targeted, dealt damage, or enchanted by anything white.)</i>
p520
aV{X}, {T}: The next X damage that would be dealt this turn to target white creature you control is dealt to Hazduhr the Abbot instead.
p521
aVDestroy target permanent. Its controller puts a 3/3 green Beast creature token onto the battlefield.
p522
aVSwampwalk <i>(This creature is unblockable as long as defending player controls a Swamp.)</i>
p523
aV{T}: Gain control of target creature with power less than or equal to the number of creatures you control.
p524
asS'costs'
p525
(lp526
V{2}{W}
p527
aV{3}{G}{G}
p528
aV{4}{U}
p529
aV{2}{W}
p530
aV{W}
p531
aV{G}
p532
aV{W}
p533
aV{3}{W}
p534
aV{1}{W}
p535
aV{3}{U}
p536
aV{2}{R}
p537
aV{3}{U}
p538
aV{2}{R}
p539
aV{2}{W}
p540
aV{3}{G}{G}
p541
aV{3}{W}{W}
p542
aV{4}{B}
p543
aV{5}{U}{U}{U}
p544
aV{5}{W}
p545
aV{3}{R}{R}
p546
aV{3}{B}{B}
p547
aV{2}{W}
p548
aV{2}{R}{R}
p549
aV{1}{W}
p550
aV{W}
p551
aV{G}
p552
aV{G}
p553
aV{3}{U}
p554
aV{W}
p555
aV{2}{G}
p556
aV{W}
p557
aV{3}{W}{W}
p558
aV{6}
p559
aV{3}{R/W}
p560
aV{W/B}
p561
aV{3}{G}{G}
p562
aV{2}{G}
p563
aV{2}{R}{R}
p564
aV{2}{R}{R}
p565
aV{2}{B}{B}
p566
aV{4}{U}
p567
aV{2}{W}
p568
aV{1}{G}{W}
p569
aV{1}{W}
p570
aV{2}{G}{G}{G}
p571
aV{1}{G}{G}
p572
aV{2}{U}
p573
aV{1}{W}
p574
aV{R}
p575
aV{W/B}
p576
aV{G}
p577
aV{W}
p578
aV{G}
p579
aV{3}{G}
p580
aV{2}{G}
p581
aV{5}{B}
p582
aV{3}{U}
p583
aV{5}{U}{U}{U}
p584
aV{1}{B}
p585
aV{2}{B}{B}
p586
aV{4}{B}
p587
aV{2}{R}{R}
p588
aV{6}
p589
aV{2}{W}
p590
aV{6}
p591
aV{2}{G}{G}
p592
aV{1}{G}
p593
aV{W}
p594
aV{6}
p595
aV{2/B}{2/B}{2/B}
p596
aV{2}{G}
p597
aV{6}{U}{U}
p598
aV{3}{G}
p599
aV{3}{R}{R}
p600
aV{5}{W}
p601
aV{3}{B}{B}
p602
aV{1}{G}
p603
aV{3}{G}
p604
aV{3}{B}{B}
p605
aV{3}{G}
p606
aV{2/B}{2/B}{2/B}
p607
aV{4}{G}
p608
aV{1}{W}
p609
aV{2}{R}{R}
p610
aV{2}{B}{B}
p611
aV{1}{B}
p612
aV{W}
p613
aV{G}
p614
aV{2}{R}
p615
aV{1}{W}
p616
aV{1}{R}
p617
aV{2}{W}
p618
aV{W}
p619
aV{2}{W}
p620
aV{6}
p621
aV{2}{B}
p622
aV{3}
p623
aV{5}
p624
aV{3}{G}{G}
p625
aV{4}{R}
p626
aV{2}{W}
p627
aV{1}{W}
p628
aV{3}{W}
p629
aV{2}{W}
p630
aV{3}{R}
p631
aV{1}{U}
p632
aV{1}{G}{W}
p633
aV{W}
p634
aV{3}{B}{B}
p635
aS'0'
p636
aV{2}{G}{U}{R}
p637
aV{5}{G}
p638
aV{3}{B}
p639
aV{1}{W}
p640
aV{2}{U}{B}
p641
aV{G}
p642
aV{W}
p643
aV{U}
p644
aV{3}{G}
p645
aV{G}{U}
p646
aV{1}{G}{U}
p647
aV{4}{R}
p648
aV{1}{W}
p649
aV{6}{U}
p650
aV{2}{B}
p651
aV{1}{W}{W}
p652
aV{2}{G}
p653
aV{3}{G}
p654
aV{3}{U}{U}
p655
asS'names'
p656
(lp657
VBenalish Knight
p658
aVBestial Menace
p659
aVBelltower Sphinx
p660
aVBenalish Veteran
p661
aVBenalish Hero
p662
aVBerserk
p663
aVBenalish Hero
p664
aVBenalish Commander
p665
aVBehemoth Sledge
p666
aVBenthic Explorers
p667
aVBestial Fury
p668
aVBenthic Explorers
p669
aVBestial Fury
p670
aVBenalish Lancer
p671
aVBellowing Tanglewurm
p672
aVBerserkers of Blood Ridge
p673
aVBellowing Fiend
p674
aVBenthic Behemoth
p675
aVBeacon of Immortality
p676
aVBeacon of Destruction
p677
aVBeacon of Unrest
p678
aVBenalish Knight
p679
aVBeetleback Chief
p680
aVBenalish Trapper
p681
aVBenevolent Bodyguard
p682
aVBerserk
p683
aVBerserk
p684
aVBenthic Explorers
p685
aVBenalish Hero
p686
aVBeastmaster's Magemark
p687
aVBenediction of Moons
p688
aVBelfry Spirit
p689
aVBeast of Burden
p690
aVBelligerent Hatchling
p691
aVBeckon Apparition
p692
aVBeacon Behemoth
p693
aVBeast Within
p694
aVBeetleback Chief
p695
aVBen-Ben, Akki Hermit
p696
aVBefoul
p697
aVBelltower Sphinx
p698
aVBenevolent Ancestor
p699
aVBehemoth Sledge
p700
aVBeloved Chaplain
p701
aVBeast Attack
p702
aVBearscape
p703
aVBewilder
p704
aVBenalish Cavalry
p705
aVBellows Lizard
p706
aVBeckon Apparition
p707
aVBequeathal
p708
aVBenalish Hero
p709
aVBerserk
p710
aVBeast Hunt
p711
aVBeastmaster Ascension
p712
aVBetrayal of Flesh
p713
aVBehemoth's Herald
p714
aVBenthic Behemoth
p715
aVBereavement
p716
aVBefoul
p717
aVBellowing Fiend
p718
aVBedlam
p719
aVBeast of Burden
p720
aVBelligerent Sliver
p721
aVBeast of Burden
p722
aVBear Umbra
p723
aVBeastbreaker of Bala Ged
p724
aVBenevolent Bodyguard
p725
aVBeast of Burden
p726
aVBeseech the Queen
p727
aVBeast Within
p728
aVBeacon of Tomorrows
p729
aVBeacon of Creation
p730
aVBeacon of Destruction
p731
aVBeacon of Immortality
p732
aVBeacon of Unrest
p733
aVBear Cub
p734
aVBee Sting
p735
aVBeacon of Unrest
p736
aVBeast Hunt
p737
aVBeseech the Queen
p738
aVBerserk Murlodont
p739
aVBeacon of Destiny
p740
aVBedlam
p741
aVBefoul
p742
aVBereavement
p743
aVBenalish Hero
p744
aVBerserk
p745
aVBestial Fury
p746
aVBenthic Giant
p747
aVBetrothed of Fire
p748
aVBenalish Infantry
p749
aVBenalish Missionary
p750
aVBenalish Knight
p751
aVBeast of Burden
p752
aVBelbe's Percher
p753
aVBelbe's Armor
p754
aVBelbe's Portal
p755
aVBestial Menace
p756
aVBeasts of Bogardan
p757
aVBenalish Lancer
p758
aVBenalish Trapper
p759
aVBenalish Heralds
p760
aVBenalish Emissary
p761
aVBend or Break
p762
aVBearer of the Heavens
p763
aVBehemoth Sledge
p764
aVBenalish Hero
p765
aVBeacon of Unrest
p766
aVBehold the Power of Destruction
p767
aVBear's Companion
p768
aVBecome Immense
p769
aVBellowing Saddlebrute
p770
aVBenevolent Unicorn
p771
aVBenthic Djinn
p772
aVBerserk
p773
aVBenalish Hero
p774
aVBetrayal
p775
aVBee Sting
p776
aVBeck // Call (Beck)
p777
aVBeetleform Mage
p778
aVBeasts of Bogardan
p779
aVBeacon Hawk
p780
aVBenthicore
p781
aVBerserkers of Blood Ridge
p782
aVBeast Walkers
p783
aVBeast Within
p784
aVBee Sting
p785
aVBeguiler of Wills
p786
asS'toughs'
p787
(lp788
V2
p789
aS'N/A'
p790
aV1
p791
aV5
p792
ag791
ag790
aV4
p793
aV*
p794
ag790
ag791
ag790
ag793
ag790
ag789
aV3
p795
ag792
ag789
ag795
ag790
ag790
ag790
ag791
ag791
ag789
ag789
ag790
ag790
ag793
ag791
ag790
ag790
ag791
ag790
aV6
p796
ag790
ag792
ag790
ag791
ag791
ag790
ag789
aV7
p797
ag790
ag791
ag790
ag790
ag790
ag789
ag791
ag790
ag790
ag791
ag790
ag790
ag790
ag790
aV8
p798
ag796
ag790
ag790
ag791
ag790
ag790
ag793
ag790
ag790
ag789
ag791
ag790
ag790
ag790
ag790
ag790
ag790
ag790
ag790
ag789
ag790
ag790
ag790
ag790
ag795
ag795
ag790
ag790
ag790
ag789
ag790
ag790
ag795
ag790
ag791
ag791
ag793
ag790
ag789
ag790
ag790
ag790
ag791
ag789
ag789
ag793
ag793
ag790
ag789
ag790
ag795
ag790
ag790
ag789
ag790
ag792
ag793
ag795
ag790
ag791
ag790
ag790
ag790
ag789
ag793
ag796
ag792
ag789
ag789
ag790
ag790
aV9
p799
asS'artists'
p800
(lp801
VZina Saunders
p802
aVAndrew Robinson
p803
aS''
p804
ag804
aVDouglas Schuler
p805
aVDan Frazier
p806
aVDouglas Shuler
p807
aVParente
p808
aVDave Allsop
p809
aVGreg Simanson
p810
aVMike Raabe
p811
aVGreg Simanson
p812
aVMike Raabe
p813
aVParente
p814
aVjD
p815
aVKarl Kopinski
p816
aVJim Nelson
p817
aVJim Nelson
p818
aVRob Alexander
p819
aVGreg Hildebrandt
p820
aVAlan Pollack
p821
aVZoltan Boros & Gabor Szikszai
p822
aVWayne England
p823
aVKen Meyer, Jr.
p824
aVRoger Raupp
p825
aVSteve Prescott
p826
aVSteve Prescott
p827
aVRichard Thomas
p828
aVDouglas Shuler
p829
aVBrandon Kitkouski
p830
aVMatt Cavotta
p831
aVDaren Bader
p832
aVChippy
p833
aVSteve Prescott
p834
aVLarry MacDougall
p835
aVJesper Ejsing
p836
ag804
ag804
aVGreg Staples
p837
aVLuca Zontini
p838
aVJim Nelson
p839
aVNick Percival
p840
aVSteve Prescott
p841
aVDarrell Riche
p842
aVCiruelo
p843
aVHeather Hudson
p844
aVRalph Horsley
p845
aVParente
p846
aVJack Wang
p847
aVCliff Childs
p848
aVD. Alexander Gregory
p849
aVDouglas Shuler
p850
aVDan Frazier
p851
aVKieran Yanner
p852
aVAlex Horley-Orlandelli
p853
aVWayne England
p854
aVParente
p855
aVHeather Hudson
p856
aVMarc Fishman
p857
aVCiruelo
p858
aVChippy
p859
aVRon Spencer
p860
aVChippy
p861
aVRaymond Swanland
p862
aVRon Spears
p863
aVHoward Lyon
p864
aVKarl Kopinski
p865
aVRoger Raupp
p866
aVRon Spears
p867
aVJason Chan
p868
ag804
aVJeremy Jarvis
p869
aVMark Tedin
p870
aVGreg Hildebrandt
p871
aVRob Alexander
p872
aVAlan Pollack
p873
aVRon Spencer
p874
aVCris Dornaus
p875
aVAlan Pollack
p876
aVKieran Yanner
p877
aVJason Chan
p878
aVArnie Swekel
p879
aVTim Hildebrandt
p880
aVMike Raabe
p881
aVPete Venters
p882
aVAndrew Goldhawk
p883
aVDouglas Shuler
p884
aVDan Frazier
p885
aVMike Raabe
p886
aVJaime Jones
p887
aVClint Langley
p888
aVDan Frazier
p889
aVPete Venters
p890
aVZina Saunders
p891
aVChippy
p892
aVEdward P. Beard, Jr.
p893
aVD. Alexander Gregory
p894
aVMark Tedin
p895
aVAndrew Robinson
p896
aVDaniel Gelon
p897
aVPaolo Parente
p898
aVKen Meyer, Jr.
p899
aVDon Hazeltine
p900
aVRandy Gallegos
p901
aVArnie Swekel
p902
aVRyan Alexander Lee
p903
aVSteve Prescott
p904
aVDouglas Shuler
p905
aVAlan Pollack
p906
aVJesper Ejsing
p907
aVWinona Nelson
p908
aVJaime Jones
p909
aVTorstein Nordstrand
p910
aVDavid A. Cherry
p911
aVAdam Rex
p912
aVDan Frazier
p913
aVDouglas Schuler
p914
aVGary Leach
p915
aVCris Dornaus
p916
aVAdam Paquette
p917
aVMarco Nelor
p918
aVDaniel Gelon
p919
aVWilliam Simpson
p920
aVJim Nelson
p921
aVKarl Kopinski
p922
aVHeather Hudson
p923
aVJesper Ejsing
p924
aVPhil Foglio
p925
aVEric Deschamps
p926
asS'powers'
p927
(lp928
g791
ag790
ag789
ag789
ag791
ag790
ag791
ag794
ag790
ag789
ag790
ag793
ag790
ag789
ag795
ag793
ag789
ag795
ag790
ag790
ag790
ag791
ag791
ag789
ag791
ag790
ag790
ag789
ag791
ag790
ag790
ag791
ag790
ag796
ag790
ag792
ag790
ag791
ag791
ag790
ag795
ag793
ag790
ag791
ag790
ag790
ag790
ag789
ag791
ag790
ag790
ag791
ag790
ag790
ag790
ag790
ag791
ag797
ag790
ag790
ag789
ag790
ag790
ag789
ag790
ag790
ag789
ag791
ag790
ag790
ag790
ag790
ag790
ag790
ag790
ag790
ag789
ag790
ag790
ag790
ag790
ag795
ag791
ag790
ag790
ag790
ag791
ag790
ag790
ag791
ag790
ag791
aV0
p929
ag789
ag790
ag789
ag790
ag790
ag790
ag929
ag789
ag791
ag789
ag791
ag790
ag792
ag790
ag789
ag790
ag790
ag789
ag790
ag793
ag795
ag789
ag790
ag791
ag790
ag790
ag790
ag789
ag789
ag796
ag792
ag793
ag789
ag790
ag790
ag799
asS'types'
p930
(lp931
VCreature - Human Knight
p932
aVSorcery
p933
aVCreature - Sphinx
p934
aVCreature - Human Soldier
p935
aVCreature - Human Soldier
p936
aVInstant
p937
aVCreature - Human Soldier
p938
aVCreature - Human Soldier
p939
aVArtifact - Equipment
p940
aVCreature - Merfolk Scout
p941
aVEnchantment - Aura
p942
aVCreature - Merfolk Scout
p943
aVEnchantment - Aura
p944
aVCreature - Human Knight
p945
aVCreature - Wurm
p946
aVCreature - Human Berserker
p947
aVCreature - Spirit
p948
aVCreature - Serpent
p949
aVInstant
p950
aVInstant
p951
aVSorcery
p952
aVCreature - Human Knight
p953
aVCreature - Goblin Warrior
p954
aVCreature - Human Soldier
p955
aVCreature - Human Cleric
p956
aVInstant
p957
aVInstant
p958
aVCreature - Merfolk Scout
p959
aVCreature - Human Soldier
p960
aVEnchantment - Aura
p961
aVSorcery
p962
aVCreature - Spirit
p963
aVArtifact Creature - Golem
p964
aVCreature - Elemental
p965
aVInstant
p966
aVCreature - Beast
p967
aVInstant
p968
aVCreature - Goblin Warrior
p969
aVLegendary Creature - Goblin Shaman
p970
aVSorcery
p971
aVCreature - Sphinx
p972
aVCreature - Spirit
p973
aVArtifact - Equipment
p974
aVCreature - Human Cleric
p975
aVInstant
p976
aVEnchantment
p977
aVInstant
p978
aVCreature - Human Knight
p979
aVCreature - Lizard
p980
aVInstant
p981
aVEnchantment - Aura
p982
aVCreature - Human Soldier
p983
aVInstant
p984
aVSorcery
p985
aVEnchantment
p986
aVInstant
p987
aVCreature - Elf Shaman
p988
aVCreature - Serpent
p989
aVEnchantment
p990
aVSorcery
p991
aVCreature - Spirit
p992
aVEnchantment
p993
aVArtifact Creature - Golem
p994
aVCreature - Sliver
p995
aVArtifact Creature - Golem
p996
aVEnchantment - Aura
p997
aVCreature - Human Warrior
p998
aVCreature - Human Cleric
p999
aVArtifact Creature - Golem
p1000
aVSorcery
p1001
aVInstant
p1002
aVSorcery
p1003
aVSorcery
p1004
aVInstant
p1005
aVInstant
p1006
aVSorcery
p1007
aVCreature - Bear
p1008
aVSorcery
p1009
aVSorcery
p1010
aVSorcery
p1011
aVSorcery
p1012
aVCreature - Beast
p1013
aVCreature - Human Cleric
p1014
aVEnchantment
p1015
aVSorcery
p1016
aVEnchantment
p1017
aVCreature - Human Soldier
p1018
aVInstant
p1019
aVEnchantment - Aura
p1020
aVCreature - Giant
p1021
aVEnchantment - Aura
p1022
aVCreature - Human Soldier
p1023
aVCreature - Human Cleric
p1024
aVCreature - Human Knight
p1025
aVArtifact Creature - Golem
p1026
aVCreature - Bird
p1027
aVArtifact
p1028
aVArtifact
p1029
aVSorcery
p1030
aVCreature - Beast
p1031
aVCreature - Human Knight
p1032
aVCreature - Human Soldier
p1033
aVCreature - Human Soldier
p1034
aVCreature - Human Wizard
p1035
aVSorcery
p1036
aVCreature - Giant
p1037
aVArtifact - Equipment
p1038
aVCreature - Human Soldier
p1039
aVSorcery
p1040
aVScheme
p1041
aVCreature - Human Warrior
p1042
aVInstant
p1043
aVCreature - Orc Warrior
p1044
aVCreature - Unicorn
p1045
aVCreature - Djinn
p1046
aVInstant
p1047
aVCreature - Human Soldier
p1048
aVEnchantment - Aura
p1049
aVSorcery
p1050
aVSorcery
p1051
aVCreature - Human Insect Wizard
p1052
aVCreature - Beast
p1053
aVCreature - Bird
p1054
aVCreature - Elemental
p1055
aVCreature - Human Berserker
p1056
aVCreature - Human Beast Soldier
p1057
aVInstant
p1058
aVSorcery
p1059
aVCreature - Human Wizard
p1060
asS'numbers'
p1061
(lp1062
V73
p1063
aV144
p1064
aV46
p1065
aV10
p1066
aV28
p1067
aV29
p1068
aV152
p1069
ag789
aV28
p1070
aV41
p1071
aV75
p1072
aV133
p1073
aV134
p1074
aV12
p1075
aV111
p1076
aV126
p1077
aV226
p1078
aV227
p1079
aV10
p1080
aV189
p1081
aV129
p1082
aV11
p1083
aV150
p1084
aV16
p1085
aV17
p1086
aV197
p1087
ag789
aV29
p1088
aV65
p1089
aV80
p1090
ag795
ag789
aV288
p1091
aV134
p1092
aV82
p1093
aV78
p1094
aV52
p1095
aV53
p1096
aV157
p1097
aV102
p1098
aV38
p1099
ag795
aV178
p1100
aV11
p1101
aV230
p1102
aV229
p1103
aV49
p1104
ag793
aV88
p1105
aV212
p1106
aV106
p1107
aV33
p1108
aV34
p1109
aV158
p1110
aV159
p1111
aV58
p1112
aV124
p1113
aV63
p1114
aV120
p1115
aV118
p1116
aV119
p1117
aV174
p1118
aV287
p1119
aV129
p1120
aV122
p1121
aV177
p1122
aV178
p1123
ag792
aV122
p1124
aV57
p1125
aV103
p1126
aV24
p1127
aV82
p1128
aV61
p1129
ag796
aV41
p1130
aV68
p1131
aV81
p1132
aV18
p1133
aV68
p1134
aV19
p1135
aV117
p1136
ag792
aV175
p1137
aV116
p1138
aV117
p1139
ag792
aV114
p1140
aV88
p1141
aV41
p1142
aV78
p1143
aV100
p1144
aV101
p1145
aV123
p1146
aV292
p1147
aV53
p1148
aV126
p1149
aV127
p1150
aV97
p1151
aV23
p1152
ag797
ag798
ag796
ag792
aV137
p1153
aV89
p1154
aV65
p1155
aV213
p1156
aV10
p1157
ag793
aV167
p1158
aV130
p1159
aV64
p1160
aV167
p1161
aV204
p1162
aV20
p1163
aV51
p1164
aV32
p1165
aV144
p1166
aV123
p1167
aV54
p1168
aV193
p1169
ag795
aV53
p1170
aV124
p1171
aV67
p1172
aV69
p1173
aV99
p1174
aV28
p1175
as.