(dp0
S'rares'
p1
(lp2
VUncommon
p3
aVRare
p4
aVUncommon
p5
aVUncommon
p6
aVUncommon
p7
aVCommon
p8
aVCommon
p9
aVUncommon
p10
aVUncommon
p11
aVCommon
p12
aVCommon
p13
aVUncommon
p14
aVRare
p15
aVCommon
p16
aVRare
p17
aVRare
p18
aVCommon
p19
aVRare
p20
aVUncommon
p21
aVUncommon
p22
aVCommon
p23
aVRare
p24
aVUncommon
p25
aVRare
p26
aVCommon
p27
aVCommon
p28
aVRare
p29
aVRare
p30
aVCommon
p31
aVUncommon
p32
aVRare
p33
aVUncommon
p34
aVCommon
p35
aVCommon
p36
aVMythic Rare
p37
aVUncommon
p38
aVUncommon
p39
aVRare
p40
aVUncommon
p41
aVCommon
p42
aVCommon
p43
aVUncommon
p44
aVCommon
p45
aVCommon
p46
aVUncommon
p47
aVCommon
p48
aVUncommon
p49
aVUncommon
p50
aVRare
p51
aVCommon
p52
aVCommon
p53
aVRare
p54
aVCommon
p55
aVUncommon
p56
aVUncommon
p57
aVRare
p58
aVUncommon
p59
aVUncommon
p60
aVRare
p61
aVUncommon
p62
aVCommon
p63
aVRare
p64
aVUncommon
p65
aVUncommon
p66
aVRare
p67
aVCommon
p68
aVUncommon
p69
aVCommon
p70
aVCommon
p71
aVUncommon
p72
aVUncommon
p73
aVUncommon
p74
aVCommon
p75
aVUncommon
p76
aVRare
p77
aVUncommon
p78
aVCommon
p79
aVRare
p80
aVCommon
p81
aVUncommon
p82
aVCommon
p83
aVUncommon
p84
asS'editns'
p85
(lp86
VMagic: The Gathering-Commander
p87
aVMagic: The Gathering-Commander
p88
aVMagic 2012
p89
aVLimited Edition Beta
p90
aVSaviors of Kamigawa
p91
aVMorningtide
p92
aVMorningtide
p93
aVFourth Edition
p94
aVAlliances
p95
aVMagic 2010
p96
aVMagic 2010
p97
aVMagic 2014 Core Set
p98
aVMagic 2014 Core Set
p99
aVMercadian Masques
p100
aVVintage Masters
p101
aVVintage Masters
p102
aVMirrodin Besieged
p103
aVMasters Edition III
p104
aVRevised Edition
p105
aVMasters Edition II
p106
aVGuildpact
p107
aVGuildpact
p108
aVAvacyn Restored
p109
aVAvacyn Restored
p110
aVAvacyn Restored
p111
aVDuel Decks: Sorin vs. Tibalt
p112
aVDuel Decks: Sorin vs. Tibalt
p113
aVOnslaught
p114
aVChampions of Kamigawa
p115
aVChampions of Kamigawa
p116
aVChampions of Kamigawa
p117
aVBetrayers of Kamigawa
p118
aVUrza's Destiny
p119
aVUrza's Destiny
p120
aVFrom the Vault: Annihilation (2014)
p121
aVModern Event Deck 2014
p122
aVOdyssey
p123
aVOdyssey
p124
aVGatecrash
p125
aVGatecrash
p126
aVColdsnap
p127
aVUnlimited Edition
p128
aVIce Age
p129
aVZendikar
p130
aVClassic Sixth Edition
p131
aVDuel Decks: Elspeth vs. Tezzeret
p132
aVShards of Alara
p133
aVSeventh Edition
p134
aVMagic 2015 Core Set
p135
aVUrza's Legacy
p136
aVDarksteel
p137
aVJudgment
p138
aVShadowmoor
p139
aVStarter 1999
p140
aVPlanechase
p141
aVUrza's Saga
p142
aVUrza's Saga
p143
aVTheros
p144
aVWeatherlight
p145
aVWeatherlight
p146
aVWorldwake
p147
aVWorldwake
p148
aVPremium Deck Series: Graveborn
p149
aVKhans of Tarkir
p150
aVKhans of Tarkir
p151
aVMirage
p152
aVMirage
p153
aVMirage
p154
aVInnistrad
p155
aVInnistrad
p156
aVInnistrad
p157
aVLimited Edition Alpha
p158
aVVisions
p159
aVStronghold
p160
aVStronghold
p161
aVLorwyn
p162
aVPortal Three Kingdoms
p163
aVPortal Three Kingdoms
p164
aVPortal
p165
aVPortal
p166
aVDark Ascension
p167
aVDark Ascension
p168
asS'ids'
p169
(lp170
V247342
p171
aV247537
p172
aV220302
p173
aV481
p174
aV50234
p175
aV152668
p176
aV152694
p177
aV2263
p178
aV3166
p179
aV191096
p180
aV191061
p181
aV370661
p182
aV370696
p183
aV19574
p184
aV382875
p185
aV382876
p186
aV213771
p187
aV201274
p188
aV1281
p189
aV184762
p190
aV96898
p191
aV97205
p192
aV239990
p193
aV271120
p194
aV271115
p195
aV368490
p196
aV368501
p197
aV39658
p198
aV50305
p199
aV78600
p200
aV78687
p201
aV74536
p202
aV15179
p203
aV15783
p204
aV386285
p205
aV382179
p206
aV29846
p207
aV31797
p208
aV366467
p209
aV366304
p210
aV121152
p211
aV783
p212
aV2440
p213
aV177558
p214
aV16448
p215
aV222770
p216
aV174952
p217
aV13103
p218
aV383199
p219
aV13806
p220
aV43557
p221
aV34403
p222
aV158688
p223
aV20226
p224
aV205321
p225
aV8886
p226
aV5577
p227
aV373620
p228
aV4430
p229
aV4451
p230
aV201560
p231
aV197125
p232
aV270455
p233
aV386500
p234
aV386501
p235
aV3431
p236
aV3432
p237
aV3433
p238
aV222203
p239
aV243211
p240
aV220049
p241
aV186
p242
aV3658
p243
aV5115
p244
aV5116
p245
aV139395
p246
aV10555
p247
aV10637
p248
aV4331
p249
aV4290
p250
aV262873
p251
aV262705
p252
asS'texts'
p253
(lp254
VSearch your library for up to three creature cards and put them into your graveyard. Then shuffle your library.
p255
aVFlying<br>Whenever Butcher of Malakir or another creature you control dies, each opponent sacrifices a creature.
p256
aVBloodthirst 3 <i>(If an opponent was dealt damage this turn, this creature enters the battlefield with three +1/+1 counters on it.)</i><br>Trample <i>(If this creature would assign enough damage to its blockers to destroy them, you may have it assign the rest of its damage to defending player or planeswalker.)</i>
p257
aVUntil end of turn, any time you could activate a mana ability, you may pay 1 life. If you do, add {1} to your mana pool.
p258
aVWhen Burning-Eye Zubera dies, if 4 or more damage was dealt to it this turn, Burning-Eye Zubera deals 3 damage to target creature or player.
p259
aVWhenever Burrenton Shield-Bearers attacks, target creature gets +0/+3 until end of turn.
p260
aVFlying<br>Reinforce 2\u2014{2}{W} <i>({2}{W}, Discard this card: Put two +1/+1 counters on target creature.)</i>
p261
aVWhenever Cave People attacks, it gets +1/-2 until end of turn.<br>{1}{R}{R}, {T}: Target creature gains mountainwalk until end of turn.
p262
aV{R}: Exile the top card of your library. If that card is a land card, Chaos Harlequin gets -4/-0 until end of turn. Otherwise, Chaos Harlequin gets +2/+0 until end of turn.
p263
aVEach player draws three cards, then discards three cards at random.
p264
aVCreatures you control gain haste until end of turn. <i>(They can attack and {T} even if they just came under your control.)</i>
p265
aVWhenever a player taps a nonbasic land for mana, Burning Earth deals 1 damage to that player.
p266
aVCounter target spell.
p267
aVWhenever you cast a creature spell, you may pay {1}. If you do, draw a card, then discard a card.
p268
aVAdd {B}{B}{B} to your mana pool.<br>Threshold- Add {B}{B}{B}{B}{B} to your mana pool instead if seven or more cards are in your graveyard.
p269
aVCaldera Lake enters the battlefield tapped.<br>{T}: Add {1} to your mana pool.<br>{T}: Add {U} or {R} to your mana pool. Caldera Lake deals 1 damage to you.
p270
aVBurn the Impure deals 3 damage to target creature. If that creature has infect, Burn the Impure deals 3 damage to that creature's controller.
p271
aVTake an extra turn after this one.
p272
aV{1}: The next time a green source of your choice would deal damage to you this turn, prevent that damage.
p273
aVEnchant creature<br>Enchanted creature gets +0/+2.<br>Sacrifice Carapace: Regenerate enchanted creature.
p274
aVFlying<br>When Skeletal Vampire enters the battlefield, put two 1/1 black Bat creature tokens with flying onto the battlefield.<br>{3}{B}{B}, Sacrifice a Bat: Put two 1/1 black Bat creature tokens with flying onto the battlefield.<br>Sacrifice a Bat: Regenerate Skeletal Vampire.
p275
aV{T}: Add {1} to your mana pool.<br>{3}{W}{B}, {T}: Target player loses 1 life and you gain 1 life.
p276
aVAs an additional cost to cast Burn at the Stake, tap any number of untapped creatures you control.<br>Burn at the Stake deals damage to target creature or player equal to three times the number of creatures tapped this way.
p277
aVUndying <i>(When this creature dies, if it had no +1/+1 counters on it, return it to the battlefield under its owner's control with a +1/+1 counter on it.)</i>
p278
aVEnchant nonblack creature<br>Enchanted creature gets +1/+2, has flying, and is an Angel in addition to its other types.
p279
aVTarget opponent loses 3 life.<br>Flashback {5}{R} <i>(You may cast this card from your graveyard for its flashback cost. Then exile it.)</i>
p280
aVFlying<br>Whenever Butcher of Malakir or another creature you control dies, each opponent sacrifices a creature.
p281
aVYou may assign Butcher Orgg's combat damage divided as you choose among defending player and/or any number of creatures he or she controls.
p282
aVSacrifice Burr Grafter: Target creature gets +2/+2 until end of turn.<br>Soulshift 3 <i>(When this creature dies, you may return target Spirit card with converted mana cost 3 or less from your graveyard to your hand.)</i>
p283
aVWhenever one or more creatures block, flip a coin. If you win the flip, each blocking creature is sacrificed by its controller. If you lose the flip, each blocked creature is sacrificed by its controller.
p284
aVLook at the top five cards of your library. You may reveal an instant or sorcery card from among them and put it into your hand. Put the rest on the bottom of your library in any order.
p285
aVWhenever you cast a Spirit or Arcane spell, you may put a ki counter on Budoka Pupil.<br>At the beginning of the end step, if there are two or more ki counters on Budoka Pupil, you may flip it.<br>----<br>Ichiga, Who Topples Oaks<br>Legendary Creature- Spirit<br>4/3<br>Trample<br>Remove a ki counter from Ichiga, Who Topples Oaks: Target creature gets +2/+2 until end of turn.
p286
aVUntil end of turn, whenever a player taps a Swamp for mana, that player adds {B} to his or her mana pool <i>(in addition to the mana the land produces)</i>.
p287
aVBubbling Beebles is unblockable as long as defending player controls an enchantment.
p288
aVYou destroy four lands you control, then target opponent destroys four lands he or she controls. Then Burning of Xinye deals 4 damage to each creature.
p289
aVProtection from red<br>Sacrifice Burrenton Forge-Tender: Prevent all damage a red source of your choice would deal this turn.
p290
aVTarget player discards a card.<br>Flashback {3}{B} <i>(You may cast this card from your graveyard for its flashback cost. Then exile it.)</i>
p291
aVDestroy target artifact, target creature, target enchantment, and target land.
p292
aVWhen Burning-Tree Emissary enters the battlefield, add {R}{G} to your mana pool.
p293
aVPut a +1/+1 counter on target creature and untap it.
p294
aVTrample<br>Whenever Bull Aurochs attacks, it gets +1/+0 until end of turn for each other attacking Aurochs.
p295
aVUntil end of turn, any time you could activate a mana ability, you may pay 1 life. If you do, add {1} to your mana pool.
p296
aVAs an additional cost to cast Burnt Offering, sacrifice a creature.<br>Add X mana in any combination of {B} and/or {R} to your mana pool, where X is the sacrificed creature's converted mana cost.
p297
aVKicker {4} <i>(You may pay an additional {4} as you cast this spell.)</i><br>Burst Lightning deals 2 damage to target creature or player. If Burst Lightning was kicked, it deals 4 damage to that creature or player instead.
p298
aVEnchant land<br>You control enchanted land.
p299
aVFlying<br>Reinforce 2\u2014{2}{W} <i>({2}{W}, Discard this card: Put two +1/+1 counters on target creature.)</i>
p300
aVLifelink
p301
aVReturn all green permanents to their owners' hands.
p302
aVCounter target spell.
p303
aVUntap target permanent.
p304
aVTarget player loses 1 life for each tapped artifact he or she controls.
p305
aVYou may choose a sorcery card you own from outside the game, reveal that card, and put it into your hand. Exile Burning Wish.
p306
aVWhenever a creature with flying attacks you, Raking Canopy deals 4 damage to it.
p307
aVDestroy target nonblack creature. You gain 3 life.
p308
aVVigilance, haste
p309
aV{1}, Sacrifice a permanent: You gain 1 life.
p310
aVWhen Cackling Fiend enters the battlefield, each opponent discards a card.
p311
aVBestow {5}{B} <i>(If you cast this card for its bestow cost, it's an Aura spell with enchant creature. It becomes a creature again if it's not attached to a creature.)</i><br>Intimidate<br>Enchanted creature gets +2/+2 and has intimidate.
p312
aVPrevent all damage that would be dealt to creatures.
p313
aVSearch your library for up to three creature cards and put them into your graveyard. Then shuffle your library.
p314
aVTarget creature gets +2/+0 until end of turn.
p315
aVFlying<br>Whenever Butcher of Malakir or another creature you control dies, each opponent sacrifices a creature.
p316
aVSearch your library for up to three creature cards and put them into your graveyard. Then shuffle your library.
p317
aVFlying<br>Sacrifice another creature: Butcher of the Horde gains your choice of vigilance, lifelink, or haste until end of turn.
p318
aVCounter target spell.
p319
aVDestroy X target artifacts. Builder's Bane deals damage to each player equal to the number of artifacts he or she controlled put into a graveyard this way.
p320
aV{1}{R}{R}: Burning Palm Efreet deals 2 damage to target creature with flying and that creature loses flying until end of turn.
p321
aVFlanking <i>(Whenever a creature without flanking blocks this creature, the blocking creature gets -1/-1 until end of turn.)</i><br>{R}{R}: Burning Shield Askari gains first strike until end of turn.
p322
aVTarget opponent loses 3 life.<br>Flashback {5}{R} <i>(You may cast this card from your graveyard for its flashback cost. Then exile it.)</i>
p323
aVWhenever you cast a spell from your graveyard, Burning Vengeance deals 2 damage to target creature or player.
p324
aVEquipped creature gets +3/+0.<br>As long as equipped creature is a Human, it has lifelink.<br>Equip {3}
p325
aVClockwork Beast enters the battlefield with seven +1/+0 counters on it.<br>At end of combat, if Clockwork Beast attacked or blocked this combat, remove a +1/+0 counter from it.<br>{X}, {T}: Put up to X +1/+0 counters on Clockwork Beast. This ability can't cause the total number of +1/+0 counters on Clockwork Beast to be greater than seven. Activate this ability only during your upkeep.
p326
aVPlayers can cast spells and activate abilities only during their own turns.
p327
aV{2}, {T}: Bullwhip deals 1 damage to target creature. That creature attacks this turn if able.
p328
aVWhenever an opponent plays a land, you may put a land card from your hand onto the battlefield.
p329
aVProtection from red<br>Sacrifice Burrenton Forge-Tender: Prevent all damage a red source of your choice would deal this turn.
p330
aVSwampwalk
p331
aVHorsemanship <i>(This creature can't be blocked except by creatures with horsemanship.)</i><br>Whenever Ma Chao, Western Warrior attacks alone, it's unblockable this combat.
p332
aVWhen Fire Imp enters the battlefield, it deals 2 damage to target creature.
p333
aVEarthquake deals X damage to each creature without flying and each player.
p334
aVEnchant creature<br>{1}: Tap enchanted creature.
p335
aVBurning Oil deals 3 damage to target attacking or blocking creature.<br>Flashback {3}{W} <i>(You may cast this card from your graveyard for its flashback cost. Then exile it.)</i>
p336
asS'costs'
p337
(lp338
V{2}{B}
p339
aV{5}{B}{B}
p340
aS'0'
p341
aV{R}
p342
aV{2}{R}{R}
p343
aV{4}{W}
p344
aV{2}{W}
p345
aV{R}
p346
aV{1}{R}
p347
aV{4}{G}
p348
aV{R}
p349
aV{2}{G}
p350
aV{2}
p351
aV{1}{U}
p352
aV{4}{R}{R}
p353
aV{1}{R}
p354
aV{1}{R}
p355
aV{4}{R}{R}
p356
aV{R}
p357
aV{1}{R}
p358
aV{2}{R}{G}
p359
aV{1}{R}{G}
p360
aV{1}{G}
p361
aV{3}{W}{W}{U}
p362
aV{3}{W}
p363
aV{B}
p364
aV{5}{B}{B}
p365
aV{4}{R}{R}{R}
p366
aV{3}{G}
p367
aV{W}
p368
aV{1}{G}
p369
aV{1}{G}{G}
p370
aV{B}
p371
aV{4}{U}
p372
aV{4}{R}{R}
p373
aV{W}
p374
aV{2}{B}
p375
aV{3}{R}{R}
p376
aV{R/G}{R/G}
p377
aV{G}
p378
aV{1}{G}
p379
aV{R}
p380
aV{B}
p381
aV{R}
p382
aV{R}
p383
aV{2}{W}
p384
aV{2}{G}
p385
aV{3}{G}
p386
aV{3}{R}
p387
aV{W}
p388
aV{3}{B}
p389
aV{1}{R}
p390
aV{3}{R}
p391
aV{3}{G}
p392
aV{4}{R}{W}
p393
aV{3}{R}{R}
p394
aV{3}{G}
p395
aV{2}
p396
aV{4}
p397
aV{2}{B}
p398
aV{R}
p399
aV{5}{B}{B}
p400
aV{2}{B}
p401
aV{4}{R}
p402
aV{1}{R}{W}{B}
p403
aV{X}{X}{R}
p404
aV{2}{R}{R}
p405
aV{2}{R}
p406
aV{B}
p407
aV{2}{R}
p408
aV{3}
p409
aV{R}
p410
aV{3}{G}
p411
aV{4}
p412
aV{G}
p413
aV{W}
p414
aV{4}{R}
p415
aV{4}{R}{R}
p416
aV{R}
p417
aV{3}{G}
p418
aV{W}
p419
aV{1}{R}
p420
asS'names'
p421
(lp422
VBuried Alive
p423
aVButcher of Malakir
p424
aVBuried Ruin
p425
aVBurrowing
p426
aVBurning-Eye Zubera
p427
aVBurrenton Shield-Bearers
p428
aVBurrenton Bombardier
p429
aVBurrowing
p430
aVBurnout
p431
aVBurning Inquiry
p432
aVBurst of Speed
p433
aVBubbling Cauldron
p434
aVBurning Earth
p435
aVBuoyancy
p436
aVBurning of Xinye
p437
aVBurning Wish
p438
aVBurn the Impure
p439
aVBurning of Xinye
p440
aVBurrowing
p441
aVBurnout
p442
aVBurning-Tree Bloodscale
p443
aVBurning-Tree Shaman
p444
aVBuilder's Blessing
p445
aVBurn at the Stake
p446
aVButcher Ghoul
p447
aVBump in the Night
p448
aVButcher of Malakir
p449
aVButcher Orgg
p450
aVBurr Grafter
p451
aVBushi Tenderfoot (Kenzo the Hardhearted)
p452
aVBudoka Gardener (Dokai, Weaver of Life)
p453
aVBudoka Pupil
p454
aVBubbling Muck
p455
aVBubbling Beebles
p456
aVBurning of Xinye
p457
aVBurrenton Forge-Tender
p458
aVBuried Alive
p459
aVBurning Sands
p460
aVBurning-Tree Emissary
p461
aVBurst of Strength
p462
aVBull Aurochs
p463
aVBurrowing
p464
aVBurnt Offering
p465
aVBurst Lightning
p466
aVBurrowing
p467
aVBurrenton Bombardier
p468
aVBull Cerodon
p469
aVBull Hippo
p470
aVBurning Anger
p471
aVBurst of Energy
p472
aVBurden of Greed
p473
aVBurning Wish
p474
aVBurn Trail
p475
aVBull Hippo
p476
aVBull Cerodon
p477
aVBulwark
p478
aVBull Hippo
p479
aVBurnished Hart
p480
aVBubble Matrix
p481
aVBuried Alive
p482
aVBull Rush
p483
aVButcher of Malakir
p484
aVBuried Alive
p485
aVBurn Away
p486
aVButcher of the Horde
p487
aVBuilder's Bane
p488
aVBurning Palm Efreet
p489
aVBurning Shield Askari
p490
aVBump in the Night
p491
aVBurning Vengeance
p492
aVButcher's Cleaver
p493
aVBurrowing
p494
aVBull Elephant
p495
aVBullwhip
p496
aVBurgeoning
p497
aVBurrenton Forge-Tender
p498
aVBurning Fields
p499
aVBurning of Xinye
p500
aVBurning Cloak
p501
aVBull Hippo
p502
aVBurden of Guilt
p503
aVBurning Oil
p504
asS'toughs'
p505
(lp506
S'N/A'
p507
aV4
p508
ag507
ag507
aV3
p509
ag509
aV2
p510
ag507
ag507
ag507
ag507
ag507
ag507
ag507
ag507
ag507
ag507
ag507
ag507
ag507
ag510
ag508
ag507
ag507
ag510
ag507
ag508
ag508
ag510
ag508
ag509
ag510
ag507
aV1
p511
ag507
ag511
ag507
ag507
ag509
ag507
aV5
p512
ag507
ag507
ag507
ag507
aV0
p513
ag511
ag509
ag507
ag507
ag507
ag507
ag507
ag509
ag510
ag507
ag510
ag507
ag507
ag507
ag507
ag508
ag507
ag507
ag508
ag507
ag511
ag508
ag507
ag507
ag507
ag507
ag508
ag507
ag507
ag511
ag507
ag507
ag507
ag509
ag507
ag507
asS'artists'
p514
(lp515
VGreg Staples
p516
aVJason Chan
p517
aS''
p518
aVMark Poole
p519
aVAnthony S. Waters
p520
aVDaren Bader
p521
aVRon Spencer
p522
aVMark Poole
p523
aVMike Raabe
p524
aVZoltan Boros & Gabor Szikszai
p525
aVZoltan Boros & Gabor Szikszai
p526
aVEric Deschamps
p527
aVrk post
p528
aVJeff Miracola
p529
aVYang Hong
p530
aVScott M. Fischer
p531
ag518
aVRandy Gallegos
p532
aVMark Poole
p533
aVMike Raabe
p534
aVKev Walker
p535
aVDan Scott
p536
aVZoltan Boros
p537
aVChristopher Moeller
p538
aVJaime Jones
p539
aVKev Walker
p540
aVJason Chan
p541
aVKev Walker
p542
aVHeather Hudson
p543
aVMark Zug
p544
aVKev Walker
p545
aVShishizaru
p546
aVGreg & Tim Hildebrandt
p547
aVJeff Miracola
p548
aVYang Hong
p549
aVChuck Lukacs
p550
aVGreg Staples
p551
aVRon Spencer
p552
aVIzzy
p553
aVMarco Nelor
p554
aVKev Walker
p555
aVMark Poole
p556
aVDaniel Gelon
p557
aVVance Kovacs
p558
aVMark Poole
p559
aVRon Spencer
p560
aVJesper Ejsing
p561
aVHeather Hudson
p562
aVAnthony Palumbo
p563
aVMark Brill
p564
aVVance Kovacs
p565
aVScott M. Fischer
p566
aVNils Hamm
p567
aVDaren Bader
p568
aVJesper Ejsing
p569
aVBrian Snoddy
p570
aVDaren Bader
p571
aVYeong-Hao Han
p572
aVBrom
p573
aVBrian Horton
p574
aVChristopher Moeller
p575
aVJason Chan
p576
ag518
aVVincent Proce
p577
aVKarl Kopinski
p578
aVCharles Gillespie
p579
aVDermot Power
p580
aVDan Frazier
p581
aVKev Walker
p582
aVRaymond Swanland
p583
aVJason Felix
p584
aVMark Poole
p585
aVSteven White
p586
aVBrom
p587
aVRandy Gallegos
p588
aVChuck Lukacs
p589
aVYang Hong
p590
aVYang Hong
p591
aVScott M. Fischer
p592
aVRoger Raupp
p593
aVJohn Stanko
p594
aVTrevor Claxton
p595
asS'powers'
p596
(lp597
g507
ag512
ag507
ag507
ag509
ag509
ag510
ag507
ag507
ag507
ag507
ag507
ag507
ag507
ag507
ag507
ag507
ag507
ag507
ag507
ag510
ag509
ag507
ag507
ag511
ag507
ag512
ag508
ag510
ag509
ag509
ag510
ag507
ag511
ag507
ag511
ag507
ag507
ag509
ag507
aV6
p598
ag507
ag507
ag507
ag507
ag513
ag513
ag509
ag507
ag507
ag507
ag507
ag507
ag509
ag511
ag507
ag510
ag507
ag507
ag507
ag507
ag512
ag507
ag507
ag512
ag507
ag510
ag508
ag507
ag507
ag507
ag507
ag508
ag507
ag507
ag511
ag507
ag507
ag507
ag509
ag507
ag507
asS'types'
p599
(lp600
VSorcery
p601
aVCreature - Vampire Warrior
p602
aVLand
p603
aVEnchantment - Aura
p604
aVCreature - Zubera Spirit
p605
aVCreature - Kithkin Soldier
p606
aVCreature - Kithkin Soldier
p607
aVEnchantment - Aura
p608
aVInstant
p609
aVSorcery
p610
aVSorcery
p611
aVArtifact
p612
aVEnchantment
p613
aVEnchantment - Aura
p614
aVSorcery
p615
aVSorcery
p616
aVInstant
p617
aVSorcery
p618
aVEnchantment - Aura
p619
aVInstant
p620
aVCreature - Viashino Berserker
p621
aVCreature - Centaur Shaman
p622
aVEnchantment
p623
aVSorcery
p624
aVCreature - Zombie
p625
aVSorcery
p626
aVCreature - Vampire Warrior
p627
aVCreature - Orgg
p628
aVCreature - Spirit
p629
aVLegendary Creature- Human Samurai
p630
aVLegendary Creature- Human Monk
p631
aVCreature - Human Monk
p632
aVSorcery
p633
aVCreature - Beeble
p634
aVSorcery
p635
aVCreature - Kithkin Wizard
p636
aVSorcery
p637
aVEnchantment
p638
aVCreature - Human Shaman
p639
aVInstant
p640
aVCreature - Aurochs
p641
aVEnchantment - Aura
p642
aVInstant
p643
aVInstant
p644
aVEnchantment - Aura
p645
aVCreature - Kithkin Soldier
p646
aVCreature - Beast
p647
aVCreature - Hippo
p648
aVEnchantment - Aura
p649
aVInstant
p650
aVInstant
p651
aVSorcery
p652
aVSorcery
p653
aVCreature - Hippo
p654
aVCreature - Beast
p655
aVEnchantment
p656
aVCreature - Hippo
p657
aVArtifact Creature - Elk
p658
aVArtifact
p659
aVSorcery
p660
aVInstant
p661
aVCreature - Vampire Warrior
p662
aVSorcery
p663
aVInstant
p664
aVCreature - Demon
p665
aVSorcery
p666
aVCreature - Efreet
p667
aVCreature - Human Knight
p668
aVSorcery
p669
aVEnchantment
p670
aVArtifact - Equipment
p671
aVEnchantment - Aura
p672
aVCreature - Elephant
p673
aVArtifact
p674
aVEnchantment
p675
aVCreature - Kithkin Wizard
p676
aVSorcery
p677
aVSorcery
p678
aVSorcery
p679
aVCreature - Hippo
p680
aVEnchantment - Aura
p681
aVInstant
p682
asS'numbers'
p683
(lp684
V74
p685
aV75
p686
aV224
p687
aV41
p688
aV95
p689
ag508
ag509
aV101
p690
aV76
p691
aV128
p692
aV129
p693
aV205
p694
aV130
p695
aV63
p696
aV151
p697
aV152
p698
aV59
p699
aV89
p700
aV74
p701
aV121
p702
aV104
p703
aV105
p704
aV8
p705
aV130
p706
aV89
p707
aV57
p708
aV18
p709
aV192
p710
aV203
p711
ag510
aV202
p712
aV122
p713
aV54
p714
aV29
p715
ag510
aV22
p716
aV118
p717
aV180
p718
aV216
p719
aV115
p720
aV107
p721
aV45
p722
aV34
p723
aV119
p724
aV170
p725
aV11
p726
aV161
p727
aV233
p728
aV133
p729
ag509
aV38
p730
aV83
p731
aV86
p732
aV126
p733
aV84
p734
aV178
p735
aV239
p736
aV213
p737
ag510
aV126
p738
aV73
p739
aV53
p740
ag518
aV104
p741
aV168
p742
aV135
p743
aV136
p744
aV137
p745
aV92
p746
aV133
p747
aV217
p748
aV109
p749
aV50
p750
aV13
p751
aV14
p752
aV7
p753
aV103
p754
aV104
p755
aV57
p756
aV110
p757
ag508
aV84
p758
as.