(dp0
S'rares'
p1
(lp2
VUncommon
p3
aVRare
p4
aVUncommon
p5
aVRare
p6
aVUncommon
p7
aVRare
p8
aVUncommon
p9
aVUncommon
p10
aVCommon
p11
aVRare
p12
aVRare
p13
aVCommon
p14
aVRare
p15
aVCommon
p16
aVUncommon
p17
aVCommon
p18
aVRare
p19
aVCommon
p20
aVRare
p21
aVCommon
p22
aVCommon
p23
aVCommon
p24
aVRare
p25
aVCommon
p26
aVCommon
p27
aVUncommon
p28
aVRare
p29
aVCommon
p30
aVCommon
p31
aVRare
p32
aVUncommon
p33
aVUncommon
p34
aVUncommon
p35
aVRare
p36
aVRare
p37
aVRare
p38
aVUncommon
p39
aVCommon
p40
aVUncommon
p41
aVRare
p42
aVCommon
p43
aVRare
p44
aVCommon
p45
aVRare
p46
aVUncommon
p47
aVUncommon
p48
aVRare
p49
aVUncommon
p50
aVCommon
p51
aVUncommon
p52
aVRare
p53
aVCommon
p54
aVCommon
p55
aVUncommon
p56
aVRare
p57
aVCommon
p58
aVCommon
p59
aVRare
p60
aVUncommon
p61
aVCommon
p62
aVCommon
p63
aVUncommon
p64
aVCommon
p65
aVUncommon
p66
aVCommon
p67
aVRare
p68
aVCommon
p69
aVCommon
p70
aVCommon
p71
aVUncommon
p72
aVCommon
p73
aVRare
p74
aVCommon
p75
aVCommon
p76
aVCommon
p77
aVRare
p78
aVUncommon
p79
aVUncommon
p80
aVCommon
p81
aVUncommon
p82
aVRare
p83
aVCommon
p84
aVRare
p85
aVUncommon
p86
aVRare
p87
aVUncommon
p88
aVCommon
p89
aVUncommon
p90
aVUncommon
p91
aVUncommon
p92
aVCommon
p93
aVCommon
p94
aVCommon
p95
aVRare
p96
aVUncommon
p97
aVCommon
p98
aVCommon
p99
aVRare
p100
aVMythic Rare
p101
aVCommon
p102
aVCommon
p103
aVCommon
p104
aVRare
p105
aVUncommon
p106
aVRare
p107
aVUncommon
p108
aVCommon
p109
aVUncommon
p110
aVRare
p111
aVRare
p112
aVCommon
p113
aVUncommon
p114
aVUncommon
p115
aVUncommon
p116
aVCommon
p117
aVRare
p118
aVCommon
p119
aVCommon
p120
aVCommon
p121
aVRare
p122
aVCommon
p123
aVCommon
p124
aVUncommon
p125
aVRare
p126
aVCommon
p127
aVRare
p128
aVCommon
p129
aVCommon
p130
aVCommon
p131
aVCommon
p132
aVCommon
p133
aVSpecial
p134
aVCommon
p135
aVRare
p136
aVCommon
p137
aVUncommon
p138
aVRare
p139
aVCommon
p140
asS'editns'
p141
(lp142
VMagic: The Gathering-Commander
p143
aVLimited Edition Beta
p144
aVLimited Edition Beta
p145
aVSaviors of Kamigawa
p146
aVMorningtide
p147
aVMagic 2013
p148
aVMagic 2013
p149
aVMagic 2013
p150
aVFourth Edition
p151
aVFourth Edition
p152
aVFourth Edition
p153
aVAntiquities
p154
aVAntiquities
p155
aVDuel Decks: Knights vs. Dragons
p156
aVScars of Mirrodin
p157
aVBorn of the Gods
p158
aVMagic 2010
p159
aVMagic 2014 Core Set
p160
aVMagic 2014 Core Set
p161
aVTempest
p162
aVTempest
p163
aVTempest
p164
aVTenth Edition
p165
aVTenth Edition
p166
aVTenth Edition
p167
aVMercadian Masques
p168
aVMercadian Masques
p169
aVMercadian Masques
p170
aVVintage Masters
p171
aVVintage Masters
p172
aVVintage Masters
p173
aVVintage Masters
p174
aVModern Masters
p175
aVThe Dark
p176
aVMasters Edition III
p177
aVRevised Edition
p178
aVRevised Edition
p179
aVMasters Edition II
p180
aVMasters Edition II
p181
aVNinth Edition
p182
aVEventide
p183
aVConflux
p184
aVAvacyn Restored
p185
aVOnslaught
p186
aVChampions of Kamigawa
p187
aVChampions of Kamigawa
p188
aVBetrayers of Kamigawa
p189
aVRavnica: City of Guilds
p190
aVRavnica: City of Guilds
p191
aVRavnica: City of Guilds
p192
aVRavnica: City of Guilds
p193
aVTime Spiral
p194
aVTime Spiral
p195
aVTime Spiral
p196
aVGatecrash
p197
aVGatecrash
p198
aVGatecrash
p199
aVUnlimited Edition
p200
aVUnlimited Edition
p201
aVIce Age
p202
aVIce Age
p203
aVTorment
p204
aVZendikar
p205
aVMirrodin
p206
aVMirrodin
p207
aVMirrodin
p208
aVMirrodin
p209
aVMirrodin
p210
aVDuel Decks: Elspeth vs. Tezzeret
p211
aVDuel Decks: Elspeth vs. Tezzeret
p212
aVShards of Alara
p213
aVShards of Alara
p214
aVSeventh Edition
p215
aVMagic 2015 Core Set
p216
aVUrza's Legacy
p217
aVFifth Dawn
p218
aVFifth Dawn
p219
aVScourge
p220
aVScourge
p221
aVFuture Sight
p222
aVFuture Sight
p223
aVPlanechase
p224
aVLegions
p225
aVLegions
p226
aVDuel Decks: Venser vs. Koth
p227
aVUrza's Saga
p228
aVUrza's Saga
p229
aVUrza's Saga
p230
aVMasters Edition
p231
aVWeatherlight
p232
aVNemesis
p233
aVWorldwake
p234
aVJourney into Nyx
p235
aVAlara Reborn
p236
aVFifth Edition
p237
aVFifth Edition
p238
aVFifth Edition
p239
aVFifth Edition
p240
aVKhans of Tarkir
p241
aVDuel Decks: Jace vs. Vraska
p242
aVMirage
p243
aVInnistrad
p244
aVInnistrad
p245
aVInnistrad
p246
aVLimited Edition Alpha
p247
aVLimited Edition Alpha
p248
aVVisions
p249
aVBeatdown Box Set
p250
aVBeatdown Box Set
p251
aVBeatdown Box Set
p252
aVBeatdown Box Set
p253
aVMasters Edition IV
p254
aVMasters Edition IV
p255
aVMasters Edition IV
p256
aVMasters Edition IV
p257
aVMasters Edition IV
p258
aVMasters Edition IV
p259
aVDragon's Maze
p260
aVStronghold
p261
aVLegends
p262
aVLegends
p263
aVLorwyn
p264
aVLorwyn
p265
aVLorwyn
p266
aVPremium Deck Series: Slivers
p267
aVMagic 2011
p268
aVMagic 2011
p269
aVMagic 2011
p270
aVHomelands
p271
aVHomelands
p272
aVHomelands
p273
aVTime Spiral "Timeshifted"
p274
aVPortal
p275
aVPortal
p276
aVPortal
p277
aVPortal
p278
aVPlaneshift
p279
aVDark Ascension
p280
asS'ids'
p281
(lp282
V247375
p283
aV302
p284
aV394
p285
aV89399
p286
aV152604
p287
aV266274
p288
aV276207
p289
aV288877
p290
aV2028
p291
aV2029
p292
aV2030
p293
aV1000
p294
aV1001
p295
aV243489
p296
aV209278
p297
aV378436
p298
aV191321
p299
aV370653
p300
aV370622
p301
aV4640
p302
aV4870
p303
aV4871
p304
aV129501
p305
aV129804
p306
aV132069
p307
aV19847
p308
aV19873
p309
aV19563
p310
aV382890
p311
aV382891
p312
aV382892
p313
aV382893
p314
aV370553
p315
aV1804
p316
aV201127
p317
aV1101
p318
aV1193
p319
aV184669
p320
aV184590
p321
aV83525
p322
aV152092
p323
aV159612
p324
aV240006
p325
aV39533
p326
aV79115
p327
aV80500
p328
aV74598
p329
aV83567
p330
aV83822
p331
aV89037
p332
aV89089
p333
aV109673
p334
aV113507
p335
aV113530
p336
aV366468
p337
aV366363
p338
aV366403
p339
aV604
p340
aV696
p341
aV2499
p342
aV2441
p343
aV29883
p344
aV177546
p345
aV46123
p346
aV46124
p347
aV46704
p348
aV48119
p349
aV49050
p350
aV222723
p351
aV222749
p352
aV174814
p353
aV175142
p354
aV15778
p355
aV383212
p356
aV11588
p357
aV50198
p358
aV51129
p359
aV43541
p360
aV44264
p361
aV130309
p362
aV136156
p363
aV198077
p364
aV42277
p365
aV45839
p366
aV270842
p367
aV5692
p368
aV5718
p369
aV8890
p370
aV159256
p371
aV4482
p372
aV21280
p373
aV193975
p374
aV380385
p375
aV189653
p376
aV3769
p377
aV3834
p378
aV3767
p379
aV3768
p380
aV386506
p381
aV380259
p382
aV3329
p383
aV235601
p384
aV241980
p385
aV221212
p386
aV7
p387
aV99
p388
aV3636
p389
aV26625
p390
aV26606
p391
aV26617
p392
aV27247
p393
aV202513
p394
aV202456
p395
aV202431
p396
aV202618
p397
aV233300
p398
aV221988
p399
aV369029
p400
aV5122
p401
aV1603
p402
aV1604
p403
aV139492
p404
aV139664
p405
aV146173
p406
aV207900
p407
aV205220
p408
aV208287
p409
aV208224
p410
aV2901
p411
aV2903
p412
aV2902
p413
aV109690
p414
aV4251
p415
aV4252
p416
aV4253
p417
aV4254
p418
aV25899
p419
aV262844
p420
asS'texts'
p421
(lp422
VRadiance- Cleansing Beam deals 2 damage to target creature and each other creature that shares a color with it.
p423
aV{3}, {T}: Prevent the next 2 damage that would be dealt to you this turn.
p424
aVRemove Contract from Below from your deck before playing if you're not playing for ante.<br>Discard your hand, add the top card of your library to the ante, then draw seven cards.
p425
aVFlying<br>Whenever you cast a Spirit or Arcane spell, you may put the top X cards of target player's library into his or her graveyard, where X is that spell's converted mana cost.
p426
aVEquipped creature gets +2/+0 and has shroud. <i>(It can't be the target of spells or abilities.)</i><br>Whenever a Rogue creature enters the battlefield, you may attach Cloak and Dagger to it.<br>Equip {3}
p427
aVDraw two cards.
p428
aVFlying<br>{R}: Furnace Whelp gets +1/+0 until end of turn.
p429
aVEquipped creature has vigilance. <i>(Attacking doesn't cause it to tap.)</i><br>At the beginning of your upkeep, put a +1/+1 counter on equipped creature if it's white.<br>Equip {1} <i>({1}: Attach to target creature you control. Equip only as a sorcery.)</i>
p430
aV{2}: Regenerate Clay Statue.
p431
aVFlying<br>Clockwork Avian enters the battlefield with four +1/+0 counters on it.<br>At end of combat, if Clockwork Avian attacked or blocked this combat, remove a +1/+0 counter from it.<br>{X}, {T}: Put up to X +1/+0 counters on Clockwork Avian. This ability can't cause the total number of +1/+0 counters on Clockwork Avian to be greater than four. Activate this ability only during your upkeep.
p432
aVClockwork Beast enters the battlefield with seven +1/+0 counters on it.<br>At end of combat, if Clockwork Beast attacked or blocked this combat, remove a +1/+0 counter from it.<br>{X}, {T}: Put up to X +1/+0 counters on Clockwork Beast. This ability can't cause the total number of +1/+0 counters on Clockwork Beast to be greater than seven. Activate this ability only during your upkeep.
p433
aV{2}: Regenerate Clay Statue.
p434
aVFlying<br>Clockwork Avian enters the battlefield with four +1/+0 counters on it.<br>At end of combat, if Clockwork Avian attacked or blocked this combat, remove a +1/+0 counter from it.<br>{X}, {T}: Put up to X +1/+0 counters on Clockwork Avian. This ability can't cause the total number of +1/+0 counters on Clockwork Avian to be greater than four. Activate this ability only during your upkeep.
p435
aVEnchant creature<br>Enchanted creature gets +1/+0 for each Mountain you control and has first strike.
p436
aVWhen Contagion Clasp enters the battlefield, put a -1/-1 counter on target creature.<br>{4}, {T}: Proliferate. <i>(You choose any number of permanents and/or players with counters on them, then give each another counter of a kind already there.)</i>
p437
aVEnchant creature<br>Enchanted creature has "{1}{B}, {T}: Target player loses 2 life."
p438
aVSpend only black mana on X.<br>Consume Spirit deals X damage to target creature or player and you gain X life.
p439
aVIslandwalk <i>(This creature can't be blocked as long as defending player controls an Island.)</i><br>Whenever Colossal Whale attacks, you may exile target creature defending player controls until Colossal Whale leaves the battlefield. <i>(That creature returns under its owner's control.)</i>
p440
aVTarget player gains 2 life for each creature on the battlefield.
p441
aVYou may choose not to untap Coffin Queen during your untap step.<br>{2}{B}, {T}: Put target creature card from a graveyard onto the battlefield under your control. When Coffin Queen becomes untapped or you lose control of Coffin Queen, exile that creature.
p442
aVWhenever a nontoken creature is put into your graveyard from the battlefield, put a 1/1 white Spirit creature token with flying onto the battlefield.
p443
aVTarget opponent reveals his or her hand. You choose a card from it. That player discards that card.
p444
aVYou may have Clone enter the battlefield as a copy of any creature on the battlefield.
p445
aVUntil end of turn, if target player would draw a card, instead that player skips that draw and you draw a card.
p446
aV{T}: Target creature gets +1/+1 until end of turn.
p447
aV{1}, Sacrifice a land: Target creature gets +1/+1 until end of turn.
p448
aV{1}, {T}, Discard a card: Target noncreature artifact becomes an artifact creature with power and toughness each equal to its converted mana cost until end of turn. <i>(It retains its abilities.)</i>
p449
aVDraw a card for each creature you control.
p450
aVFlying<br>Cloud Djinn can block only creatures with flying.
p451
aVFlying<br>When Cloud of Faeries enters the battlefield, untap up to two lands.<br>Cycling {2} <i>({2}, Discard this card: Draw a card.)</i>
p452
aVWill of the council- At the beginning of your upkeep, starting with you, each player votes for carnage or homage. If carnage gets more votes, sacrifice Coercive Portal and destroy all nonland permanents. If homage gets more votes or the vote is tied, draw a card.
p453
aVEnchant creature<br>You control enchanted creature.
p454
aVWhen Cloudgoat Ranger enters the battlefield, put three 1/1 white Kithkin Soldier creature tokens onto the battlefield.<br>Tap three untapped Kithkin you control: Cloudgoat Ranger gets +2/+0 and gains flying until end of turn.
p455
aVFor each land, destroy that land unless any player pays 1 life.
p456
aVAll creatures have haste.
p457
aVAt the beginning of your upkeep, sacrifice Conversion unless you pay {W}{W}.<br>All Mountains are Plains.
p458
aVCounter target spell.
p459
aVClockwork Steed enters the battlefield with four +1/+0 counters on it.<br>Clockwork Steed can't be blocked by artifact creatures.<br>At end of combat, if Clockwork Steed attacked or blocked this combat, remove a +1/+0 counter from it.<br>{X}, {T}: Put up to X +1/+0 counters on Clockwork Steed. This ability can't cause the total number of +1/+0 counters on Clockwork Steed to be greater than four. Activate this ability only during your upkeep.
p460
aV{1}{W}: Prevent the next 1 damage that would be dealt to target creature or player this turn.
p461
aVEnchant creature <i>(Target a creature as you cast this. This card enters the battlefield attached to that creature.)</i><br>Enchanted creature gets +1/+1 and can't be blocked except by creatures with flying.
p462
aVEnchant creature<br>As long as enchanted creature is blue, it gets +1/+1 and has shroud. <i>(It can't be the target of spells or abilities.)</i><br>As long as enchanted creature is red, it gets +1/+1 and has haste.
p463
aVSearch your library for a white card, a blue card, a black card, a red card, and a green card. Reveal those cards and put them into your hand. Then shuffle your library.
p464
aVEnchant creature<br>Enchanted creature has "At the beginning of your upkeep, put a 1/1 white Human creature token onto the battlefield."
p465
aVYou may have Clone enter the battlefield as a copy of any creature on the battlefield.
p466
aV{T}: Add {R} to your mana pool.<br>{R}, {T}: Target legendary creature gains first strike until end of turn.
p467
aVWhen Ashen-Skin Zubera dies, target opponent discards a card for each Zubera that died this turn.
p468
aV{T}: Prevent the next 1 damage that would be dealt to each creature and each player this turn.
p469
aVRadiance- Cleansing Beam deals 2 damage to target creature and each other creature that shares a color with it.
p470
aVDestroy target land. Add {R}{R} to your mana pool.
p471
aVConvoke <i>(Each creature you tap while casting this spell reduces its cost by {1} or by one mana of that creature's color.)</i><br>Exile target attacking or blocking creature.
p472
aVFlying<br>If Szadek, Lord of Secrets would deal combat damage to a player, instead put that many +1/+1 counters on Szadek and that player puts that many cards from the top of his or her library into his or her graveyard.
p473
aVBuyback {3} <i>(You may pay an additional {3} as you cast this spell. If you do, put this card into your hand as it resolves.)</i><br>Choose a counter on target permanent or suspended card. Remove that counter from that permanent or card or put another of those counters on it.
p474
aVFlying<br>When Cloudchaser Kestrel enters the battlefield, destroy target enchantment.<br>{W}: Target permanent becomes white until end of turn.
p475
aVClockwork Hydra enters the battlefield with four +1/+1 counters on it.<br>Whenever Clockwork Hydra attacks or blocks, remove a +1/+1 counter from it. If you do, Clockwork Hydra deals 1 damage to target creature or player.<br>{T}: Put a +1/+1 counter on Clockwork Hydra.
p476
aVChoose one or more- Clan Defiance deals X damage to target creature with flying; Clan Defiance deals X damage to target creature without flying; and/or Clan Defiance deals X damage to target player.
p477
aVDefender<br>Evolve <i>(Whenever a creature enters the battlefield under your control, if that creature has greater power or toughness than this creature, put a +1/+1 counter on this creature.)</i>
p478
aVFlying<br>Evolve <i>(Whenever a creature enters the battlefield under your control, if that creature has greater power or toughness than this creature, put a +1/+1 counter on this creature.)</i>
p479
aV{3}, {T}: Prevent the next 2 damage that would be dealt to you this turn.
p480
aVRemove Contract from Below from your deck before playing if you're not playing for ante.<br>Discard your hand, add the top card of your library to the ante, then draw seven cards.
p481
aVLook at target player's hand.<br><br>Draw a card at the beginning of the next turn's upkeep.
p482
aV{4}, {T}: Attach target Aura attached to a creature to another creature.
p483
aVDestroy all enchantments.<br>Threshold- If seven or more cards are in your graveyard, instead destroy all enchantments, then return all cards in your graveyard destroyed this way to the battlefield.
p484
aVMountainwalk
p485
aVTrample<br>Clockwork Vorrac enters the battlefield with four +1/+1 counters on it.<br>Whenever Clockwork Vorrac attacks or blocks, remove a +1/+1 counter from it at end of combat.<br>{T}: Put a +1/+1 counter on Clockwork Vorrac.
p486
aVFlying<br>Clockwork Condor enters the battlefield with three +1/+1 counters on it.<br>Whenever Clockwork Condor attacks or blocks, remove a +1/+1 counter from it at end of combat.
p487
aVFlying<br>Clockwork Dragon enters the battlefield with six +1/+1 counters on it.<br>Whenever Clockwork Dragon attacks or blocks, remove a +1/+1 counter from it at end of combat.<br>{3}: Put a +1/+1 counter on Clockwork Dragon.
p488
aVClockwork Beetle enters the battlefield with two +1/+1 counters on it.<br>Whenever Clockwork Beetle attacks or blocks, remove a +1/+1 counter from it at end of combat.
p489
aVChoose one- Each player shuffles his or her hand and graveyard into his or her library; or each player draws seven cards.<br>Entwine {2} <i>(Choose both if you pay the entwine cost.)</i>
p490
aVFlying<br>Clockwork Condor enters the battlefield with three +1/+1 counters on it.<br>Whenever Clockwork Condor attacks or blocks, remove a +1/+1 counter from it at end of combat.
p491
aVClockwork Hydra enters the battlefield with four +1/+1 counters on it.<br>Whenever Clockwork Hydra attacks or blocks, remove a +1/+1 counter from it. If you do, Clockwork Hydra deals 1 damage to target creature or player.<br>{T}: Put a +1/+1 counter on Clockwork Hydra.
p492
aVFlying<br>Whenever another artifact enters the battlefield under your control, Glaze Fiend gets +2/+2 until end of turn.
p493
aV{2}{R}, {T}, Sacrifice a black creature, a red creature, and a green creature: Search your library for a card named Hellkite Overlord and put it onto the battlefield. Then shuffle your library.
p494
aVDefender <i>(This creature can't attack.)</i><br>{2}{U}{U}: Wall of Wonder gets +4/-4 until end of turn and can attack this turn as though it didn't have defender.
p495
aVTarget player gains 2 life for each creature on the battlefield.
p496
aVFlying<br>When Cloud of Faeries enters the battlefield, untap up to two lands.<br>Cycling {2} <i>({2}, Discard this card: Draw a card.)</i>
p497
aVSunburst <i>(This enters the battlefield with a charge counter on it for each color of mana spent to cast it.)</i><br>At the beginning of your upkeep, you may gain life equal to the number of charge counters on Clearwater Goblet.
p498
aVTap two untapped artifacts you control: Untap target artifact.
p499
aVClaws of Wirewood deals 3 damage to each creature with flying and each player.<br>Cycling {2} <i>({2}, Discard this card: Draw a card.)</i>
p500
aVEnchant creature<br>Enchanted creature gets +3/+3 as long as it's a Zombie. Otherwise, it gets -3/-3.
p501
aV{B}, {T}, Discard a card: Put a 1/1 black Zombie Goblin creature token named Festering Goblin onto the battlefield. It has "When Festering Goblin dies, target creature gets -1/-1 until end of turn."
p502
aVHaste<br>Echo\u2014Sacrifice two lands. <i>(At the beginning of your upkeep, if this came under your control since the beginning of your last upkeep, sacrifice it unless you pay its echo cost.)</i>
p503
aVWhen you planeswalk to Cliffside Market or at the beginning of your upkeep, you may exchange life totals with target player.<br>Whenever you roll , exchange control of two target permanents that share a card type.
p504
aVHaste<br>Sacrifice a Goblin: Clickslither gets +2/+2 and gains trample until end of turn.
p505
aVAs long as you control a Bird, Cloudreach Cavalry gets +2/+2 and has flying.
p506
aVYou may have Clone enter the battlefield as a copy of any creature on the battlefield.
p507
aVDestroy target enchantment.<br>Cycling {2} <i>({2}, Discard this card: Draw a card.)</i>
p508
aVEnchant creature<br>Enchanted creature is unblockable.
p509
aVAt the beginning of your upkeep, you may add {1} or {2} to your mana pool. You can't spend this mana to cast spells.
p510
aVClockwork Beast enters the battlefield with seven +1/+0 counters on it.<br>At end of combat, if Clockwork Beast attacked or blocked this combat, remove a +1/+0 counter from it.<br>{X}, {T}: Put up to X +1/+0 counters on Clockwork Beast. This ability can't cause the total number of +1/+0 counters on Clockwork Beast to be greater than seven. Activate this ability only during your upkeep.
p511
aVFlying<br>Cloud Djinn can block only creatures with flying.
p512
aVFlying<br>Fading 3 <i>(This creature enters the battlefield with three fade counters on it. At the beginning of your upkeep, remove a fade counter from it. If you can't, sacrifice it.)</i>
p513
aVEnchant creature<br>Enchanted creature gets +1/+0 for each Mountain you control and has first strike.
p514
aVFlash <i>(You may cast this spell any time you could cast an instant.)</i><br>Flying
p515
aVWhenever you cast a multicolored instant or sorcery spell, you may pay {1}. If you do, copy that spell. You may choose new targets for the copy.
p516
aVClockwork Steed enters the battlefield with four +1/+0 counters on it.<br>Clockwork Steed can't be blocked by artifact creatures.<br>At end of combat, if Clockwork Steed attacked or blocked this combat, remove a +1/+0 counter from it.<br>{X}, {T}: Put up to X +1/+0 counters on Clockwork Steed. This ability can't cause the total number of +1/+0 counters on Clockwork Steed to be greater than four. Activate this ability only during your upkeep.
p517
aVEnchant creature you control<br>Whenever enchanted creature attacks and isn't blocked, you may have it assign no combat damage this turn. If you do, defending player discards a card at random.
p518
aV{3}, Discard a card at random: Target creature gets +2/+2 until end of turn.
p519
aVCounter target spell.
p520
aVCrackling Doom deals 2 damage to each opponent. Each opponent sacrifices a creature with the greatest power among creatures he or she controls.
p521
aVEnchant creature<br>When Claustrophobia enters the battlefield, tap enchanted creature.<br>Enchanted creature doesn't untap during its controller's untap step.
p522
aVEnchant creature<br>Enchanted creature has phasing and can't be blocked except by Walls. <i>(It phases in or out before its controller untaps during each of his or her untap steps. While it's phased out, it's treated as though it doesn't exist.)</i>
p523
aVEnchant creature<br>When Claustrophobia enters the battlefield, tap enchanted creature.<br>Enchanted creature doesn't untap during its controller's untap step.
p524
aVClifftop Retreat enters the battlefield tapped unless you control a Mountain or a Plains.<br>{T}: Add {R} or {W} to your mana pool.
p525
aVAt the beginning of your upkeep, you may transform Cloistered Youth.
p526
aV{B}{B}: Counter target green spell.
p527
aV{T}: Destroy target land.<br>At the beginning of your upkeep, unless you pay {B}{B}{B}, tap Demonic Hordes and sacrifice a land of an opponent's choice.
p528
aVTarget opponent reveals his or her hand. You choose a card from it. That player discards that card.
p529
aVFlying<br>Cloud Djinn can block only creatures with flying.
p530
aVClockwork Beast enters the battlefield with seven +1/+0 counters on it.<br>At end of combat, if Clockwork Beast attacked or blocked this combat, remove a +1/+0 counter from it.<br>{X}, {T}: Put up to X +1/+0 counters on Clockwork Beast. This ability can't cause the total number of +1/+0 counters on Clockwork Beast to be greater than seven. Activate this ability only during your upkeep.
p531
aVFlying<br>Cloud Elemental can block only creatures with flying.
p532
aVTarget opponent reveals his or her hand. You choose a card from it. That player discards that card.
p533
aVClockwork Swarm enters the battlefield with four +1/+0 counters on it.<br>Clockwork Swarm can't be blocked by Walls.<br>At end of combat, if Clockwork Swarm attacked or blocked this combat, remove a +1/+0 counter from it.<br>{X}, {T}: Put up to X +1/+0 counters on Clockwork Swarm. This ability can't cause the total number of +1/+0 counters on Clockwork Swarm to be greater than four. Activate this ability only during your upkeep.
p534
aVFlying<br>Cloud Dragon can block only creatures with flying.
p535
aVFlying<br>Cloud Spirit can block only creatures with flying.
p536
aVTrample <i>(If this creature would assign enough damage to its blockers to destroy them, you may have it assign the rest of its damage to defending player or planeswalker.)</i><br>Colossus of Sardia doesn't untap during your untap step.<br>{9}: Untap Colossus of Sardia. Activate this ability only during your upkeep.
p537
aVEnchant creature<br>You control enchanted creature.
p538
aVAt the beginning of your upkeep, sacrifice Conversion unless you pay {W}{W}.<br>All Mountains are Plains.
p539
aVExile all creature cards from target player's graveyard. You gain 3 life for each card exiled this way.
p540
aVFlying<br>Cloud Spirit can block only creatures with flying.
p541
aVPrevent all combat damage that would be dealt to Enchanted Being by enchanted creatures.
p542
aVEnchant land<br>Enchanted land has "{T}: Counter target spell if it would destroy a land you control."
p543
aVReach <i>(This can block creatures with flying.)</i>
p544
aVWhen Cloudgoat Ranger enters the battlefield, put three 1/1 white Kithkin Soldier creature tokens onto the battlefield.<br>Tap three untapped Kithkin you control: Cloudgoat Ranger gets +2/+0 and gains flying until end of turn.
p545
aVFear <i>(This creature can't be blocked except by artifact creatures and/or black creatures.)</i><br>When Shriekmaw enters the battlefield, destroy target nonartifact, nonblack creature.<br>Evoke {1}{B} <i>(You may cast this spell for its evoke cost. If you do, it's sacrificed when it enters the battlefield.)</i>
p546
aVAll Slivers have "{2}: Regenerate this permanent."
p547
aVCombust can't be countered by spells or abilities.<br>Combust deals 5 damage to target white or blue creature. The damage can't be prevented.
p548
aVPut target attacking creature on the bottom of its owner's library. Its controller gains life equal to its toughness.
p549
aVFlying<br>Whenever Conundrum Sphinx attacks, each player names a card. Then each player reveals the top card of his or her library. If the card a player revealed is the card he or she named, that player puts it into his or her hand. If it's not, that player puts it on the bottom of his or her library.
p550
aV{3}, {T}: Regenerate target artifact creature.
p551
aVClockwork Swarm enters the battlefield with four +1/+0 counters on it.<br>Clockwork Swarm can't be blocked by Walls.<br>At end of combat, if Clockwork Swarm attacked or blocked this combat, remove a +1/+0 counter from it.<br>{X}, {T}: Put up to X +1/+0 counters on Clockwork Swarm. This ability can't cause the total number of +1/+0 counters on Clockwork Swarm to be greater than four. Activate this ability only during your upkeep.
p552
aVDefender <i>(This creature can't attack.)</i><br>{0}: Dark Maze can attack this turn as though it didn't have defender.  Exile it at the beginning of the next end step.
p553
aVFlash <i>(You may cast this spell any time you could cast an instant.)</i><br>When Mystic Snake enters the battlefield, counter target spell.
p554
aVFlying<br>Cloud Pirates can block only creatures with flying.
p555
aVFlying<br>Cloud Spirit can block only creatures with flying.
p556
aVCast Command of Unsummoning only during the declare attackers step and only if you've been attacked this step.<br>Return one or two target attacking creatures to their owner's hand.
p557
aVLook at the top five cards of target opponent's library. Put one of those cards into that player's graveyard, and the rest on top of his or her library in any order.
p558
aVWhenever another permanent you control becomes the target of a spell or ability an opponent controls, you may return that permanent to its owner's hand.
p559
aVPrevent all combat damage that would be dealt this turn.<br>Fateful hour- If you have 5 or less life, tap all attacking creatures. Those creatures don't untap during their controller's next untap step.
p560
asS'costs'
p561
(lp562
V{4}{R}
p563
aV{6}
p564
aV{3}{U}
p565
aV{3}{U}{U}
p566
aV{2}
p567
aV{3}{U}{U}
p568
aV{3}{R}
p569
aV{5}{G}
p570
aV{4}
p571
aV{5}
p572
aV{6}
p573
aV{4}
p574
aV{5}
p575
aV{1}{R}{R}
p576
aV{5}
p577
aV{1}{B}
p578
aV{3}{R}{R}
p579
aV{3}{W}
p580
aV{1}{B}
p581
aV{1}{B}
p582
aV{1}{W}
p583
aV{3}{W}
p584
aV{3}{U}
p585
aV{2}{U}
p586
aV{U}
p587
aV{2}{R}{R}
p588
aV{2}{G}
p589
aV{U}
p590
aV{3}{G}
p591
aV{1}{R}{R}{R}
p592
aV{5}{U}
p593
aV{1}{U}
p594
aV{3}{W}{W}
p595
aV{W}{W}{W}
p596
aV{2}{W}{W}
p597
aV{6}
p598
aV{3}{U}
p599
aV{1}{B}
p600
aV{4}
p601
aV{3}{U}
p602
aV{U/R}
p603
aV{3}{G}
p604
aV{W}
p605
aV{3}{U}
p606
aS'0'
p607
aV{2}{W}
p608
aV{3}{R}
p609
aV{4}{R}
p610
aV{1}{B}
p611
aV{1}{U}{U}{B}
p612
aV{3}
p613
aV{U}
p614
aV{1}{W}{W}
p615
aV{5}
p616
aV{X}{R}{G}
p617
aV{3}{U}
p618
aV{U}
p619
aV{6}
p620
aV{3}{U}
p621
aV{U}
p622
aV{1}{B}
p623
aV{1}{W}{W}
p624
aV{4}{R}{R}
p625
aV{5}
p626
aV{4}
p627
aV{7}
p628
aV{1}
p629
ag607
aV{4}
p630
aV{5}
p631
aV{4}{U}
p632
aV{G}{W}
p633
aV{3}{W}
p634
aV{5}{U}
p635
aV{1}{U}
p636
aV{5}
p637
aV{4}
p638
aV{3}{G}
p639
aV{3}{B}{B}
p640
aV{1}{U}
p641
aV{3}
p642
ag607
aV{1}{R}{R}{R}
p643
aV{1}{W}
p644
aV{2}{R}{R}
p645
aV{1}{W}
p646
aV{1}{U}
p647
aV{0}
p648
aV{6}
p649
aV{5}{U}
p650
aV{1}{U}
p651
aV{1}{R}{R}
p652
aV{3}
p653
aV{5}{U}{R}
p654
aV{4}
p655
aV{1}{B}
p656
aV{4}
p657
aV{6}
p658
aV{2}{U}{U}
p659
aV{1}{U}{U}
p660
aV{U}
p661
aV{1}{U}{U}
p662
ag607
aV{1}{W}
p663
aV{6}
p664
aV{3}{U}
p665
aV{2}{U}
p666
aV{5}{U}
p667
aV{5}
p668
aV{6}
p669
aV{2}{U}
p670
aV{4}
p671
aV{5}
p672
aV{4}
p673
aV{4}
p674
aV{5}{U}
p675
aV{2}{U}
p676
aV{R}
p677
aV{2}{U}
p678
aV{2}{W}{W}
p679
aV{W}
p680
aV{2}{G}{G}
p681
aV{3}{W}{W}
p682
aV{R}
p683
aV{1}{B}
p684
aV{2}{R}
p685
aV{1}{B}
p686
aV{3}{U}
p687
aV{4}
p688
aV{4}
p689
aV{4}
p690
aV{0}
p691
aV{U}
p692
aV{5}{U}
p693
aV{U}
p694
aV{2}{U}
p695
aV{2}{W}{U}
p696
aV{2}{G}
p697
asS'names'
p698
(lp699
VCleansing Beam
p700
aVClockwork Beast
p701
aVClone
p702
aVCloudhoof Kirin
p703
aVCloak and Dagger
p704
aVClone
p705
aVCleaver Riot
p706
aVClock of Omens
p707
aVClay Statue
p708
aVClockwork Avian
p709
aVClockwork Beast
p710
aVClay Statue
p711
aVClockwork Avian
p712
aVClaws of Valakut
p713
aVClone Shell
p714
aVClaim of Erebos
p715
aVClone
p716
aVClaustrophobia
p717
aVClone
p718
aVClot Sliver
p719
aVClergy en-Vec
p720
aVCloudchaser Eagle
p721
aVClone
p722
aVCloud Elemental
p723
aVCloud Sprite
p724
aVClose Quarters
p725
aVClear the Land
p726
aVCloud Sprite
p727
aVClaws of Wirewood
p728
aVClickslither
p729
aVCloud Djinn
p730
aVCloud of Faeries
p731
aVCloudgoat Ranger
p732
aVCleansing
p733
aVCleanse
p734
aVClockwork Beast
p735
aVClone
p736
aVCloak of Confusion
p737
aVClockwork Steed
p738
aVClone
p739
aVClout of the Dominus
p740
aVCliffrunner Behemoth
p741
aVCloudshift
p742
aVClone
p743
aVCloudcrest Lake
p744
aVCleanfall
p745
aVClash of Realities
p746
aVCleansing Beam
p747
aVClinging Darkness
p748
aVClutch of the Undercity
p749
aVCloudstone Curio
p750
aVClockspinning
p751
aVCloudchaser Kestrel
p752
aVClockwork Hydra
p753
aVClan Defiance
p754
aVClinging Anemones
p755
aVCloudfin Raptor
p756
aVClockwork Beast
p757
aVClone
p758
aVClairvoyance
p759
aVCloak of Confusion
p760
aVCleansing Meditation
p761
aVCliff Threader
p762
aVClockwork Vorrac
p763
aVClockwork Condor
p764
aVClockwork Dragon
p765
aVClockwork Beetle
p766
aVCloudpost
p767
aVClockwork Condor
p768
aVClockwork Hydra
p769
aVCloudheath Drake
p770
aVClarion Ultimatum
p771
aVCloudchaser Eagle
p772
aVClear a Path
p773
aVCloud of Faeries
p774
aVClearwater Goblet
p775
aVClock of Omens
p776
aVClaws of Wirewood
p777
aVClutch of Undeath
p778
aVCloudseeder
p779
aVCloud Key
p780
aVCliffside Market
p781
aVClickslither
p782
aVCloudreach Cavalry
p783
aVClone
p784
aVClear
p785
aVCloak of Mists
p786
aVClaws of Gix
p787
aVClockwork Beast
p788
aVCloud Djinn
p789
aVCloudskate
p790
aVClaws of Valakut
p791
aVCloaked Siren
p792
aVCloven Casting
p793
aVClockwork Steed
p794
aVCloak of Confusion
p795
aVClay Statue
p796
aVClockwork Beast
p797
aVClever Impersonator
p798
aVClaustrophobia
p799
aVCloak of Invisibility
p800
aVClaustrophobia
p801
aVClifftop Retreat
p802
aVCloistered Youth
p803
aVClockwork Beast
p804
aVClone
p805
aVCloud Elemental
p806
aVCloud Djinn
p807
aVClockwork Avian
p808
aVClockwork Beast
p809
aVCloud Elemental
p810
aVClay Statue
p811
aVClockwork Avian
p812
aVClockwork Gnomes
p813
aVClockwork Swarm
p814
aVCloud Dragon
p815
aVCloud Spirit
p816
aVClear a Path
p817
aVCloud Spirit
p818
aVCleanse
p819
aVClergy of the Holy Nimbus
p820
aVCloudcrown Oak
p821
aVCloudgoat Ranger
p822
aVCloudthresher
p823
aVClot Sliver
p824
aVClone
p825
aVCloud Crusader
p826
aVCloud Elemental
p827
aVClockwork Gnomes
p828
aVClockwork Swarm
p829
aVClockwork Steed
p830
aVClaws of Gix
p831
aVCloak of Feathers
p832
aVCloud Dragon
p833
aVCloud Pirates
p834
aVCloud Spirit
p835
aVCloud Cover
p836
aVClinging Mists
p837
asS'toughs'
p838
(lp839
S'N/A'
p840
ag840
aV4
p841
aV2
p842
ag840
aV3
p843
ag840
ag840
ag840
ag840
ag840
ag840
ag840
ag840
ag840
ag840
aV6
p844
ag840
ag842
ag841
aV1
p845
ag845
ag845
ag845
ag845
ag840
ag840
ag842
ag840
ag841
ag843
ag841
ag842
ag840
ag840
ag840
ag845
ag840
ag840
ag387
ag840
ag845
ag840
ag841
ag840
ag840
ag840
ag840
ag840
ag840
ag840
ag840
ag842
ag840
ag840
ag842
ag841
ag840
ag841
ag840
ag840
ag840
aV5
p846
ag840
ag840
ag840
ag840
ag840
ag840
ag840
ag840
ag840
ag842
ag840
ag845
ag840
ag840
ag840
ag840
ag843
ag840
ag840
ag843
ag845
ag843
ag840
ag840
ag840
ag840
ag843
ag842
ag840
ag845
ag840
ag840
ag840
ag840
ag840
aV0
p847
ag840
ag840
ag840
ag840
ag845
ag840
ag841
ag842
ag841
ag840
ag840
ag841
ag840
ag840
ag840
ag840
ag841
ag843
ag840
ag842
ag840
ag844
ag841
ag843
ag845
ag845
ag843
ag845
ag847
ag840
ag840
ag840
ag840
ag840
ag841
ag845
ag845
ag840
ag840
asS'artists'
p848
(lp849
VPat Lee
p850
aVDrew Tucker
p851
aVJulie Baroh
p852
aVRandy Gallegos
p853
aVDaren Bader
p854
aVKev Walker
p855
aVDave Kendall
p856
aVSvetlin Velinov
p857
aVJesper Myrfors
p858
aVRandy Asplund-Faith
p859
aVDrew Tucker
p860
aVJesper Myrfors
p861
aVRandy Asplund-Faith
p862
aVIgor Kieryluk
p863
aVVolkan Baga
p864
aVZack Stella
p865
aVKev Walker
p866
aVRyan Pancoast
p867
aVKev Walker
p868
aVJeff Laubenstein
p869
aVHeather Hudson
p870
aVUna Fricker
p871
aVKev Walker
p872
aVMichael Sutfin
p873
aVMark Zug
p874
aVRon Spencer
p875
aVBradley Williams
p876
aVMark Zug
p877
aVTony Szczudlo
p878
aVKev Walker
p879
aVMike Dringenberg
p880
aVMelissa A. Benson
p881
aS''
p882
aVPete Venters
p883
aVChristopher Rush
p884
aVDrew Tucker
p885
aVJulie Baroh
p886
aVMargaret Organ-Kean
p887
aVTerese Nielsen
p888
aVKev Walker
p889
aVJaime Jones
p890
aVWayne Reynolds
p891
aVJohannes Voss
p892
aVCarl Critchlow
p893
aVJohn Avon
p894
aVDaren Bader
p895
aVJim Nelson
p896
aVPat Lee
p897
aVGlen Angus
p898
aVPete Venters
p899
aVHeather Hudson
p900
aVZoltan Boros & Gabor Szikszai
p901
aVDaren Bader
p902
aVDaren Bader
p903
aVDaarken
p904
aVMike Bierek
p905
aVPeter Mohrbacher
p906
aVDrew Tucker
p907
aVJulie Baroh
p908
aVKen Meyer, Jr.
p909
aVMargaret Organ-Kean
p910
aVRon Spears
p911
aVPaul Bonner
p912
aVArnie Swekel
p913
aVArnie Swekel
p914
aVArnie Swekel
p915
aVArnie Swekel
p916
aVMartina Pilcerova
p917
aVArnie Swekel
p918
aVDaren Bader
p919
aVIzzy
p920
aVMichael Komarck
p921
aVAaron Boyd
p922
aVKarl Kopinski
p923
aVMelissa A. Benson
p924
aVDany Orizio
p925
aVAlex Horley-Orlandelli
p926
aVTony Szczudlo
p927
aVGreg Hildebrandt
p928
aVTsutomu Kawade
p929
aVTrevor Hairsine
p930
aVMatt Stewart
p931
aVKev Walker
p932
aVKev Walker
p933
ag882
aVAndrew Robinson
p934
aVJohn Matson
p935
aVHenry G. Higgenbotham
p936
aVDrew Tucker
p937
aVMike Dringenberg
p938
aVCarl Critchlow
p939
aVIgor Kieryluk
p940
aVMark Zug
p941
aVVance Kovacs
p942
aVTerese Nielsen
p943
aVMargaret Organ-Kean
p944
aVAdam Rex
p945
aVDrew Tucker
p946
aVSlawomir Maniak
p947
aVRyan Pancoast
p948
aVJohn Coulthart
p949
aVRyan Pancoast
p950
aVJohn Avon
p951
aVIgor Kieryluk
p952
aVDrew Tucker
p953
aVJulie Baroh
p954
aVAdam Rex
p955
aVMike Dringenberg
p956
aVRandy Asplund
p957
aVCarl Critchlow
p958
aVAdam Rex
p959
aVJesper Myrfors
p960
aVRandy Asplund
p961
aVDouglas Shuler
p962
aVAmy Weber
p963
aVJohn Avon
p964
aVDiTerlizzi
p965
aVKarl Kopinski
p966
aVRandy Gallegos
p967
aVPhil Foglio
p968
aVDaniel Gelon
p969
aVRebecca Guay
p970
aVAdam Rex
p971
aVChristopher Moeller
p972
aVJeff Laubenstein
p973
aVKev Walker
p974
aVAleksi Briclot
p975
aVMichael Sutfin
p976
aVDouglas Shuler
p977
aVAmy Weber
p978
aVAmy Weber
p979
aVHenry G. Higgenbotham
p980
aVRebecca Guay
p981
aVJohn Avon
p982
aVPhil Foglio
p983
aVDiTerlizzi
p984
aVMarc Fishman
p985
aVAnthony Francisco
p986
asS'powers'
p987
(lp988
g840
ag840
ag847
ag845
ag840
ag847
ag840
ag840
ag840
ag840
ag840
ag840
ag840
ag840
ag840
ag840
ag847
ag840
ag847
ag841
ag845
ag845
ag842
ag842
ag842
ag840
ag840
ag842
ag840
ag841
ag843
ag846
ag842
ag840
ag840
ag840
ag845
ag840
ag840
ag842
ag840
ag845
ag840
ag843
ag840
ag840
ag840
ag840
ag840
ag840
ag840
ag840
ag842
ag840
ag840
ag842
ag845
ag840
ag847
ag840
ag840
ag840
ag842
ag840
ag840
ag840
ag840
ag840
ag840
ag840
ag840
ag840
ag842
ag840
ag845
ag840
ag840
ag840
ag840
ag843
ag840
ag840
ag843
ag845
ag847
ag840
ag840
ag840
ag840
ag843
ag842
ag840
aV10
p989
ag840
ag840
ag840
ag840
ag840
ag847
ag840
ag840
ag840
ag840
ag847
ag840
ag847
ag845
ag846
ag840
ag840
ag847
ag840
ag840
ag840
ag840
ag841
ag843
ag840
ag842
ag840
ag847
ag843
ag843
ag387
ag845
ag847
ag842
ag842
ag840
ag840
ag840
ag840
ag840
ag846
ag845
ag843
ag840
ag840
asS'types'
p990
(lp991
VInstant
p992
aVArtifact Creature - Beast
p993
aVCreature - Shapeshifter
p994
aVLegendary Creature - Kirin Spirit
p995
aVTribal Artifact - Rogue Equipment
p996
aVCreature - Shapeshifter
p997
aVSorcery
p998
aVArtifact
p999
aVArtifact Creature - Golem
p1000
aVArtifact Creature - Bird
p1001
aVArtifact Creature - Beast
p1002
aVArtifact Creature - Golem
p1003
aVArtifact Creature - Bird
p1004
aVEnchantment - Aura
p1005
aVArtifact Creature - Shapeshifter
p1006
aVEnchantment - Aura
p1007
aVCreature - Shapeshifter
p1008
aVEnchantment - Aura
p1009
aVCreature - Shapeshifter
p1010
aVCreature - Sliver
p1011
aVCreature - Human Cleric
p1012
aVCreature - Bird
p1013
aVCreature - Shapeshifter
p1014
aVCreature - Elemental
p1015
aVCreature - Faerie
p1016
aVEnchantment
p1017
aVSorcery
p1018
aVCreature - Faerie
p1019
aVSorcery
p1020
aVCreature - Insect
p1021
aVCreature - Djinn
p1022
aVCreature - Faerie
p1023
aVCreature - Giant Warrior
p1024
aVSorcery
p1025
aVSorcery
p1026
aVArtifact Creature - Beast
p1027
aVCreature - Shapeshifter
p1028
aVEnchantment - Aura
p1029
aVArtifact Creature - Horse
p1030
aVCreature - Shapeshifter
p1031
aVEnchantment - Aura
p1032
aVCreature - Rhino Beast
p1033
aVInstant
p1034
aVCreature - Shapeshifter
p1035
aVLand
p1036
aVSorcery - Arcane
p1037
aVEnchantment
p1038
aVInstant
p1039
aVEnchantment - Aura
p1040
aVInstant
p1041
aVArtifact
p1042
aVInstant
p1043
aVCreature - Bird
p1044
aVArtifact Creature - Hydra
p1045
aVSorcery
p1046
aVCreature - Jellyfish
p1047
aVCreature - Bird Mutant
p1048
aVArtifact Creature - Beast
p1049
aVCreature - Shapeshifter
p1050
aVInstant
p1051
aVEnchantment - Aura
p1052
aVSorcery
p1053
aVCreature - Kor Scout
p1054
aVArtifact Creature - Boar Beast
p1055
aVArtifact Creature - Bird
p1056
aVArtifact Creature - Dragon
p1057
aVArtifact Creature - Insect
p1058
aVLand - Locus
p1059
aVArtifact Creature - Bird
p1060
aVArtifact Creature - Hydra
p1061
aVArtifact Creature - Drake
p1062
aVSorcery
p1063
aVCreature - Bird
p1064
aVSorcery
p1065
aVCreature - Faerie
p1066
aVArtifact
p1067
aVArtifact
p1068
aVSorcery
p1069
aVEnchantment - Aura
p1070
aVCreature - Faerie Spellshaper
p1071
aVArtifact
p1072
aVPlane - Mercadia
p1073
aVCreature - Insect
p1074
aVCreature - Human Soldier
p1075
aVCreature - Shapeshifter
p1076
aVInstant
p1077
aVEnchantment - Aura
p1078
aVArtifact
p1079
aVArtifact Creature - Beast
p1080
aVCreature - Djinn
p1081
aVCreature - Illusion
p1082
aVEnchantment - Aura
p1083
aVCreature - Siren
p1084
aVEnchantment
p1085
aVArtifact Creature - Horse
p1086
aVEnchantment - Aura
p1087
aVArtifact Creature - Golem
p1088
aVArtifact Creature - Beast
p1089
aVCreature - Shapeshifter
p1090
aVEnchantment - Aura
p1091
aVEnchantment - Aura
p1092
aVEnchantment - Aura
p1093
aVLand
p1094
aVCreature - Human
p1095
aVArtifact Creature - Beast
p1096
aVCreature - Shapeshifter
p1097
aVCreature - Elemental
p1098
aVCreature - Djinn
p1099
aVArtifact Creature - Bird
p1100
aVArtifact Creature - Beast
p1101
aVCreature - Elemental
p1102
aVArtifact Creature - Golem
p1103
aVArtifact Creature - Bird
p1104
aVArtifact Creature - Gnome
p1105
aVArtifact Creature - Insect
p1106
aVCreature - Illusion Dragon
p1107
aVCreature - Spirit
p1108
aVSorcery
p1109
aVCreature - Spirit
p1110
aVSorcery
p1111
aVCreature - Human Cleric
p1112
aVCreature - Treefolk Warrior
p1113
aVCreature - Giant Warrior
p1114
aVCreature - Elemental
p1115
aVCreature - Sliver
p1116
aVCreature - Shapeshifter
p1117
aVCreature - Human Knight
p1118
aVCreature - Elemental
p1119
aVArtifact Creature - Gnome
p1120
aVArtifact Creature - Insect
p1121
aVArtifact Creature - Horse
p1122
aVArtifact
p1123
aVSorcery
p1124
aVCreature - Illusion Dragon
p1125
aVCreature - Human Pirate
p1126
aVCreature - Spirit
p1127
aVEnchantment
p1128
aVInstant
p1129
asS'numbers'
p1130
(lp1131
V116
p1132
aV51
p1133
aV52
p1134
aV31
p1135
aV141
p1136
aV45
p1137
aV125
p1138
aV202
p1139
aV10
p1140
aV11
p1141
aV12
p1142
aV46
p1143
aV47
p1144
aV72
p1145
aV143
p1146
aV64
p1147
aV45
p1148
aV46
p1149
aV47
p1150
aV39
p1151
aV179
p1152
aV243
p1153
aV73
p1154
aV74
p1155
aV75
p1156
aV184
p1157
aV235
p1158
aV67
p1159
aV201
p1160
aV156
p1161
aV61
p1162
aV62
p1163
ag882
aV55
p1164
ag846
aV83
p1165
aV84
p1166
aV82
p1167
aV205
p1168
aV67
p1169
aV99
p1170
aV79
p1171
aV12
p1172
aV75
p1173
aV274
p1174
ag844
aV97
p1175
aV118
p1176
aV80
p1177
aV197
p1178
aV257
p1179
aV53
p1180
aV10
p1181
aV253
p1182
aV151
p1183
aV31
p1184
aV32
p1185
aV56
p1186
aV57
p1187
aV74
p1188
aV262
p1189
ag843
ag387
aV156
p1190
aV154
p1191
aV155
p1192
aV153
p1193
aV280
p1194
aV50
p1195
aV55
p1196
aV35
p1197
aV163
p1198
aV11
p1199
aV136
p1200
aV29
p1201
aV109
p1202
aV110
p1203
aV114
p1204
aV61
p1205
aV33
p1206
aV160
p1207
ag846
aV90
p1208
ag387
ag882
ag387
aV65
p1209
aV290
p1210
aV153
p1211
aV129
p1212
aV29
p1213
aV75
p1214
aV32
p1215
aV86
p1216
ag844
aV28
p1217
aV234
p1218
aV235
p1219
aV34
p1220
aV27
p1221
aV61
p1222
aV48
p1223
aV238
p1224
aV8
p1225
aV119
p1226
aV120
p1227
aV118
p1228
ag844
aV31
p1229
aV32
p1230
aV33
p1231
aV189
p1232
aV190
p1233
aV191
p1234
aV192
p1235
aV41
p1236
aV42
p1237
aV32
p1238
aV110
p1239
aV107
p1240
aV108
p1241
aV201
p1242
aV10
p1243
aV202
p1244
ag846
aV49
p1245
aV10
p1246
aV50
p1247
ag842
ag843
aV99
p1248
aV107
p1249
aV25
p1250
aV26
p1251
aV27
p1252
aV28
p1253
aV98
p1254
aV109
p1255
as.