(dp0
S'rares'
p1
(lp2
VSpecial
p3
aVCommon
p4
aVUncommon
p5
aVUncommon
p6
aVCommon
p7
aVCommon
p8
aVCommon
p9
aVUncommon
p10
aVUncommon
p11
aVUncommon
p12
aVUncommon
p13
aVCommon
p14
aVUncommon
p15
aVRare
p16
aVUncommon
p17
aVRare
p18
aVUncommon
p19
aVUncommon
p20
aVRare
p21
aVUncommon
p22
aVCommon
p23
aVCommon
p24
aVUncommon
p25
aVCommon
p26
aVUncommon
p27
aVUncommon
p28
aVCommon
p29
aVUncommon
p30
aVUncommon
p31
aVUncommon
p32
aVUncommon
p33
aVUncommon
p34
aVRare
p35
aVRare
p36
aVRare
p37
aVCommon
p38
aVCommon
p39
aVCommon
p40
aVUncommon
p41
aVUncommon
p42
aVRare
p43
aVRare
p44
aVRare
p45
aVRare
p46
aVUncommon
p47
aVRare
p48
aVCommon
p49
aVCommon
p50
aVUncommon
p51
aVCommon
p52
aVRare
p53
aVCommon
p54
aVCommon
p55
aVUncommon
p56
aVRare
p57
aVUncommon
p58
aVRare
p59
aVCommon
p60
aVUncommon
p61
aVUncommon
p62
aVCommon
p63
aVCommon
p64
aVUncommon
p65
aVRare
p66
aVUncommon
p67
aVRare
p68
aVCommon
p69
aVRare
p70
aVCommon
p71
aVUncommon
p72
aVCommon
p73
aVUncommon
p74
aVCommon
p75
aVUncommon
p76
aVCommon
p77
aVUncommon
p78
aVRare
p79
aVRare
p80
aVUncommon
p81
aVRare
p82
aVUncommon
p83
asS'editns'
p84
(lp85
VAnthologies
p86
aVMagic: The Gathering-Commander
p87
aVMagic 2012
p88
aVLimited Edition Beta
p89
aVSaviors of Kamigawa
p90
aVSaviors of Kamigawa
p91
aVBattle Royale Box Set
p92
aVFourth Edition
p93
aVFourth Edition
p94
aVAntiquities
p95
aVScars of Mirrodin
p96
aVBorn of the Gods
p97
aVMagic 2010
p98
aVTempest
p99
aVMercadian Masques
p100
aVVintage Masters
p101
aVThe Dark
p102
aVRevised Edition
p103
aVGuildpact
p104
aVConflux
p105
aVAvacyn Restored
p106
aVPlanechase 2012 Edition
p107
aVOnslaught
p108
aVChampions of Kamigawa
p109
aVChampions of Kamigawa
p110
aVBetrayers of Kamigawa
p111
aVCommander 2013 Edition
p112
aVCommander 2013 Edition
p113
aVCommander 2013 Edition
p114
aVCommander 2013 Edition
p115
aVCommander 2013 Edition
p116
aVCommander 2013 Edition
p117
aVOdyssey
p118
aVOdyssey
p119
aVTime Spiral
p120
aVExodus
p121
aVExodus
p122
aVExodus
p123
aVExodus
p124
aVUnlimited Edition
p125
aVIce Age
p126
aVClassic Sixth Edition
p127
aVMirrodin
p128
aVShards of Alara
p129
aVRise of the Eldrazi
p130
aVJudgment
p131
aVShadowmoor
p132
aVShadowmoor
p133
aVShadowmoor
p134
aVFuture Sight
p135
aVPortal Second Age
p136
aVUrza's Saga
p137
aVMasters Edition
p138
aVMasters Edition
p139
aVTheros
p140
aVTheros
p141
aVMagic: The Gathering\u2014Conspiracy
p142
aVMagic: The Gathering\u2014Conspiracy
p143
aVEighth Edition
p144
aVWorldwake
p145
aVChronicles
p146
aVInvasion
p147
aVFifth Edition
p148
aVMirage
p149
aVInnistrad
p150
aVInnistrad
p151
aVInnistrad
p152
aVInnistrad
p153
aVInnistrad
p154
aVInnistrad
p155
aVInnistrad
p156
aVLimited Edition Alpha
p157
aVArabian Nights
p158
aVMagic 2011
p159
aVMagic 2011
p160
aVPortal Three Kingdoms
p161
aVDark Ascension
p162
aVDark Ascension
p163
aVDark Ascension
p164
aVDark Ascension
p165
aVDark Ascension
p166
asS'ids'
p167
(lp168
V-2146729962
p169
aV247320
p170
aV221895
p171
aV348
p172
aV87329
p173
aV88786
p174
aV21137
p175
aV2035
p176
aV2094
p177
aV1004
p178
aV194127
p179
aV378492
p180
aV189898
p181
aV4601
p182
aV19575
p183
aV382902
p184
aV1732
p185
aV1148
p186
aV97215
p187
aV180322
p188
aV240124
p189
aV271193
p190
aV39919
p191
aV75262
p192
aV79229
p193
aV74671
p194
aV376290
p195
aV376291
p196
aV376292
p197
aV376293
p198
aV376294
p199
aV376295
p200
aV29850
p201
aV30763
p202
aV111049
p203
aV6062
p204
aV6085
p205
aV6089
p206
aV6060
p207
aV650
p208
aV2617
p209
aV15404
p210
aV47445
p211
aV176429
p212
aV193447
p213
aV34400
p214
aV142068
p215
aV146079
p216
aV158763
p217
aV126177
p218
aV6606
p219
aV7817
p220
aV159123
p221
aV159840
p222
aV373542
p223
aV373660
p224
aV382242
p225
aV382243
p226
aV45240
p227
aV201563
p228
aV2800
p229
aV23044
p230
aV3835
p231
aV3247
p232
aV230767
p233
aV227075
p234
aV237020
p235
aV226889
p236
aV230627
p237
aV226881
p238
aV227071
p239
aV53
p240
aV914
p241
aV205084
p242
aV204996
p243
aV10533
p244
aV227091
p245
aV262841
p246
aV226729
p247
aV262874
p248
aV220003
p249
asS'texts'
p250
(lp251
VEnchant creature<br><br>Enchanted creature gets +4/+0.
p252
aVSearch your library for up to two basic land cards, reveal those cards, and put one onto the battlefield tapped and the other into your hand. Then shuffle your library.
p253
aVWhenever a player casts a black spell, you may gain 1 life.
p254
aVTarget spell or permanent becomes black. <i>(Mana symbols on that permanent remain unchanged.)</i>
p255
aVCast Curtain of Light only during combat after blockers are declared.<br>Target unblocked attacking creature becomes blocked. <i>(This spell works on unblockable creatures.)</i><br>Draw a card.
p256
aVReturn target enchanted permanent to its owner's hand.
p257
aVEach player returns a creature he or she controls to its owner's hand.
p258
aVAs Cursed Rack enters the battlefield, choose an opponent.<br>The chosen player's maximum hand size is four.
p259
aVTarget spell or permanent becomes black. <i>(Mana symbols on that permanent remain unchanged.)</i>
p260
aVAs Cursed Rack enters the battlefield, choose an opponent.<br>The chosen player's maximum hand size is four.
p261
aVInfect <i>(This creature deals damage to creatures in the form of -1/-1 counters and to players in the form of poison counters.)</i>
p262
aVTarget creature blocks this turn if able.
p263
aVWhenever a player casts a black spell, you may gain 1 life.
p264
aV{3}, {T}: Name a card. Reveal a card at random from your hand. If it's the named card, Cursed Scroll deals 2 damage to target creature or player.
p265
aVEnchant creature<br>Shroud <i>(This permanent can't be the target of spells or abilities.)</i><br>Enchanted creature has shroud.
p266
aVYou may have Dack's Duplicate enter the battlefield as a copy of any creature on the battlefield except it gains haste and dethrone. <i>(Whenever it attacks the player with the most life or tied for most life, put a +1/+1 counter on it.)</i>
p267
aVEnchant artifact<br>At the beginning of the upkeep of enchanted artifact's controller, Curse Artifact deals 2 damage to that player unless he or she sacrifices that artifact.
p268
aVSearch your library for a card and put that card into your hand. Then shuffle your library.
p269
aVParallectric Feedback deals damage to target spell's controller equal to that spell's converted mana cost.
p270
aV{R}{G}{W}: Cylian Sunsinger and each other creature with the same name as it get +3/+3 until end of turn.
p271
aVDiscard your hand, then draw two cards.
p272
aVSearch your library for up to two basic land cards, reveal those cards, and put one onto the battlefield tapped and the other into your hand. Then shuffle your library.
p273
aVEnchant creature<br>Enchanted creature has "At the beginning of your upkeep, target opponent gains control of this creature unless you sacrifice a land."
p274
aVEquipped creature gets +2/+0 and has first strike.<br>Equip {3} <i>({3}: Attach to target creature you control. Equip only as a sorcery.)</i>
p275
aV{3}, {T}: Search your library for a basic land card, reveal it, and put it into your hand. Then shuffle your library.
p276
aVEnchant land<br>{2}: Enchanted land becomes a legendary 8/12 Spirit creature with trample until end of turn. It's still a land.<br>When enchanted land is put into a graveyard, you may return Genju of the Realm from your graveyard to your hand.
p277
aVSearch your library for up to two basic land cards, reveal those cards, and put one onto the battlefield tapped and the other into your hand. Then shuffle your library.
p278
aVEnchant player<br>Whenever a player attacks enchanted player with one or more creatures, that attacking player may discard a card. If the player does, he or she draws a card.
p279
aVEnchant player<br>Whenever a player attacks enchanted player with one or more creatures, that attacking player may tap or untap target permanent of his or her choice.
p280
aVEnchant player<br>Whenever a creature attacks enchanted player, put a +1/+1 counter on it.
p281
aVEnchant player<br>Whenever a player attacks enchanted player with one or more creatures, that attacking player may put a 2/2 black Zombie creature token onto the battlefield tapped.
p282
aVEnchant player<br>Whenever a creature attacks enchanted player, its controller gains 1 life.
p283
aVWhen Dwarven Recruiter enters the battlefield, search your library for any number of Dwarf cards and reveal those cards. Shuffle your library, then put them on top of it in any order.
p284
aV{X}: Testament of Faith becomes an X/X Wall creature with defender until end of turn. It's still an enchantment.
p285
aVTarget player sacrifices half the permanents he or she controls, rounded down.<br>Suspend 2\u2014{2}{B}{B} <i>(Rather than cast this card from your hand, you may pay {2}{B}{B} and exile it with two time counters on it. At the beginning of your upkeep, remove a time counter. When the last is removed, cast it without paying its mana cost.)</i><br>At the beginning of each player's upkeep, if Curse of the Cabal is suspended, that player may sacrifice a permanent. If he or she does, put two time counters on Curse of the Cabal.
p286
aVEnchant creature<br>Enchanted creature gets +3/+3.<br>When enchanted creature attacks or blocks, sacrifice Cunning at the beginning of the next cleanup step.
p287
aVAs an additional cost to cast Culling the Weak, sacrifice a creature.<br>Add {B}{B}{B}{B} to your mana pool.
p288
aVEnchant creature<br>Enchanted creature gets -1/-1 and has fear. <i>(It can't be blocked except by artifact creatures and/or black creatures.)</i>
p289
aVEnchant creature<br>Whenever enchanted creature deals damage to an opponent, you may draw a card.
p290
aV{B}{B}: Counter target green spell.
p291
aV{2}, Sacrifice a land: Put a +2/+2 counter on target creature. Activate this ability only during any upkeep step.
p292
aVWhenever Lead Golem attacks, it doesn't untap during its controller's next untap step.
p293
aVAt the beginning of your upkeep, destroy target nonland permanent with the lowest converted mana cost. <i>(If two or more permanents are tied for lowest cost, target any one of them.)</i>
p294
aVTarget creature gets +3/+3 and gains double strike until end of turn.
p295
aVAs Curse of Wizardry enters the battlefield, choose a color.<br>Whenever a player casts a spell of the chosen color, that player loses 1 life.
p296
aVYou may choose an instant card you own from outside the game, reveal that card, and put it into your hand. Exile Cunning Wish.
p297
aVEnchant creature<br>Enchanted creature can't attack or block, and its activated abilities can't be activated.<br>Whenever a creature enters the battlefield under an opponent's control, you may attach Prison Term to that creature.
p298
aVAt the beginning of each player's draw step, that player draws an additional card.<br>Whenever a player draws a card, Spiteful Visions deals 1 damage to that player.
p299
aVPrevent all damage target attacking or blocking creature would deal this turn. If that creature is black or red, destroy it.
p300
aVCreatures you control get +0/+1.<br>Morph {1}{W} <i>(You may cast this face down as a 2/2 creature for {3}. Turn it face up any time for its morph cost.)</i>
p301
aVShuffle any number of target creature cards from your graveyard into your library.
p302
aVAll creatures are black.
p303
aV{T}: Cuombajj Witches deals 1 damage to target creature or player and 1 damage to target creature or player of an opponent's choice.
p304
aVAs Cursed Rack enters the battlefield, choose an opponent.<br>The chosen player's maximum hand size is four.
p305
aVDestroy target black creature.
p306
aVUp to two target creatures each get +2/+2 until end of turn.
p307
aVCustodi Soulbinders enters the battlefield with X +1/+1 counters on it, where X is the number of other creatures on the battlefield.<br>{2}{W}, Remove a +1/+1 counter from Custodi Soulbinders: Put a 1/1 white Spirit creature token with flying onto the battlefield.
p308
aVFlying<br>Will of the council- When Custodi Squire enters the battlefield, starting with you, each player votes for an artifact, creature, or enchantment card in your graveyard. Return each card with the most votes or tied for most votes to your hand.
p309
aVFlying
p310
aVHaste<br>{T}: Cunning Sparkmage deals 1 damage to target creature or player.
p311
aVWhen Dance of Many enters the battlefield, put a token that's a copy of target nontoken creature onto the battlefield.<br>When Dance of Many leaves the battlefield, exile the token.<br>When the token leaves the battlefield, sacrifice Dance of Many.<br>At the beginning of your upkeep, sacrifice Dance of Many unless you pay {U}{U}.
p312
aVEnchant creature<br>Enchanted creature gets -1/-1 and has fear. <i>(It can't be blocked except by artifact creatures and/or black creatures.)</i>
p313
aV{B}{B}: Counter target green spell.
p314
aV{T}, Sacrifice Daring Apprentice: Counter target spell.
p315
aVEnchant creature<br>Whenever enchanted creature deals damage to an opponent, you may draw a card.
p316
aVEnchant player<br>Creatures enchanted player controls get -1/-1.
p317
aVEnchant player<br>At the beginning of enchanted player's upkeep, that player exiles two cards from his or her graveyard.
p318
aVEnchant player<br>Whenever a creature deals combat damage to enchanted player, put a +1/+1 counter on that creature.
p319
aVEnchant player<br>At the beginning of enchanted player's upkeep, that player puts the top two cards of his or her library into his or her graveyard.
p320
aVEnchant player<br>Creatures enchanted player controls attack each turn if able.
p321
aVEnchant player<br>At the beginning of enchanted player's upkeep, Curse of the Pierced Heart deals 1 damage to that player.
p322
aVAs Lich enters the battlefield, you lose life equal to your life total.<br>You don't lose the game for having 0 or less life.<br>If you would gain life, draw that many cards instead.<br>Whenever you're dealt damage, sacrifice that many nontoken permanents. If you can't, you lose the game.<br>When Lich is put into a graveyard from the battlefield, you lose the game.
p323
aV{T}: Cuombajj Witches deals 1 damage to target creature or player and 1 damage to target creature or player of an opponent's choice.
p324
aVAt the beginning of your upkeep, reveal the top card of your library and put that card into your hand. You lose life equal to its converted mana cost.
p325
aVDestroy all creatures.
p326
aVHorsemanship <i>(This creature can't be blocked except by creatures with horsemanship.)</i><br>Yellow Scarves Cavalry can't block.
p327
aVEnchant player<br>If a source would deal damage to enchanted player, it deals double that damage to that player instead.
p328
aVEnchant player<br>Whenever enchanted player casts an instant or sorcery spell, each other player may copy that spell and may choose new targets for the copy he or she controls.
p329
aVEnchant player<br>Enchanted player can't cast more than one spell each turn.
p330
aVEnchant player<br>At the beginning of your upkeep, you may search your library for a Curse card that doesn't have the same name as a Curse attached to enchanted player, put it onto the battlefield attached to that player, then shuffle your library.
p331
aVEnchant player<br>At the beginning of enchanted player's upkeep, Curse of Thirst deals damage to that player equal to the number of Curses attached to him or her.
p332
asS'costs'
p333
(lp334
V{B}{B}
p335
aV{2}{G}
p336
aV{5}
p337
aV{2}{B}{B}
p338
aV{1}{W}
p339
aV{U}
p340
aV{U}
p341
aV{4}
p342
aV{2}{B}{B}
p343
aV{4}
p344
aV{2}
p345
aV{2}{G}
p346
aV{1}{U}
p347
aV{1}
p348
aV{1}{U}
p349
aV{1}
p350
aV{2}{B}{B}
p351
aV{2}{B}{B}
p352
aV{2}{W}{W}{B}
p353
aV{3}{U}
p354
aV{2}{U}
p355
aV{2}{G}
p356
aV{1}{R}
p357
aV{3}{B}
p358
aV{2}{U}{U}
p359
aV{1}{R}{R}
p360
aV{2}{G}
p361
aV{2}{R}
p362
aV{2}{U}
p363
aV{2}{G}
p364
aV{2}{B}
p365
aV{2}{W}
p366
aV{4}{B}
p367
aV{4}{U}{U}
p368
aV{9}{B}
p369
aV{1}{U}
p370
aV{B}
p371
aV{B}
p372
aV{U}
p373
aV{2}{B}{B}
p374
aV{3}{R}{R}
p375
aV{2}
p376
aV{3}
p377
aV{G}{U}
p378
aV{2}{B}{B}
p379
aV{2}{U}
p380
aV{4}{B/R}
p381
aV{1}{W/U}
p382
aV{U}
p383
aV{3}{B}
p384
aV{5}{R}
p385
aV{U}
p386
aV{B}{B}
p387
aV{4}
p388
aV{2}{U}
p389
aV{X}{U}{U}
p390
aV{3}{W}
p391
aV{4}{W}
p392
aV{U}
p393
aV{2}{R}
p394
aV{B}{B}
p395
aV{B}
p396
aV{2}{B}{B}
p397
aV{2}
p398
aV{U}
p399
aV{3}{B}{B}
p400
aV{3}{B}
p401
aV{1}{R}
p402
aV{2}{U}
p403
aV{2}{R}
p404
aV{1}{R}
p405
aV{2}{B}{B}
p406
aV{B}{B}
p407
aV{5}{B}
p408
aV{3}
p409
aV{3}{B}
p410
aV{3}{R}{R}
p411
aV{4}{U}
p412
aV{2}{W}{W}
p413
aV{4}{B}
p414
aV{4}{B}
p415
asS'names'
p416
(lp417
VCuombajj Witches
p418
aVCultivate
p419
aVCudgel Troll
p420
aVCursed Land
p421
aVCurtain of Light
p422
aVCut the Earthly Bond
p423
aVCurfew
p424
aVCursed Rack
p425
aVCursed Land
p426
aVCursed Rack
p427
aVCulling Dais
p428
aVCulling Mark
p429
aVCudgel Troll
p430
aVCursed Scroll
p431
aVCustoms Depot
p432
aVCursed Scroll
p433
aVCurse Artifact
p434
aVCursed Land
p435
aVCulling Sun
p436
aVCumber Stone
p437
aVCursebreak
p438
aVCultivate
p439
aVCustody Battle
p440
aVCursed Ronin
p441
aVCut the Tethers
p442
aVCunning Bandit
p443
aVCultivate
p444
aVCurse of Chaos
p445
aVCurse of Inertia
p446
aVCurse of Predation
p447
aVCurse of Shallow Graves
p448
aVCurse of the Forsaken
p449
aVCursed Monstrosity
p450
aVCultural Exchange
p451
aVCurse of the Cabal
p452
aVCunning
p453
aVCulling the Weak
p454
aVCursed Flesh
p455
aVCuriosity
p456
aVCursed Land
p457
aVCurse of Marit Lage
p458
aVCursed Totem
p459
aVCulling Scales
p460
aVCunning Lethemancer
p461
aVCurse of Wizardry
p462
aVCunning Wish
p463
aVCultbrand Cinder
p464
aVCurse of Chains
p465
aVCursecatcher
p466
aVCutthroat il-Dal
p467
aVCunning Giant
p468
aVCurfew
p469
aVCuombajj Witches
p470
aVCursed Rack
p471
aVCurse of the Swine
p472
aVCutthroat Maneuver
p473
aVCustodi Soulbinders
p474
aVCustodi Squire
p475
aVCuriosity
p476
aVCunning Sparkmage
p477
aVCuombajj Witches
p478
aVCursed Flesh
p479
aVCursed Land
p480
aVCursed Totem
p481
aVCuriosity
p482
aVCurse of Death's Hold
p483
aVCurse of Oblivion
p484
aVCurse of Stalked Prey
p485
aVCurse of the Bloody Tome
p486
aVCurse of the Nightly Hunt
p487
aVCurse of the Pierced Heart
p488
aVCursed Land
p489
aVCuombajj Witches
p490
aVCudgel Troll
p491
aVCultivate
p492
aVCunning Advisor
p493
aVCurse of Bloodletting
p494
aVCurse of Echoes
p495
aVCurse of Exhaustion
p496
aVCurse of Misfortunes
p497
aVCurse of Thirst
p498
asS'toughs'
p499
(lp500
V1
p501
aS'N/A'
p502
ag501
ag502
ag502
ag502
ag502
ag502
ag502
ag502
ag502
ag502
ag501
ag502
ag502
ag502
ag502
ag502
ag502
ag502
ag502
ag502
ag502
ag501
ag502
aV2
p503
ag502
ag502
ag502
ag502
ag502
ag502
aV3
p504
ag502
ag502
ag502
ag502
ag502
ag502
ag502
ag502
ag502
ag502
ag501
ag502
ag502
ag501
ag502
aV6
p505
ag501
aV4
p506
ag502
ag506
ag502
ag502
ag502
ag504
ag501
ag502
ag501
aV7
p507
ag502
ag502
ag502
ag502
ag502
ag502
ag502
ag502
ag502
ag502
ag502
ag504
ag504
ag502
ag501
ag502
ag502
ag502
ag502
ag502
asS'artists'
p508
(lp509
VKaja Foglio
p510
aVAnthony Palumbo
p511
aS''
p512
aVJesper Myrfors
p513
aVChippy
p514
aVJeff Miracola
p515
aVRandy Gallegos
p516
aVRichard Thomas
p517
aVJesper Myrfors
p518
aVRichard Thomas
p519
aVAnthony Palumbo
p520
aVTomasz Jedruszek
p521
aVJesper Ejsing
p522
aVD. Alexander Gregory
p523
aVScott M. Fischer
p524
aVD. Alexander Gregory
p525
aVMark Tedin
p526
aVJesper Myrfors
p527
aVDaren Bader
p528
aVWarren Mahy
p529
aVDrew Baker
p530
ag512
aVGreg & Tim Hildebrandt
p531
aVCarl Critchlow
p532
aVRon Spears
p533
aVPaolo Parente
p534
aVAnthony Palumbo
p535
aVJason A. Engle
p536
aVJasper Sandner
p537
aVJack Wang
p538
aVKarla Ortiz
p539
aVWilliam Wu
p540
aVJeff Remmer
p541
aVDaren Bader
p542
aVJohn Avon
p543
aVKev Walker
p544
aVScott M. Fischer
p545
aVRon Spencer
p546
aVVal Mayerik
p547
aVJesper Myrfors
p548
aVAmy Weber
p549
aVD. Alexander Gregory
p550
aVDaren Bader
p551
aVPaul Bonner
p552
aVKekai Kotaki
p553
aVJim Nelson
p554
aVChristopher Moeller
p555
aVDrew Tucker
p556
aVWarren Mahy
p557
aVVance Kovacs
p558
aVJeffrey R. Busch
p559
aVRandy Gallegos
p560
aVKaja Foglio
p561
aVRichard Thomas
p562
aVJames Ryman
p563
aVBrad Rigney
p564
aVKarla Ortiz
p565
aVAlex Horley-Orlandelli
p566
aVJim Nelson
p567
aVWayne Reynolds
p568
aVKaja Foglio
p569
aVChippy
p570
aVJesper Myrfors
p571
aVD. Alexander Gregory
p572
aVIgor Kieryluk
p573
aVClint Cearley
p574
aVJana Schirmer & Johannes Voss
p575
aVChristopher Moeller
p576
aVJaime Jones
p577
aVDaarken
p578
aVE. M. Gist
p579
aVJesper Myrfors
p580
aVKaja Foglio
p581
aVJesper Ejsing
p582
aVAnthony Palumbo
p583
aVGao Jianzhang
p584
aVMichael C. Hayes
p585
aVSlawomir Maniak
p586
aVSlawomir Maniak
p587
aVTerese Nielsen
p588
aVChristopher Moeller
p589
asS'powers'
p590
(lp591
g503
ag502
ag503
ag502
ag502
ag502
ag502
ag502
ag502
ag502
ag502
ag502
ag506
ag502
ag502
ag502
ag502
ag502
ag502
ag502
ag502
ag502
ag502
ag501
ag502
ag503
ag502
ag502
ag502
ag502
ag502
ag502
ag506
ag502
ag502
ag502
ag502
ag502
ag502
ag502
ag502
ag502
ag502
ag503
ag502
ag502
ag501
ag502
ag505
ag506
ag506
ag502
aV0
p592
ag502
ag502
ag502
ag504
ag503
ag502
ag592
ag507
ag502
ag502
ag502
ag502
ag502
ag502
ag502
ag502
ag502
ag502
ag502
ag501
ag506
ag502
ag501
ag502
ag502
ag502
ag502
ag502
asS'types'
p593
(lp594
VCreature - Human Wizard
p595
aVSorcery
p596
aVCreature - Troll
p597
aVEnchantment - Aura
p598
aVInstant
p599
aVInstant - Arcane
p600
aVInstant
p601
aVArtifact
p602
aVEnchantment - Aura
p603
aVArtifact
p604
aVArtifact
p605
aVSorcery
p606
aVCreature - Troll
p607
aVArtifact
p608
aVEnchantment
p609
aVArtifact
p610
aVEnchantment - Aura
p611
aVEnchantment - Aura
p612
aVSorcery
p613
aVArtifact
p614
aVInstant
p615
aVSorcery
p616
aVEnchantment - Aura
p617
aVCreature - Human Samurai
p618
aVSorcery
p619
aVCreature - Human Warrior
p620
aVSorcery
p621
aVEnchantment - Aura Curse
p622
aVEnchantment - Aura Curse
p623
aVEnchantment - Aura Curse
p624
aVEnchantment - Aura Curse
p625
aVEnchantment - Aura Curse
p626
aVCreature - Horror
p627
aVSorcery
p628
aVSorcery
p629
aVEnchantment - Aura
p630
aVInstant
p631
aVEnchantment - Aura
p632
aVEnchantment - Aura
p633
aVEnchantment - Aura
p634
aVEnchantment
p635
aVArtifact
p636
aVArtifact
p637
aVCreature - Human Wizard
p638
aVEnchantment
p639
aVInstant
p640
aVCreature - Elemental Shaman
p641
aVEnchantment - Aura
p642
aVCreature - Merfolk Wizard
p643
aVCreature - Human Rogue
p644
aVCreature - Giant
p645
aVInstant
p646
aVCreature - Human Wizard
p647
aVArtifact
p648
aVSorcery
p649
aVInstant
p650
aVCreature - Human Cleric
p651
aVCreature - Spirit Cleric
p652
aVEnchantment - Aura
p653
aVCreature - Human Shaman
p654
aVCreature - Human Wizard
p655
aVEnchantment - Aura
p656
aVEnchantment - Aura
p657
aVArtifact
p658
aVEnchantment - Aura
p659
aVEnchantment - Aura Curse
p660
aVEnchantment - Aura Curse
p661
aVEnchantment - Aura Curse
p662
aVEnchantment - Aura Curse
p663
aVEnchantment - Aura Curse
p664
aVEnchantment - Aura Curse
p665
aVEnchantment - Aura
p666
aVCreature - Human Wizard
p667
aVCreature - Troll
p668
aVSorcery
p669
aVCreature - Human Advisor
p670
aVEnchantment - Aura Curse
p671
aVEnchantment - Aura Curse
p672
aVEnchantment - Aura Curse
p673
aVEnchantment - Aura Curse
p674
aVEnchantment - Aura Curse
p675
asS'numbers'
p676
(lp677
V22
p678
aV148
p679
aV169
p680
aV65
p681
ag505
aV32
p682
aV17
p683
aV15
p684
aV182
p685
aV51
p686
aV148
p687
aV120
p688
aV174
p689
ag506
aV71
p690
aV267
p691
aV16
p692
aV95
p693
aV109
p694
aV24
p695
aV14
p696
aV65
p697
aV197
p698
aV107
p699
aV56
p700
aV99
p701
aV139
p702
aV105
p703
aV36
p704
aV140
p705
aV71
p706
aV8
p707
aV126
p708
aV79
p709
aV99
p710
aV28
p711
aV55
p712
aV56
p713
aV29
p714
aV70
p715
aV153
p716
aV278
p717
aV160
p718
aV69
p719
aV104
p720
aV37
p721
aV182
p722
aV139
p723
aV34
p724
aV64
p725
aV66
p726
aV68
p727
aV65
p728
aV155
p729
aV46
p730
aV82
p731
aV17
p732
aV18
p733
aV72
p734
aV79
p735
aV62
p736
aV98
p737
aV243
p738
aV257
p739
aV49
p740
aV94
p741
aV95
p742
aV136
p743
aV50
p744
aV137
p745
aV138
p746
aV72
p747
aV5
p748
aV167
p749
aV168
p750
aV72
p751
aV85
p752
aV34
p753
ag748
aV56
p754
aV57
p755
as.