(dp0
S'rares'
p1
(lp2
VUncommon
p3
aVCommon
p4
asS'editns'
p5
(lp6
VChampions of Kamigawa
p7
aVRise of the Eldrazi
p8
asS'ids'
p9
(lp10
V80243
p11
aV193495
p12
asS'texts'
p13
(lp14
V{T}: Add {G} to your mana pool.<br>{G}, {T}: Target legendary creature gets +1/+1 until end of turn.
p15
aVFlash <i>(You may cast this spell any time you could cast an instant.)</i><br>Enchant creature<br>Enchanted creature gets +1/+1.<br>Totem armor <i>(If enchanted creature would be destroyed, instead remove all damage from it and destroy this Aura.)</i>
p16
asS'costs'
p17
(lp18
V{2}{U}
p19
aV{1}{U}
p20
asS'names'
p21
(lp22
VEerie Procession
p23
aVEel Umbra
p24
asS'toughs'
p25
(lp26
S'N/A'
p27
ag27
asS'artists'
p28
(lp29
VJim Murray
p30
aVHoward Lyon
p31
asS'powers'
p32
(lp33
g27
ag27
asS'types'
p34
(lp35
VSorcery - Arcane
p36
aVEnchantment - Aura
p37
asS'numbers'
p38
(lp39
V58
p40
aV65
p41
as.