(dp0
S'rares'
p1
(lp2
VCommon
p3
asS'editns'
p4
(lp5
VKhans of Tarkir
p6
asS'ids'
p7
(lp8
V386529
p9
asS'texts'
p10
(lp11
V{1}{G}, {T}, Sacrifice Embodiment of Spring: Search your library for a basic land card, put it onto the battlefield tapped, then shuffle your library.
p12
asS'costs'
p13
(lp14
V{3}{U}{R}{W}
p15
asS'names'
p16
(lp17
VEfreet Weaponmaster
p18
asS'toughs'
p19
(lp20
V3
p21
asS'artists'
p22
(lp23
VRyan Alexander Lee
p24
asS'powers'
p25
(lp26
V4
p27
asS'types'
p28
(lp29
VCreature - Efreet Monk
p30
asS'numbers'
p31
(lp32
V175
p33
as.