(dp0
S'rares'
p1
(lp2
VCommon
p3
aVCommon
p4
aVCommon
p5
asS'editns'
p6
(lp7
VClassic Sixth Edition
p8
aVMirage
p9
aVMirage
p10
asS'ids'
p11
(lp12
V14474
p13
aV3442
p14
aV3488
p15
asS'texts'
p16
(lp17
VCreatures you control have vigilance. <i>(Attacking doesn't cause them to tap.)</i>
p18
aVIf a creature you control attacks, Ekundu Cyclops also attacks if able.
p19
aVEnchant creature <i>(Target a creature as you cast this. This card enters the battlefield attached to that creature.)</i><br>Enchanted creature gets -2/-2.
p20
asS'costs'
p21
(lp22
V{3}{W}
p23
aV{3}{R}
p24
aV{3}{W}
p25
asS'names'
p26
(lp27
VEkundu Griffin
p28
aVEkundu Cyclops
p29
aVEkundu Griffin
p30
asS'toughs'
p31
(lp32
V2
p33
aV3
p34
aV1
p35
asS'artists'
p36
(lp37
VDavid A. Cherry
p38
aVRobert Bliss
p39
aVDavid A. Cherry
p40
asS'powers'
p41
(lp42
g33
ag34
ag35
asS'types'
p43
(lp44
VCreature - Griffin
p45
aVCreature - Cyclops
p46
aVCreature - Griffin
p47
asS'numbers'
p48
(lp49
V18
p50
aV145
p51
aV266
p52
as.