(dp0
S'rares'
p1
(lp2
VRare
p3
asS'editns'
p4
(lp5
VFifth Dawn
p6
asS'ids'
p7
(lp8
V51160
p9
asS'texts'
p10
(lp11
VPlayers skip their upkeep steps.
p12
asS'costs'
p13
(lp14
V{5}
p15
asS'names'
p16
(lp17
VEon Hub
p18
asS'toughs'
p19
(lp20
S'N/A'
p21
asS'artists'
p22
(lp23
VDaren Bader
p24
asS'powers'
p25
(lp26
g21
asS'types'
p27
(lp28
VArtifact
p29
asS'numbers'
p30
(lp31
V120
p32
as.