(dp0
S'rares'
p1
(lp2
VMythic Rare
p3
aVRare
p4
aVRare
p5
aVUncommon
p6
asS'editns'
p7
(lp8
VVintage Masters
p9
aVMasters Edition
p10
aVLegends
p11
aVPortal Three Kingdoms
p12
asS'ids'
p13
(lp14
V382927
p15
aV159300
p16
aV1525
p17
aV10543
p18
asS'texts'
p19
(lp20
VDestroy target nonartifact, nonblack creature. It can't be regenerated.<br>Cycling {2} <i>({2}, Discard this card: Draw a card.)</i>
p21
aVStarting with you, each player may put a permanent card from his or her hand onto the battlefield. Repeat this process until no one puts a card onto the battlefield.
p22
aVWhenever Floral Spuzzem attacks and isn't blocked, you may destroy target artifact defending player controls. If you do, Floral Spuzzem assigns no combat damage this turn.
p23
aVBorrowing the East Wind deals X damage to each creature with horsemanship and each player.
p24
asS'costs'
p25
(lp26
V{5}{W}{W}
p27
aV{2}{G}{G}
p28
aV{2}{G}{G}
p29
aV{2}{R}
p30
asS'names'
p31
(lp32
VEureka
p33
aVEureka
p34
aVEureka
p35
aVEunuchs' Intrigues
p36
asS'toughs'
p37
(lp38
S'N/A'
p39
ag39
ag39
ag39
asS'artists'
p40
(lp41
VRyan Pancoast
p42
aVKaja Foglio
p43
aVKaja Foglio
p44
aVLi Yousong
p45
asS'powers'
p46
(lp47
g39
ag39
ag39
ag39
asS'types'
p48
(lp49
VSorcery
p50
aVSorcery
p51
aVSorcery
p52
aVSorcery
p53
asS'numbers'
p54
(lp55
V208
p56
aV117
p57
aV64
p58
aV110
p59
as.