(dp0
S'rares'
p1
(lp2
VUncommon
p3
aVRare
p4
aVRare
p5
aVCommon
p6
aVCommon
p7
aVRare
p8
aVRare
p9
aVRare
p10
aVCommon
p11
aVCommon
p12
aVCommon
p13
aVRare
p14
aVRare
p15
aVCommon
p16
aVCommon
p17
aVCommon
p18
aVUncommon
p19
aVRare
p20
aVRare
p21
aVRare
p22
aVRare
p23
aVRare
p24
aVRare
p25
aVUncommon
p26
aVUncommon
p27
aVUncommon
p28
aVUncommon
p29
aVCommon
p30
aVCommon
p31
aVUncommon
p32
aVMythic Rare
p33
aVCommon
p34
aVCommon
p35
aVCommon
p36
aVUncommon
p37
aVCommon
p38
aVUncommon
p39
aVCommon
p40
aVUncommon
p41
aVCommon
p42
aVCommon
p43
aVRare
p44
aVUncommon
p45
aVUncommon
p46
aVUncommon
p47
aVRare
p48
aVRare
p49
aVUncommon
p50
aVUncommon
p51
aVCommon
p52
aVRare
p53
aVCommon
p54
aVCommon
p55
aVUncommon
p56
aVCommon
p57
aVUncommon
p58
aVUncommon
p59
aVCommon
p60
aVRare
p61
aVCommon
p62
aVUncommon
p63
aVUncommon
p64
aVMythic Rare
p65
aVRare
p66
aVCommon
p67
aVCommon
p68
aVCommon
p69
aVUncommon
p70
aVUncommon
p71
aVCommon
p72
aVUncommon
p73
aVUncommon
p74
aVUncommon
p75
aVUncommon
p76
aVCommon
p77
aVUncommon
p78
aVUncommon
p79
aVRare
p80
aVCommon
p81
aVCommon
p82
aVRare
p83
aVRare
p84
aVUncommon
p85
aVCommon
p86
aVRare
p87
aVCommon
p88
aVUncommon
p89
aVUncommon
p90
aVCommon
p91
aVRare
p92
aVRare
p93
aVCommon
p94
aVUncommon
p95
aVUncommon
p96
aVCommon
p97
aVUncommon
p98
aVRare
p99
aVUncommon
p100
aVCommon
p101
aVUncommon
p102
aVRare
p103
aVRare
p104
aVCommon
p105
aVCommon
p106
aVCommon
p107
aVUncommon
p108
aVUncommon
p109
aVUncommon
p110
aVUncommon
p111
aVUncommon
p112
aVRare
p113
aVCommon
p114
aVCommon
p115
aVUncommon
p116
aVCommon
p117
aVRare
p118
aVRare
p119
aVRare
p120
aVCommon
p121
aVUncommon
p122
aVCommon
p123
aVUncommon
p124
aVUncommon
p125
aVUncommon
p126
aVCommon
p127
aVUncommon
p128
aVUncommon
p129
aVRare
p130
aVCommon
p131
aVCommon
p132
aVUncommon
p133
aVCommon
p134
aVUncommon
p135
aVUncommon
p136
aVUncommon
p137
aVUncommon
p138
aVSpecial
p139
aVRare
p140
aVUncommon
p141
aVRare
p142
aVCommon
p143
aVRare
p144
aVCommon
p145
aVRare
p146
aVCommon
p147
aVRare
p148
aVUncommon
p149
aVCommon
p150
aVUncommon
p151
aVRare
p152
aVUncommon
p153
aVUncommon
p154
aVCommon
p155
aVUncommon
p156
aVCommon
p157
aVRare
p158
aVUncommon
p159
aVCommon
p160
aVRare
p161
aVUncommon
p162
aVRare
p163
aVRare
p164
aVCommon
p165
aVUncommon
p166
aVUncommon
p167
aVSpecial
p168
aVCommon
p169
aVCommon
p170
aVCommon
p171
aVUncommon
p172
aVMythic Rare
p173
aVCommon
p174
aVUncommon
p175
aVCommon
p176
asS'editns'
p177
(lp178
VMagic: The Gathering-Commander
p179
aVMagic: The Gathering-Commander
p180
aVMagic: The Gathering-Commander
p181
aVMagic: The Gathering-Commander
p182
aVLimited Edition Beta
p183
aVLimited Edition Beta
p184
aVLimited Edition Beta
p185
aVMagic 2013
p186
aVMagic 2013
p187
aVMagic 2013
p188
aVPlanar Chaos
p189
aVPlanar Chaos
p190
aVAlliances
p191
aVAlliances
p192
aVAlliances
p193
aVBorn of the Gods
p194
aVBorn of the Gods
p195
aVBorn of the Gods
p196
aVBorn of the Gods
p197
aVBorn of the Gods
p198
aVBorn of the Gods
p199
aVBorn of the Gods
p200
aVBorn of the Gods
p201
aVMagic 2010
p202
aVTenth Edition
p203
aVMercadian Masques
p204
aVVintage Masters
p205
aVVintage Masters
p206
aVVintage Masters
p207
aVVintage Masters
p208
aVVintage Masters
p209
aVModern Masters
p210
aVModern Masters
p211
aVModern Masters
p212
aVThe Dark
p213
aVMirrodin Besieged
p214
aVFallen Empires
p215
aVFallen Empires
p216
aVFallen Empires
p217
aVFallen Empires
p218
aVFallen Empires
p219
aVApocalypse
p220
aVMasters Edition III
p221
aVMasters Edition III
p222
aVMasters Edition III
p223
aVRevised Edition
p224
aVRevised Edition
p225
aVMasters Edition II
p226
aVMasters Edition II
p227
aVEventide
p228
aVEventide
p229
aVEventide
p230
aVConflux
p231
aVAvacyn Restored
p232
aVAvacyn Restored
p233
aVAvacyn Restored
p234
aVPlanechase 2012 Edition
p235
aVDuel Decks: Sorin vs. Tibalt
p236
aVOnslaught
p237
aVOnslaught
p238
aVOnslaught
p239
aVBetrayers of Kamigawa
p240
aVFrom the Vault: Twenty
p241
aVUrza's Destiny
p242
aVUrza's Destiny
p243
aVRavnica: City of Guilds
p244
aVRavnica: City of Guilds
p245
aVCommander 2013 Edition
p246
aVCommander 2013 Edition
p247
aVCommander 2013 Edition
p248
aVOdyssey
p249
aVOdyssey
p250
aVTime Spiral
p251
aVTime Spiral
p252
aVTime Spiral
p253
aVReturn to Ravnica
p254
aVReturn to Ravnica
p255
aVGatecrash
p256
aVExodus
p257
aVUnlimited Edition
p258
aVUnlimited Edition
p259
aVUnlimited Edition
p260
aVIce Age
p261
aVTorment
p262
aVTorment
p263
aVTorment
p264
aVClassic Sixth Edition
p265
aVClassic Sixth Edition
p266
aVClassic Sixth Edition
p267
aVClassic Sixth Edition
p268
aVMirrodin
p269
aVMirrodin
p270
aVMirrodin
p271
aVMirrodin
p272
aVDuel Decks: Elspeth vs. Tezzeret
p273
aVShards of Alara
p274
aVSeventh Edition
p275
aVSeventh Edition
p276
aVProphecy
p277
aVUrza's Legacy
p278
aVDarksteel
p279
aVPromo set for Gatherer
p280
aVShadowmoor
p281
aVShadowmoor
p282
aVShadowmoor
p283
aVShadowmoor
p284
aVNew Phyrexia
p285
aVStarter 1999
p286
aVFifth Dawn
p287
aVScourge
p288
aVScourge
p289
aVFuture Sight
p290
aVPortal Second Age
p291
aVPlanechase
p292
aVUrza's Saga
p293
aVUrza's Saga
p294
aVUrza's Saga
p295
aVTheros
p296
aVTheros
p297
aVTheros
p298
aVTheros
p299
aVTheros
p300
aVWeatherlight
p301
aVWeatherlight
p302
aVWeatherlight
p303
aVMagic: The Gathering\u2014Conspiracy
p304
aVMagic: The Gathering\u2014Conspiracy
p305
aVEighth Edition
p306
aVNemesis
p307
aVPremium Deck Series: Graveborn
p308
aVChronicles
p309
aVInvasion
p310
aVInvasion
p311
aVFifth Edition
p312
aVMirage
p313
aVMirage
p314
aVVanguard
p315
aVInnistrad
p316
aVInnistrad
p317
aVLimited Edition Alpha
p318
aVLimited Edition Alpha
p319
aVLimited Edition Alpha
p320
aVVisions
p321
aVBeatdown Box Set
p322
aVMasters Edition IV
p323
aVMasters Edition IV
p324
aVDragon's Maze
p325
aVDragon's Maze
p326
aVStronghold
p327
aVLegends
p328
aVLegends
p329
aVLorwyn
p330
aVLorwyn
p331
aVLorwyn
p332
aVLorwyn
p333
aVLorwyn
p334
aVLorwyn
p335
aVLorwyn
p336
aVLorwyn
p337
aVLorwyn
p338
aVMagic 2011
p339
aVHomelands
p340
aVPortal Three Kingdoms
p341
aVPortal Three Kingdoms
p342
aVPortal Three Kingdoms
p343
aVTime Spiral "Timeshifted"
p344
aVPortal
p345
aVPlaneshift
p346
aVDark Ascension
p347
aVDark Ascension
p348
aVDark Ascension
p349
aVDark Ascension
p350
aVDark Ascension
p351
aVDark Ascension
p352
asS'ids'
p353
(lp354
V247186
p355
aV247150
p356
aV247523
p357
aV247299
p358
aV490
p359
aV546
p360
aV443
p361
aV259666
p362
aV279988
p363
aV277824
p364
aV122374
p365
aV124748
p366
aV3072
p367
aV3106
p368
aV3105
p369
aV378465
p370
aV378519
p371
aV378440
p372
aV378466
p373
aV378411
p374
aV378493
p375
aV378383
p376
aV378441
p377
aV189876
p378
aV106531
p379
aV19812
p380
aV382930
p381
aV382931
p382
aV382932
p383
aV382933
p384
aV382934
p385
aV370499
p386
aV370410
p387
aV370421
p388
aV1807
p389
aV213732
p390
aV1974
p391
aV1977
p392
aV1978
p393
aV1976
p394
aV1975
p395
aV27602
p396
aV201318
p397
aV201275
p398
aV201276
p399
aV1345
p400
aV1243
p401
aV184643
p402
aV184729
p403
aV151118
p404
aV152087
p405
aV158296
p406
aV182608
p407
aV276499
p408
aV240108
p409
aV240131
p410
aV275263
p411
aV368475
p412
aV26436
p413
aV39849
p414
aV41165
p415
aV74093
p416
aV373325
p417
aV15765
p418
aV19098
p419
aV83609
p420
aV87970
p421
aV376326
p422
aV376327
p423
aV376328
p424
aV29736
p425
aV31738
p426
aV109719
p427
aV114908
p428
aV118912
p429
aV322459
p430
aV290536
p431
aV366399
p432
aV6061
p433
aV792
p434
aV848
p435
aV745
p436
aV2558
p437
aV15229
p438
aV5598
p439
aV29739
p440
aV14691
p441
aV16454
p442
aV16623
p443
aV16629
p444
aV45970
p445
aV46115
p446
aV46135
p447
aV48568
p448
aV222747
p449
aV176456
p450
aV11268
p451
aV13191
p452
aV24626
p453
aV12495
p454
aV46058
p455
aV97044
p456
aV147411
p457
aV153289
p458
aV153964
p459
aV158685
p460
aV227537
p461
aV21063
p462
aV50171
p463
aV44220
p464
aV45869
p465
aV130699
p466
aV6533
p467
aV205348
p468
aV5542
p469
aV5829
p470
aV8867
p471
aV373606
p472
aV373576
p473
aV373511
p474
aV373686
p475
aV373596
p476
aV4514
p477
aV4515
p478
aV4455
p479
aV382265
p480
aV382266
p481
aV45330
p482
aV21260
p483
aV270458
p484
aV2804
p485
aV22975
p486
aV22998
p487
aV3844
p488
aV3491
p489
aV3383
p490
aV182303
p491
aV246954
p492
aV226751
p493
aV148
p494
aV195
p495
aV250
p496
aV3616
p497
aV26660
p498
aV202549
p499
aV202529
p500
aV369042
p501
aV368962
p502
aV5148
p503
aV1571
p504
aV1437
p505
aV139427
p506
aV139435
p507
aV139685
p508
aV142361
p509
aV143683
p510
aV145803
p511
aV145964
p512
aV146170
p513
aV146584
p514
aV205059
p515
aV2966
p516
aV10509
p517
aV10518
p518
aV10599
p519
aV108840
p520
aV4382
p521
aV25945
p522
aV245299
p523
aV262696
p524
aV262847
p525
aV262697
p526
aV262677
p527
aV262687
p528
asS'texts'
p529
(lp530
VReveal the top five cards of your library. An opponent separates those cards into two piles. Put one pile into your hand and the other into your graveyard.
p531
aVFlying<br>Sacrifice a creature: Fallen Angel gets +2/+1 until end of turn.
p532
aVWhen False Prophet dies, exile all creatures.
p533
aVTrample<br>When Faultgrinder enters the battlefield, destroy target land.<br>Evoke {4}{R} <i>(You may cast this spell for its evoke cost. If you do, it's sacrificed when it enters the battlefield.)</i>
p534
aVEnchant creature<br>{R}: Enchanted creature gets +1/+0 until end of turn.
p535
aVDestroy all Plains.
p536
aVEnchant creature<br>Enchanted creature has flying.
p537
aVReturn to the battlefield all permanent cards in your graveyard that were put there from the battlefield this turn.
p538
aVIslandwalk <i>(This creature can't be blocked as long as defending player controls an Island.)</i><br>Harbor Serpent can't attack unless there are five or more Islands on the battlefield.
p539
aVDestroy target creature with flying.
p540
aV{T}: Draw a card and reveal it. If it isn't a land card, discard it.
p541
aVUntil end of turn, target creature you control gains trample and gets +X/+0, where X is its power. Sacrifice it at the beginning of the next end step.
p542
aVAn opponent chooses one- You draw three cards; or you destroy up to two target creatures that opponent controls and that player draws up to three cards. Those creatures can't be regenerated.
p543
aVEnchant creature<br>When enchanted creature dies, return that card to the battlefield under your control.
p544
aVTarget creature gets +2/+0 until end of turn.<br><br>Draw a card at the beginning of the next turn's upkeep.
p545
aVTrample<br>Tribute 1 <i>(As this creature enters the battlefield, an opponent of your choice may place a +1/+1 counter on it.)</i><br>When Fanatic of Xenagos enters the battlefield, if tribute wasn't paid, it gets +1/+1 and gains haste until end of turn.
p546
aVWhenever an opponent draws a card, Fate Unraveler deals 1 damage to that player.
p547
aVFated Conflagration deals 5 damage to target creature or planeswalker. If it's your turn, scry 2. <i>(Look at the top two cards of your library, then put any number of them on the bottom of your library and the rest on top in any order.)</i>
p548
aVPut a token onto the battlefield that's a copy of target creature you control. If it's your turn, scry 2. <i>(Look at the top two cards of your library, then put any number of them on the bottom of your library and the rest on top in any order.)</i>
p549
aVPut two 3/3 green Centaur enchantment creature tokens onto the battlefield. If it's your turn, scry 2. <i>(Look at the top two cards of your library, then put any number of them on the bottom of your library and the rest on top in any order.)</i>
p550
aVDestroy all creatures and planeswalkers. If it's your turn, scry 2. <i>(Look at the top two cards of your library, then put any number of them on the bottom of your library and the rest on top in any order.)</i>
p551
aVPut target creature card from a graveyard onto the battlefield under your control. It gains indestructible. If it's your turn, scry 2. <i>(Look at the top two cards of your library, then put any number of them on the bottom of your library and the rest on top in any order.)</i>
p552
aVEnchant creature<br>Enchanted creature gets +2/+2 and has "{2}{R}: Target creature can't block this creature this turn."
p553
aVG
p554
aVFaerie Conclave enters the battlefield tapped.<br>{T}: Add {U} to your mana pool.<br>{1}{U}: Faerie Conclave becomes a 2/1 blue Faerie creature with flying until end of turn. It's still a land. <i>(It can't be blocked except by creatures with flying or reach.)</i>
p555
ag554
aVCreatures without flying can't block this turn.
p556
aVFamine deals 3 damage to each creature and each player.
p557
aVYou may play any number of lands on each of your turns.<br>Whenever you play a land, if it wasn't the first land you played this turn, Fastbond deals 1 damage to you.
p558
aVYou may sacrifice two Mountains rather than pay Fireblast's mana cost.<br>Fireblast deals 4 damage to target creature or player.
p559
aVCreatures you control have haste.<br>Sacrifice Fires of Yavimaya: Target creature gets +2/+2 until end of turn.
p560
aV{B}, Sacrifice a Goblin: Facevaulter gets +2/+2 until end of turn.
p561
aVFlying<br>Discard Faerie Macabre: Exile up to two target cards from graveyards.
p562
aVFlying<br>When Faerie Mechanist enters the battlefield, look at the top three cards of your library. You may reveal an artifact card from among them and put it into your hand. Put the rest on the bottom of your library in any order.
p563
aVAt the beginning of your upkeep, put a hunger counter on Fasting. Then destroy Fasting if it has five or more hunger counters on it.<br>If you would begin your draw step, you may skip that step instead. If you do, you gain 2 life.<br>When you draw a card, destroy Fasting.
p564
aVWhenever an artifact is put into a graveyard from the battlefield, you may gain 5 life.
p565
aVEnchant creature<br>Whenever enchanted creature attacks and isn't blocked, its controller may have it deal damage equal to its power plus 2 to another target creature. If that player does, the attacking creature assigns no combat damage this turn.
p566
aVWhenever Farrel's Zealot attacks and isn't blocked, you may have it deal 3 damage to target creature. If you do, Farrel's Zealot assigns no combat damage this turn.
p567
aV{1}: Add {W} to your mana pool. If this ability has been activated four or more times this turn, sacrifice Farrelite Priest at the beginning of the next end step.
p568
aVWhenever Farrel's Zealot attacks and isn't blocked, you may have it deal 3 damage to target creature. If you do, Farrel's Zealot assigns no combat damage this turn.
p569
aVWhenever Farrel's Zealot attacks and isn't blocked, you may have it deal 3 damage to target creature. If you do, Farrel's Zealot assigns no combat damage this turn.
p570
aVUntil end of turn, spells and abilities you control that would add colored mana to your mana pool add that much white mana instead. Until end of turn, you may spend white mana as though it were mana of any color.<br><br>Draw a card.
p571
aVFamine deals 3 damage to each creature and each player.
p572
aV{T}: Add to your mana pool one mana of any color that a land an opponent controls could produce.
p573
aVTarget creature gets +2/+0 until end of turn.<br><br>Draw a card at the beginning of the next turn's upkeep.
p574
aVReturn target creature card from your graveyard to the battlefield.
p575
aV{2}, {T}: Target creature gains flying until end of turn.
p576
aVAt the beginning of your upkeep, put a spore counter on Feral Thallid.<br><br>Remove three spore counters from Feral Thallid: Regenerate Feral Thallid.
p577
aVFlying<br>When Fire Dragon enters the battlefield, it deals damage equal to the number of Mountains you control to target creature.
p578
aVEnchant creature<br>As long as enchanted creature is green, it gets +1/+1 and has vigilance.<br>As long as enchanted creature is blue, it gets +1/+1 and has flying.
p579
aVWhenever you cast a green spell, you may put a 2/2 green Wolf creature token onto the battlefield.<br>Whenever you cast a blue spell, you may put a 1/1 blue Bird creature token with flying onto the battlefield.
p580
aV{2}: Target black creature gains wither until end of turn. <i>(It deals damage to creatures in the form of -1/-1 counters.)</i>
p581
aVFiery Fall deals 5 damage to target creature.<br>Basic landcycling {1}{R} <i>({1}{R}, Discard this card: Search your library for a basic land card, reveal it, and put it into your hand. Then shuffle your library.)</i>
p582
aVSwampwalk <i>(This creature can't be blocked as long as defending player controls a Swamp.)</i>
p583
aVCreatures you control with flying get +1/+1.
p584
aVHaste<br>When Fervent Cathar enters the battlefield, target creature can't block this turn.
p585
aVWhenever a source an opponent controls deals damage to you, if Farsight Mask is untapped, you may draw a card.
p586
aVDraw two cards, then discard two cards.<br>Flashback {2}{R} <i>(You may cast this card from your graveyard for its flashback cost. Then exile it.)</i>
p587
aVUntil end of turn, whenever a player gains life, that player loses 2 life for each 1 life he or she gained.
p588
aVProtection from Clerics<br>Morph {4}{B} <i>(You may cast this face down as a 2/2 creature for {3}. Turn it face up any time for its morph cost.)</i>
p589
aVExile target card from a graveyard.<br>Cycling {B} <i>({B}, Discard this card: Draw a card.)</i>
p590
aVFlying<br>Remove a ki counter from Kaiso, Memory of Loyalty: Prevent all damage that would be dealt to target creature this turn.
p591
aVReveal the top five cards of your library. An opponent separates those cards into two piles. Put one pile into your hand and the other into your graveyard.
p592
aVWhen False Prophet dies, exile all creatures.
p593
aVTarget player skips his or her next draw step.
p594
aVEnchant permanent<br>When Faith's Fetters enters the battlefield, you gain 4 life.<br>Enchanted permanent's activated abilities can't be activated unless they're mana abilities. If enchanted permanent is a creature, it can't attack or block.
p595
aV{R}, Sacrifice Barbarian Riftcutter: Destroy target land.
p596
aVFaerie Conclave enters the battlefield tapped.<br>{T}: Add {U} to your mana pool.<br>{1}{U}: Faerie Conclave becomes a 2/1 blue Faerie creature with flying until end of turn. It's still a land.
p597
aVFamine deals 3 damage to each creature and each player.
p598
aVWhen Farhaven Elf enters the battlefield, you may search your library for a basic land card and put it onto the battlefield tapped. If you do, shuffle your library.
p599
aV{1}{B}, Sacrifice Famished Ghoul: Exile up to two target cards from a single graveyard.
p600
aVTarget player exiles all land cards from his or her graveyard.
p601
aVShadow <i>(This creature can block or be blocked by only creatures with shadow.)</i><br>When Faceless Devourer enters the battlefield, exile another target creature with shadow.<br>When Faceless Devourer leaves the battlefield, return the exiled card to the battlefield under its owner's control.
p602
aVEnchant creature<br>Enchanted creature has flying and "Sacrifice a creature: This creature gets +2/+1 until end of turn."<br>When Fallen Ideal is put into a graveyard from the battlefield, return Fallen Ideal to its owner's hand.
p603
aVMorph\u2014Return two Islands you control to their owner's hand. <i>(You may cast this face down as a 2/2 creature for {3}. Turn it face up any time for its morph cost.)</i><br>When Fathom Seer is turned face up, draw two cards.
p604
aVSearch your library for an instant card with converted mana cost 3, reveal it, and put it into your hand. Then repeat this process for instant cards with converted mana costs 2 and 1. Then shuffle your library.
p605
ag554
aVEvolve <i>(Whenever a creature enters the battlefield under your control, if that creature has greater power or toughness than this creature, put a +1/+1 counter on this creature.)</i><br>Whenever a +1/+1 counter is placed on Fathom Mage, you may draw a card.
p606
aVFor each creature, its controller sacrifices a permanent unless he or she pays {1}.
p607
aVCast False Orders only during the declare blockers step. <br>Remove target creature defending player controls from combat. Creatures it was blocking that had become blocked by only that creature this combat become unblocked. You may have it block an attacking creature of your choice.
p608
aVEnchant creature<br>Enchanted creature has flying.
p609
aVPrevent all combat damage that would be dealt this turn.
p610
aV{1}{G}: Folk of the Pines gets +1/+0 until end of turn.
p611
aVSearch your library for a basic land card and put that card onto the battlefield tapped. Then shuffle your library.<br>Threshold- If seven or more cards are in your graveyard, instead search your library for three basic land cards and put them onto the battlefield tapped. Then shuffle your library.
p612
aVPut the top seven cards of your library into your graveyard. At the beginning of the next end step, exile seven cards from your graveyard.
p613
aVWhen Faceless Butcher enters the battlefield, exile target creature other than Faceless Butcher.<br>When Faceless Butcher leaves the battlefield, return the exiled card to the battlefield under its owner's control.
p614
aV{T}: Add {G}{G} to your mana pool.
p615
aVDestroy target creature that was dealt damage this turn. It can't be regenerated.
p616
aVLook at target player's hand and choose two cards from it. Put them on top of that player's library in any order.
p617
aVFlying <i>(This creature can't be blocked except by creatures with flying or reach.)</i><br>When Fog Elemental attacks or blocks, sacrifice it at end of combat.
p618
aVAt the beginning of each opponent's upkeep, that player chooses draw step, main phase, or combat phase. The player skips each instance of the chosen step or phase this turn.
p619
aVTrample
p620
aVWhenever a source an opponent controls deals damage to you, if Farsight Mask is untapped, you may draw a card.
p621
aVSearch your library for an artifact card, reveal it, and put it into your hand. Then shuffle your library.
p622
aVYou may discard an Island card and another card rather than pay Foil's mana cost.<br>Counter target spell.
p623
aVCounter target spell that targets you or a permanent you control.<br>Draw a card.
p624
ag554
ag554
aVSacrifice a land: Fault Riders gets +2/+0 and gains first strike until end of turn. Activate this ability only once each turn.
p625
aVFaerie Conclave enters the battlefield tapped.<br>{T}: Add {U} to your mana pool.<br>{1}{U}: Faerie Conclave becomes a 2/1 blue Faerie creature with flying until end of turn. It's still a land. <i>(It can't be blocked except by creatures with flying or reach.)</i>
p626
aVWhenever Fangren Firstborn attacks, put a +1/+1 counter on each attacking creature.
p627
aVWhen False Prophet dies, exile all creatures.
p628
aVChainbreaker enters the battlefield with two -1/-1 counters on it.<br>{3}, {T}: Remove a -1/-1 counter from target creature.
p629
aVWhen Murderous Redcap enters the battlefield, it deals damage equal to its power to target creature or player.<br>Persist <i>(When this creature dies, if it had no -1/-1 counters on it, return it to the battlefield under its owner's control with a -1/-1 counter on it.)</i>
p630
aVFlying
p631
aVTrample<br>Whenever Spawnwrithe deals combat damage to a player, put a token that's a copy of Spawnwrithe onto the battlefield.
p632
aVInfect <i>(This creature deals damage to creatures in the form of -1/-1 counters and to players in the form of poison counters.)</i><br>{1}{R}, {T}: Fallen Ferromancer deals 1 damage to target creature or player.
p633
aVAll creatures able to block target creature this turn do so.
p634
aVWhenever Fangren Pathcutter attacks, attacking creatures gain trample until end of turn.
p635
aVEnchant creature<br>When enchanted creature is turned face up, destroy it. It can't be regenerated.
p636
aVWhenever a creature dies, tap all untapped creatures that share a creature type with it or untap all tapped creatures that share a creature type with it.
p637
aVDestroy target nonblack creature.<br>At the beginning of your next upkeep, pay {2}{B}. If you don't, you lose the game.
p638
aVFlying<br>When Sea Drake enters the battlefield, return two target lands you control to their owner's hand.
p639
aVSearch your library for an artifact card, reveal it, and put it into your hand. Then shuffle your library.
p640
aVCreatures without flying can't block this turn.
p641
aVUntil end of turn, lands you control gain "Sacrifice this land: Add {B} to your mana pool."
p642
aVDefender <i>(This creature can't attack.)</i><br>Whenever Wall of Junk blocks, return it to its owner's hand at end of combat. <i>(Return it only if it's on the battlefield.)</i>
p643
aVWhen Fanatic of Mogis enters the battlefield, it deals damage to each opponent equal to your devotion to red. <i>(Each {R} in the mana costs of permanents you control counts toward your devotion to red.)</i>
p644
aVEnchant creature<br>When Fate Foretold enters the battlefield, draw a card.<br>When enchanted creature dies, its controller draws a card.
p645
aVHeroic- Whenever you cast a spell that targets Favored Hoplite, put a +1/+1 counter on Favored Hoplite and prevent all damage that would be dealt to it this turn.
p646
aVFlash <i>(You may cast this spell any time you could cast an instant.)</i><br>Enchant creature<br>Enchanted creature gets +2/+2.
p647
aVWhenever Firedrinker Satyr is dealt damage, it deals that much damage to you.<br>{1}{R}: Firedrinker Satyr gets +1/+0 until end of turn and deals 1 damage to you.
p648
aVWhen Fallow Wurm enters the battlefield, sacrifice it unless you discard a land card.
p649
aVEach creature you control can't be blocked by more than one creature.
p650
aVDestroy target creature that was dealt damage this turn. It can't be regenerated.
p651
aVReveal the top five cards of your library. An opponent separates those cards into two piles. Put one pile into your hand and the other into your graveyard.
p652
aVCreatures you control with flying get +1/+1.
p653
aVWhen Death Pit Offering enters the battlefield, sacrifice all creatures you control.<br>Creatures you control get +2/+2.
p654
aVSacrifice a creature: Regenerate target creature.
p655
aVWhen Faceless Butcher enters the battlefield, exile target creature other than Faceless Butcher.<br>When Faceless Butcher leaves the battlefield, return the exiled card to the battlefield under its owner's control.
p656
aVFlying<br>{R}: Fire Drake gets +1/+0 until end of turn. Activate this ability only once each turn.
p657
aVKicker {3}{U} <i>(You may pay an additional {3}{U} as you cast this spell.)</i><br>If Faerie Squadron was kicked, it enters the battlefield with two +1/+1 counters on it and with flying.
p658
aVReveal the top five cards of your library. An opponent separates those cards into two piles. Put one pile into your hand and the other into your graveyard.
p659
aV{R}: Flame Spirit gets +1/+0 until end of turn.
p660
aVEnchant creature<br>Enchanted creature gets +1/+2 as long as it's white.<br>Enchanted creature has shroud as long as its controller controls another creature. <i>(It can't be the target of spells or abilities.)</i>
p661
aV{T}: Femeref Archers deals 4 damage to target attacking creature with flying.
p662
aVWhenever a creature you control dies, target opponent loses 1 life and you gain 1 life.
p663
aVFlying, haste<br>Whenever Falkenrath Marauders deals combat damage to a player, put two +1/+1 counters on it.
p664
aVFlying<br>Whenever Falkenrath Noble or another creature dies, target player loses 1 life and you gain 1 life.
p665
aVAs long as Gaea's Liege isn't attacking, its power and toughness are each equal to the number of Forests you control. As long as Gaea's Liege is attacking, its power and toughness are each equal to the number of Forests defending player controls.<br>{T}: Target land becomes a Forest until Gaea's Liege leaves the battlefield.
p666
aVReach <i>(This creature can block creatures with flying.)</i>
p667
aV{T}: Look at target player's hand.
p668
aVSacrifice a nontoken permanent. If you do, target opponent loses 2 life unless he or she sacrifices a permanent or discards a card. You may repeat this process any number of times.
p669
aVFlying
p670
aVFire Tempest deals 6 damage to each creature and each player.
p671
aVFireball deals X damage divided evenly, rounded down, among any number of target creatures and/or players.<br>Fireball costs {1} more to cast for each target beyond the first.
p672
aVMonocolored creatures can't block this turn.
p673
aVFlying<br>Whenever you cast an instant or sorcery spell, you may switch Fluxcharger's power and toughness until end of turn.
p674
aVBuyback {3} <i>(You may pay an additional {3} as you cast this spell. If you do, put this card into your hand as it resolves.)</i><br>Fanning the Flames deals X damage to target creature or player.
p675
aVFlying<br>If Firestorm Phoenix would die, return Firestorm Phoenix to its owner's hand instead. Until that player's next turn, that player plays with that card revealed in his or her hand and can't play it.
p676
aV{T}, Sacrifice a creature: Return target creature card from your graveyard to the battlefield. Activate this ability only during your upkeep.
p677
aVFlash<br>Flying<br>When Faerie Harbinger enters the battlefield, you may search your library for a Faerie card, reveal it, then shuffle your library and put that card on top of it.
p678
aVCounter target non-Faerie spell. If that spell is countered this way, exile it instead of putting it into its owner's graveyard.
p679
aVWhenever you cast a spell during an opponent's turn, you may have each opponent lose 1 life.
p680
aV{B}, Sacrifice a Goblin: Facevaulter gets +2/+2 until end of turn.
p681
aVEach creature with the highest converted mana cost has protection from all colors.
p682
aVWhenever Fallowsage becomes tapped, you may draw a card.
p683
aVTrample<br>When Faultgrinder enters the battlefield, destroy target land.<br>Evoke {4}{R} <i>(You may cast this spell for its evoke cost. If you do, it's sacrificed when it enters the battlefield.)</i>
p684
aVChoose one- All creatures get +2/+0 until end of turn; or all creatures get -0/-2 until end of turn.
p685
aVReturn target card from your graveyard to your hand. Clash with an opponent. If you win, untap all Forests you control. <i>(Each clashing player reveals the top card of his or her library, then puts that card on the top or bottom. A player wins if his or her card had a higher converted mana cost.)</i><br>Exile Woodland Guidance.
p686
aVCounter target red or green spell.
p687
aVFlying<br>Other Faerie creatures you control get +0/+1.<br>{T}: Other Faerie creatures you control get +1/+0 until end of turn.
p688
aVCreatures you control get +2/+0 until end of turn.
p689
aVYou may have Wolf Pack assign its combat damage as though it weren't blocked.
p690
aVHexproof <i>(This creature can't be the target of spells or abilities your opponents control.)</i><br>Zuo Ci, the Mocking Sage can't be blocked by creatures with horsemanship.
p691
aVWhen Faceless Butcher enters the battlefield, exile target creature other than Faceless Butcher.<br>When Faceless Butcher leaves the battlefield, return the exiled card to the battlefield under its owner's control.
p692
aVDestroy target nonblack creature.
p693
aVKicker\u2014Sacrifice a land. <i>(You may sacrifice a land in addition to any other costs as you cast this spell.)</i><br>Prevent all combat damage target creature would deal this turn. If Falling Timber was kicked, prevent all combat damage another target creature would deal this turn.
p694
aVDraw two cards, then discard two cards.<br>Flashback {2}{R} <i>(You may cast this card from your graveyard for its flashback cost. Then exile it.)</i>
p695
aVTarget permanent you control gains protection from the color of your choice until end of turn.<br>Fateful hour- If you have 5 or less life, instead you and each permanent you control gain protection from the color of your choice until end of turn.
p696
aVFlying, haste<br>Sacrifice a creature: Falkenrath Aristocrat gains indestructible until end of turn. If the sacrificed creature was a Human, put a +1/+1 counter on Falkenrath Aristocrat.
p697
aVSacrifice a creature: Falkenrath Torturer gains flying until end of turn. If the sacrificed creature was a Human, put a +1/+1 counter on Falkenrath Torturer.
p698
aVWhen Farbog Boneflinger enters the battlefield, target creature gets -2/-2 until end of turn.
p699
aVEnchant creature<br>Whenever enchanted creature blocks, you gain 3 life.
p700
asS'costs'
p701
(lp702
V{3}{U}
p703
aV{3}{B}{B}
p704
aV{2}{W}{W}
p705
aV{6}{R}
p706
aV{R}
p707
aV{W}{W}{W}
p708
aV{G}
p709
aV{W}
p710
aV{1}{U}
p711
aV{5}{G}{G}
p712
aV{1}{G}
p713
aV{2}{R}
p714
aV{2}{B}{B}
p715
aV{2}{U}
p716
aV{2}{U}
p717
aV{1}{R}
p718
aV{1}{R}{G}
p719
aV{3}{B}
p720
aV{1}{R}{R}{R}
p721
aV{U}{U}{U}
p722
aV{2}{G}{G}{G}
p723
aV{4}{W}{W}{W}
p724
aV{4}{B}{B}{B}
p725
aV{1}{U}
p726
aS'0'
p727
aV{2}{U}
p728
aV{2}{B}
p729
aV{3}{U}
p730
aV{1}{B}
p731
aV{1}{R}
p732
aV{3}{B}{B}
p733
aV{B}
p734
aV{1}{B}{B}
p735
aV{2}{B}
p736
aV{W}
p737
aV{5}{G}
p738
aV{2}{W}
p739
aV{1}{W}{W}
p740
aV{1}{W}{W}
p741
aV{1}{W}{W}
p742
aV{1}{W}{W}
p743
aV{1}{W}
p744
aV{2}{G}
p745
aV{3}{W}
p746
aV{3}{B}{B}
p747
aV{W}{W}{W}
p748
aV{G}
p749
aV{2}{W}
p750
aV{1}{W}{W}
p751
aV{1}{G/U}
p752
aV{3}{G/U}{G/U}{G/U}
p753
aV{2}
p754
aV{3}{U}
p755
aV{3}{B}
p756
aV{4}{B}
p757
aV{1}{R}
p758
aV{5}
p759
aV{R}
p760
aV{B}{B}
p761
aV{4}{B}
p762
aV{B}
p763
aV{1}{W}{W}
p764
aV{3}{U}
p765
aV{2}{W}{W}
p766
aV{1}{U}
p767
aV{3}{W}
p768
aV{1}{G}
p769
ag727
aV{3}{B}{B}
p770
aV{2}{G}
p771
aV{3}{B}
p772
aV{5}{B}
p773
aV{2}{B}
p774
aV{2}{B}
p775
aV{1}{U}
p776
aV{U}
p777
aV{3}{W}{U}
p778
aV{G}
p779
aV{2}{U}
p780
aV{R}
p781
aV{W}{W}{W}
p782
aV{G}
p783
aV{2}{G}{G}
p784
aV{2}{G}
p785
aV{1}{U}
p786
aV{2}{B}{B}
p787
aV{2}{G}
p788
aV{2}{G}
p789
aV{B}
p790
aV{3}{B}{B}
p791
aV{1}{U}{U}
p792
aV{3}{G}{G}
p793
aV{5}
p794
aV{2}{U}
p795
aV{0}
p796
aV{4}{B}
p797
aV{3}{B}{B}
p798
aV{2}{G}
p799
aV{2}{R}
p800
ag727
aV{1}{G}{G}{G}
p801
aV{2}{W}{W}
p802
aV{1}{U/B}
p803
aV{2}{G}
p804
aV{1}{B}{B}
p805
aV{3}{U}
p806
aV{3}{R}
p807
aV{W}
p808
aV{4}{G}{G}
p809
aV{B}
p810
aV{2}{U}
p811
aV{2}{R}
p812
aV{1}{U}
p813
aV{2}{U}
p814
aV{1}{R}
p815
aV{1}{W}
p816
aV{X}{R}{R}
p817
aV{3}{B}
p818
aV{4}{W}{W}
p819
aV{1}{W}{W}
p820
aV{2}{G}
p821
aV{3}{R}
p822
aV{2}{G}
p823
aV{2}{G}
p824
aV{B}
p825
aV{3}{U}{B}
p826
aV{3}{U}
p827
aV{3}{B}{B}
p828
aV{2}{W}
p829
aV{2}{B}{B}
p830
aV{3}{B}{B}
p831
aV{U}
p832
aV{3}{U}
p833
aV{3}{B}{B}
p834
aV{1}{W}
p835
aV{2}{G}
p836
ag727
aV{3}{R}{R}
p837
aV{3}{B}
p838
aV{G}
p839
aV{R}
p840
aV{W}{W}{W}
p841
aV{1}{B}
p842
aV{3}{B}{B}
p843
aV{1}{U}
p844
aV{G}
p845
aV{2}{B}
p846
aV{3}{B}
p847
aV{X}{R}{R}
p848
aV{2}{R}
p849
aV{3}{B}{B}
p850
aV{3}{U}
p851
aV{1}{U}{U}
p852
aV{2}{B}
p853
aV{W}
p854
aV{1}{B}
p855
aV{4}{G}{G}
p856
aV{2}{W}
p857
aV{4}{G}
p858
aV{3}{B}
p859
aV{R}{R}
p860
aV{2}{G}
p861
aV{3}{W}
p862
aV{3}{B}{B}
p863
aV{G}
p864
aV{2}{B}{B}
p865
aV{W}
p866
aV{2}{G}
p867
aV{R}
p868
aV{W}
p869
aV{2}{B}{R}
p870
aV{2}{B}
p871
aV{4}{B}
p872
aV{2}{G}
p873
asS'names'
p874
(lp875
VFact or Fiction
p876
aVFallen Angel
p877
aVFalse Prophet
p878
aVFaultgrinder
p879
aVFalse Orders
p880
aVFarmstead
p881
aVFastbond
p882
aVFaith's Reward
p883
aVFaerie Invaders
p884
aVFarseek
p885
aVFa'adiyah Seer
p886
aVFatal Frenzy
p887
aVFatal Lore
p888
aVFalse Demise
p889
aVFalse Demise
p890
aVFall of the Hammer
p891
aVFanatic of Xenagos
p892
aVFate Unraveler
p893
aVFated Conflagration
p894
aVFated Infatuation
p895
aVFated Intervention
p896
aVFated Retribution
p897
aVFated Return
p898
aVFabricate
p899
aVFaerie Conclave
p900
aVFalse Demise
p901
aVFact or Fiction
p902
aVFallen Askari
p903
aVFalter
p904
aVFamine
p905
aVFastbond
p906
aVFacevaulter
p907
aVFaerie Macabre
p908
aVFaerie Mechanist
p909
aVFasting
p910
aVFangren Marauder
p911
aVFarrel's Mantle
p912
aVFarrel's Zealot
p913
aVFarrelite Priest
p914
aVFarrel's Zealot
p915
aVFarrel's Zealot
p916
aVFalse Dawn
p917
aVFaerie Noble
p918
aVFalse Defeat
p919
aVFamine
p920
aVFarmstead
p921
aVFastbond
p922
aVFarrel's Mantle
p923
aVFarrel's Zealot
p924
aVFavor of the Overbeing
p925
aVFable of Wolf and Owl
p926
aVFang Skulkin
p927
aVFaerie Mechanist
p928
aVFalkenrath Exterminator
p929
aVFarbog Explorer
p930
aVFavorable Winds
p931
aVFarsight Mask
p932
aVFaithless Looting
p933
aVFalse Cure
p934
aVFallen Cleric
p935
aVFade from Memory
p936
aVFaithful Squire (Kaiso, Memory of Loyalty)
p937
aVFact or Fiction
p938
aVFalse Prophet
p939
aVFatigue
p940
aVFaith's Fetters
p941
aVFarseek
p942
aVFaerie Conclave
p943
aVFamine
p944
aVFarhaven Elf
p945
aVFamished Ghoul
p946
aVFace of Fear
p947
aVFaceless Devourer
p948
aVFallen Ideal
p949
aVFathom Seer
p950
aVFaerie Impostor
p951
aVFall of the Gavel
p952
aVFathom Mage
p953
aVFade Away
p954
aVFalse Orders
p955
aVFarmstead
p956
aVFastbond
p957
aVFanatical Fever
p958
aVFar Wanderings
p959
aVFalse Memories
p960
aVFaceless Butcher
p961
aVFamiliar Ground
p962
aVFallow Earth
p963
aVFatal Blow
p964
aVFallen Angel
p965
aVFatespinner
p966
aVFangren Hunter
p967
aVFarsight Mask
p968
aVFabricate
p969
aVFaerie Mechanist
p970
aVFatestitcher
p971
aVFallen Angel
p972
aVFamiliar Ground
p973
aVFault Riders
p974
aVFaerie Conclave
p975
aVFangren Firstborn
p976
aVFalse Prophet
p977
aVFate Transfer
p978
aVFarhaven Elf
p979
aVFaerie Macabre
p980
aVFaerie Swarm
p981
aVFallen Ferromancer
p982
aVFalse Peace
p983
aVFangren Pathcutter
p984
aVFatal Mutation
p985
aVFaces of the Past
p986
aVFatal Attraction
p987
aVFalse Summoning
p988
aVFabricate
p989
aVFalter
p990
aVFaith Healer
p991
aVFault Line
p992
aVFabled Hero
p993
aVFade into Antiquity
p994
aVFanatic of Mogis
p995
aVFate Foretold
p996
aVFavored Hoplite
p997
aVFallow Wurm
p998
aVFamiliar Ground
p999
aVFatal Blow
p1000
aVFact or Fiction
p1001
aVFavorable Winds
p1002
aVFallen Angel
p1003
aVFanatical Devotion
p1004
aVFaceless Butcher
p1005
aVFallen Angel
p1006
aVFaerie Squadron
p1007
aVFact or Fiction
p1008
aVFallen Angel
p1009
aVFavorable Destiny
p1010
aVFallow Earth
p1011
aVFallen Angel Avatar
p1012
aVFalkenrath Marauders
p1013
aVFalkenrath Noble
p1014
aVFastbond
p1015
aVFalse Orders
p1016
aVFarmstead
p1017
aVFallen Askari
p1018
aVFallen Angel
p1019
aVFalse Summoning
p1020
aVFastbond
p1021
aVFar // Away (Away)
p1022
aVFatal Fumes
p1023
aVFanning the Flames
p1024
aVFalling Star
p1025
aVFallen Angel
p1026
aVFaerie Harbinger
p1027
aVFaerie Trickery
p1028
aVFaerie Tauntings
p1029
aVFacevaulter
p1030
aVFavor of the Mighty
p1031
aVFallowsage
p1032
aVFaultgrinder
p1033
aVFathom Trawl
p1034
aVFamiliar's Ruse
p1035
aVFauna Shaman
p1036
aVFaerie Noble
p1037
aVFalse Defeat
p1038
aVFamine
p1039
aVFalse Mourning
p1040
aVFaceless Butcher
p1041
aVFalse Peace
p1042
aVFalling Timber
p1043
aVFaithless Looting
p1044
aVFaith's Shield
p1045
aVFalkenrath Aristocrat
p1046
aVFalkenrath Torturer
p1047
aVFarbog Boneflinger
p1048
aVFavor of the Woods
p1049
asS'toughs'
p1050
(lp1051
S'N/A'
p1052
aV3
p1053
aV2
p1054
aV4
p1055
ag1052
ag1052
ag1052
ag1052
aV1
p1056
ag1052
ag1056
ag1052
ag1052
ag1052
ag1052
ag1052
ag1054
ag1052
ag1052
ag1052
ag1052
ag1052
ag1052
ag1052
ag1052
ag1052
ag1052
aV5
p1057
ag1052
ag1052
ag1052
ag1056
ag1053
ag1052
ag1052
ag1055
ag1052
ag1054
ag1053
ag1054
ag1054
ag1052
ag1056
ag1052
ag1052
ag1052
ag1052
ag1052
ag1054
ag1052
ag1052
ag1052
ag1052
ag1053
ag1056
ag1052
ag1052
ag1052
ag1052
ag1054
ag1052
ag1055
ag1052
ag1054
ag1052
ag1052
ag1052
ag1052
ag1052
ag1057
ag1054
ag1054
ag1056
ag1052
ag1053
ag1056
ag1052
ag1055
ag1052
ag1052
ag1052
ag1052
ag1052
ag1052
ag1052
ag1053
ag1052
ag1052
ag1052
ag1054
ag1054
ag1056
ag1052
ag1052
ag1052
ag1053
ag1056
ag1052
ag1054
ag1052
ag1057
ag1055
ag1052
ag1053
ag1053
ag1055
ag1054
ag1052
ag1057
ag1052
ag1052
ag1052
ag1052
ag1052
ag1052
ag1055
ag1052
ag1057
ag1052
aV10
p1058
ag1052
ag1053
aV9
p1059
ag1052
ag1052
ag1052
ag1052
ag1053
ag1052
ag1053
ag1054
ag1056
ag1052
ag1054
ag1052
ag1052
ag1052
aV6
p1060
aV0
p1061
ag1052
ag1052
ag1052
ag1054
ag1053
ag1052
ag1052
ag1052
ag1052
ag1052
ag1052
ag1060
ag1054
ag1052
ag1052
ag1056
ag1052
ag1056
ag1054
ag1052
ag1052
ag1054
ag1056
ag1052
ag1052
ag1052
ag1053
ag1052
ag1052
ag1052
ag1052
ag1056
ag1056
ag1056
ag1052
asS'artists'
p1062
(lp1063
VMatt Cavotta
p1064
aVMatthew D. Wilson
p1065
aVEric Peterson
p1066
aVAnthony S. Waters
p1067
aVAnson Maddocks
p1068
aVMark Poole
p1069
aVMark Poole
p1070
aVRaymond Swanland
p1071
aVRyan Pancoast
p1072
aVMartina Pilcerova
p1073
aVHeather Hudson
p1074
aVSteve Ellis
p1075
aVLawrence Snelly
p1076
aVRandy Gallegos
p1077
aVRandy Gallegos
p1078
aVAdam Paquette
p1079
aVVolkan Baga
p1080
aVDavid Palumbo
p1081
aVAdam Paquette
p1082
aVWinona Nelson
p1083
aVSvetlin Velinov
p1084
aVJonas De Ro
p1085
aVPeter Mohrbacher
p1086
aVWarren Mahy
p1087
aVStephan Martiniere
p1088
aVPat Morrissey
p1089
aVMatt Cavotta
p1090
aVAdrian Smith
p1091
aVMike Raabe
p1092
aVKarla Ortiz
p1093
aVNils Hamm
p1094
aS''
p1095
ag1095
ag1095
aVDouglas Shuler
p1096
ag1095
aVAnthony Waters
p1097
aVMelissa Benson
p1098
aVPhil Foglio
p1099
aVRichard Kane Ferguson
p1100
aVEdward Beard, Jr.
p1101
aVDave Dorman
p1102
aVLi Wang
p1103
aVSun Nan
p1104
aVQuinton Hoover
p1105
aVMark Poole
p1106
aVMark Poole
p1107
aVAnthony S. Waters
p1108
aVRichard Kane Ferguson
p1109
aVChippy
p1110
aVHeather Hudson
p1111
aVRon Brown
p1112
aVMatt Cavotta
p1113
aVScott Chou
p1114
aVWinona Nelson
p1115
aVSteven Belledin
p1116
ag1095
aVGabor Szikszai
p1117
aVBradley Williams
p1118
aVDave Dorman
p1119
aVDavid Martin
p1120
aVMark Zug
p1121
aVTerese Nielsen
p1122
aVEric Peterson
p1123
aVJeff Miracola
p1124
aVChippy
p1125
aVMartina Pilcerova
p1126
aVStephan Martiniere
p1127
aVKarla Ortiz
p1128
aVBrandon Kitkouski
p1129
aVAdam Rex
p1130
aVThomas M. Baxa
p1131
aVChippy
p1132
aVAnson Maddocks
p1133
aVRalph Horsley
p1134
aVJohann Bodin
p1135
aVMatt Stewart
p1136
aVRyan Pancoast
p1137
aVJeff Miracola
p1138
aVAnson Maddocks
p1139
aVMark Poole
p1140
aVMark Poole
p1141
aVJulie Baroh
p1142
aVDarrell Riche
p1143
aVRon Spencer
p1144
aVDaren Bader
p1145
aVJeff Miracola
p1146
aVJanine Johnston
p1147
aVGeorge Pratt
p1148
aVAnson Maddocks
p1149
aVrk post
p1150
aVDarrell Riche
p1151
aVBen Thompson
p1152
aVGlen Angus
p1153
aVMatt Cavotta
p1154
aVE. M. Gist
p1155
aVArnie Swekel
p1156
aVThomas Gianni
p1157
aVDave Dorman
p1158
aVVal Mayerik
p1159
aVTim Hildebrandt
p1160
aVEric Peterson
p1161
aVWayne England
p1162
aVBrandon Kitkouski
p1163
aVrk post
p1164
aVZoltan Boros & Gabor Szikszai
p1165
ag1095
aVZina Saunders
p1166
aVRob Alexander
p1167
aVErica Gassalasca-Jape
p1168
aVWayne England
p1169
aVZoltan Boros & Gabor Szikszai
p1170
aVDiTerlizzi
p1171
aVGlen Angus
p1172
aVMike Raabe
p1173
aVRandy Gallegos
p1174
aVRon Spencer
p1175
aVAaron Miller
p1176
aVNoah Bradley
p1177
aVMatt Stewart
p1178
aVDan Scott
p1179
aVWinona Nelson
p1180
aVStephen L. Walsh
p1181
aVJeff Miracola
p1182
aVGeorge Pratt
p1183
aVMatt Cavotta
p1184
aVWinona Nelson
p1185
aVMatthew D. Wilson
p1186
aVMassimilano Frezzato
p1187
ag1095
aVAnson Maddocks
p1188
aVrk post
p1189
aVTerese Nielsen
p1190
aVAnson Maddocks
p1191
aVThomas Gianni
p1192
aVJanine Johnston
p1193
aVUDON
p1194
aVJames Ryman
p1195
aVSlawomir Maniak
p1196
aVMark Poole
p1197
aVAnson Maddocks
p1198
aVMark Poole
p1199
aVAdrian Smith
p1200
aVAnson Maddocks
p1201
aVDiTerlizzi
p1202
aVMark Poole
p1203
aVGreg Staples
p1204
aVKev Walker
p1205
aVRon Spencer
p1206
aVDouglas Shuler
p1207
aVAnson Maddocks
p1208
aVLarry MacDougall
p1209
aVTerese Nielsen
p1210
aVMichael Sutfin
p1211
aVWayne Reynolds
p1212
aVLarry MacDougall
p1213
aVParente
p1214
aVAnthony S. Waters
p1215
aVPaul Chadwick
p1216
aVEric Fortune
p1217
aVSteve Prescott
p1218
aVSusan Van Camp
p1219
aVLi Wang
p1220
aVSun Nan
p1221
aVKoji
p1222
aVDaren Bader
p1223
aVZina Saunders
p1224
aVEric Peterson
p1225
aVIgor Kieryluk
p1226
aVSteve Argyle
p1227
aVTomasz Jedruszek
p1228
aVTomasz Jedruszek
p1229
aVSteve Prescott
p1230
aVIgor Kieryluk
p1231
asS'powers'
p1232
(lp1233
g1052
ag1053
ag1054
ag1055
ag1052
ag1052
ag1052
ag1052
ag1053
ag1052
ag1056
ag1052
ag1052
ag1052
ag1052
ag1052
ag1053
ag1052
ag1052
ag1052
ag1052
ag1052
ag1052
ag1052
ag1052
ag1052
ag1052
ag1057
ag1052
ag1052
ag1052
ag1056
ag1053
ag1052
ag1052
ag1055
ag1052
ag1054
ag1056
ag1054
ag1054
ag1052
ag1056
ag1052
ag1052
ag1052
ag1052
ag1052
ag1054
ag1052
ag1052
ag1052
ag1052
ag1056
ag1054
ag1052
ag1052
ag1052
ag1052
ag1056
ag1052
ag1053
ag1052
ag1056
ag1052
ag1052
ag1052
ag1052
ag1052
ag1057
ag1053
ag1054
ag1054
ag1052
ag1053
ag1054
ag1052
ag1056
ag1052
ag1052
ag1052
ag1052
ag1052
ag1052
ag1052
ag1054
ag1052
ag1052
ag1052
ag1054
ag1056
ag1056
ag1052
ag1052
ag1052
ag1056
ag1056
ag1052
ag1054
ag1052
ag1057
ag1053
ag1052
ag1057
ag1054
ag1055
ag1054
ag1052
ag1057
ag1052
ag1052
ag1052
ag1052
ag1052
ag1052
ag1053
ag1052
aV10
p1234
ag1052
ag1054
ag1052
ag1054
ag1059
ag1052
ag1052
ag1052
ag1052
ag1053
ag1052
ag1054
ag1056
ag1056
ag1052
ag1056
ag1052
ag1052
ag1052
ag1060
ag1061
ag1052
ag1052
ag1052
ag1054
ag1054
ag1052
ag1052
ag1052
ag1052
ag1052
ag1052
ag1053
ag1054
ag1052
ag1052
ag1056
ag1052
ag1054
ag1055
ag1052
ag1052
ag1054
ag1054
ag1052
ag1052
ag1052
ag1054
ag1052
ag1052
ag1052
ag1052
ag1054
ag1055
ag1054
ag1052
asS'types'
p1235
(lp1236
VInstant
p1237
aVCreature - Angel
p1238
aVCreature - Human Cleric
p1239
aVCreature - Elemental
p1240
aVInstant
p1241
aVEnchantment - Aura
p1242
aVEnchantment
p1243
aVInstant
p1244
aVCreature - Faerie Rogue
p1245
aVSorcery
p1246
aVCreature - Human Shaman
p1247
aVInstant
p1248
aVSorcery
p1249
aVEnchantment - Aura
p1250
aVEnchantment - Aura
p1251
aVInstant
p1252
aVCreature - Centaur Warrior
p1253
aVEnchantment Creature - Hag
p1254
aVInstant
p1255
aVInstant
p1256
aVInstant
p1257
aVInstant
p1258
aVInstant
p1259
aVSorcery
p1260
aVLand
p1261
aVEnchantment - Aura
p1262
aVInstant
p1263
aVCreature - Human Knight
p1264
aVInstant
p1265
aVSorcery
p1266
aVEnchantment
p1267
aVCreature - Goblin Warrior
p1268
aVCreature - Faerie Rogue
p1269
aVArtifact Creature - Faerie Artificer
p1270
aVEnchantment
p1271
aVCreature - Beast
p1272
aVEnchantment - Aura
p1273
aVCreature - Human
p1274
aVCreature - Human Cleric
p1275
aVCreature - Human
p1276
aVCreature - Human
p1277
aVSorcery
p1278
aVCreature - Faerie
p1279
aVSorcery
p1280
aVSorcery
p1281
aVEnchantment - Aura
p1282
aVEnchantment
p1283
aVEnchantment - Aura
p1284
aVCreature - Human
p1285
aVEnchantment - Aura
p1286
aVEnchantment
p1287
aVArtifact Creature - Scarecrow
p1288
aVArtifact Creature - Faerie Artificer
p1289
aVCreature - Vampire Archer
p1290
aVCreature - Human Scout
p1291
aVEnchantment
p1292
aVArtifact
p1293
aVSorcery
p1294
aVInstant
p1295
aVCreature - Zombie Cleric
p1296
aVInstant
p1297
aVLegendary Creature- Spirit
p1298
aVInstant
p1299
aVCreature - Human Cleric
p1300
aVSorcery
p1301
aVEnchantment - Aura
p1302
aVSorcery
p1303
aVLand
p1304
aVSorcery
p1305
aVCreature - Elf Druid
p1306
aVCreature - Zombie
p1307
aVCreature - Horror
p1308
aVCreature - Nightmare Horror
p1309
aVEnchantment - Aura
p1310
aVCreature - Illusion
p1311
aVCreature - Faerie Rogue
p1312
aVInstant
p1313
aVCreature - Human Wizard
p1314
aVSorcery
p1315
aVInstant
p1316
aVEnchantment - Aura
p1317
aVEnchantment
p1318
aVInstant
p1319
aVSorcery
p1320
aVInstant
p1321
aVCreature - Nightmare Horror
p1322
aVEnchantment
p1323
aVSorcery
p1324
aVInstant
p1325
aVCreature - Angel
p1326
aVCreature - Human Wizard
p1327
aVCreature - Beast
p1328
aVArtifact
p1329
aVSorcery
p1330
aVArtifact Creature - Faerie Artificer
p1331
aVCreature - Zombie Wizard
p1332
aVCreature - Angel
p1333
aVEnchantment
p1334
aVCreature - Human Soldier
p1335
aVLand
p1336
aVCreature - Beast
p1337
aVCreature - Human Cleric
p1338
aVInstant
p1339
aVCreature - Elf Druid
p1340
aVCreature - Faerie Rogue
p1341
aVCreature - Faerie
p1342
aVCreature - Human Shaman
p1343
aVSorcery
p1344
aVCreature - Beast
p1345
aVEnchantment - Aura
p1346
aVEnchantment
p1347
aVEnchantment - Aura
p1348
aVInstant
p1349
aVSorcery
p1350
aVInstant
p1351
aVCreature - Human Cleric
p1352
aVInstant
p1353
aVCreature - Human Soldier
p1354
aVSorcery
p1355
aVCreature - Minotaur Shaman
p1356
aVEnchantment - Aura
p1357
aVCreature - Human Soldier
p1358
aVCreature - Wurm
p1359
aVEnchantment
p1360
aVInstant
p1361
aVInstant
p1362
aVEnchantment
p1363
aVCreature - Angel
p1364
aVEnchantment
p1365
aVCreature - Nightmare Horror
p1366
aVCreature - Angel
p1367
aVCreature - Faerie
p1368
aVInstant
p1369
aVCreature - Angel
p1370
aVEnchantment - Aura
p1371
aVSorcery
p1372
aVVanguard
p1373
aVCreature - Vampire Warrior
p1374
aVCreature - Vampire
p1375
aVEnchantment
p1376
aVInstant
p1377
aVEnchantment - Aura
p1378
aVCreature - Human Knight
p1379
aVCreature - Angel
p1380
aVInstant
p1381
aVEnchantment
p1382
aVInstant
p1383
aVInstant
p1384
aVSorcery
p1385
aVSorcery
p1386
aVCreature - Angel
p1387
aVCreature - Faerie Wizard
p1388
aVTribal Instant - Faerie
p1389
aVTribal Enchantment - Faerie
p1390
aVCreature - Goblin Warrior
p1391
aVTribal Enchantment - Giant
p1392
aVCreature - Merfolk Wizard
p1393
aVCreature - Elemental
p1394
aVSorcery
p1395
aVInstant
p1396
aVCreature - Elf Shaman
p1397
aVCreature - Faerie
p1398
aVSorcery
p1399
aVSorcery
p1400
aVSorcery
p1401
aVCreature - Nightmare Horror
p1402
aVSorcery
p1403
aVInstant
p1404
aVSorcery
p1405
aVInstant
p1406
aVCreature - Vampire
p1407
aVCreature - Vampire
p1408
aVCreature - Zombie
p1409
aVEnchantment - Aura
p1410
asS'numbers'
p1411
(lp1412
V45
p1413
aV82
p1414
aV13
p1415
aV122
p1416
aV88
p1417
aV89
p1418
aV90
p1419
aV14
p1420
aV51
p1421
aV170
p1422
aV146
p1423
aV98
p1424
aV23
p1425
aV42
p1426
aV147
p1427
aV93
p1428
aV147
p1429
aV68
p1430
aV94
p1431
aV39
p1432
aV121
p1433
aV11
p1434
aV69
p1435
aV52
p1436
aV351
p1437
aV80
p1438
aV67
p1439
aV119
p1440
aV158
p1441
aV120
p1442
aV209
p1443
ag1095
ag1095
ag1095
aV57
p1444
aV79
p1445
aV60
p1446
aV61
p1447
aV62
p1448
aV106
p1449
aV107
p1450
aV10
p1451
aV117
p1452
aV11
p1453
aV65
p1454
aV45
p1455
aV121
p1456
aV13
p1457
aV14
p1458
aV151
p1459
aV150
p1460
aV168
p1461
aV27
p1462
aV134
p1463
aV21
p1464
aV51
p1465
aV79
p1466
aV59
p1467
aV146
p1468
aV145
p1469
aV144
p1470
ag1053
ag1059
ag1060
aV32
p1471
aV16
p1472
aV163
p1473
aV288
p1474
aV77
p1475
aV144
p1476
aV135
p1477
aV134
p1478
aV108
p1479
aV109
p1480
aV62
p1481
aV39
p1482
aV161
p1483
aV162
p1484
aV34
p1485
aV10
p1486
aV94
p1487
aV95
p1488
aV112
p1489
aV125
p1490
aV37
p1491
aV60
p1492
aV228
p1493
aV227
p1494
aV128
p1495
aV127
p1496
aV36
p1497
aV119
p1498
aV170
p1499
aV35
p1500
aV54
p1501
aV43
p1502
aV134
p1503
aV243
p1504
aV88
p1505
aV139
p1506
aV75
p1507
ag1060
aV161
p1508
aV113
p1509
aV66
p1510
aV37
p1511
aV82
p1512
aV16
p1513
aV87
p1514
aV66
p1515
aV35
p1516
aV98
p1517
aV28
p1518
ag1059
aV184
p1519
aV14
p1520
aV185
p1521
aV12
p1522
aV157
p1523
aV121
p1524
aV48
p1525
aV13
p1526
aV65
p1527
aV134
p1528
aV135
p1529
aV97
p1530
aV98
p1531
aV133
p1532
aV8
p1533
ag1095
aV69
p1534
aV58
p1535
aV57
p1536
aV266
p1537
aV172
p1538
aV270
p1539
ag1059
aV141
p1540
aV100
p1541
aV24
p1542
aV142
p1543
aV143
p1544
aV21
p1545
aV40
p1546
aV49
p1547
aV152
p1548
aV127
p1549
aV24
p1550
aV33
p1551
aV92
p1552
aV221
p1553
aV61
p1554
aV62
p1555
aV112
p1556
aV111
p1557
aV14
p1558
aV63
p1559
aV163
p1560
aV65
p1561
aV64
p1562
aV172
p1563
aV36
p1564
ag1055
aV75
p1565
aV134
p1566
aV43
p1567
aV125
p1568
aV79
p1569
aV87
p1570
aV7
p1571
aV138
p1572
aV60
p1573
aV61
p1574
aV113
p1575
as.