(dp0
S'rares'
p1
(lp2
VSpecial
p3
aVUncommon
p4
aVCommon
p5
aVCommon
p6
aVUncommon
p7
aVUncommon
p8
aVUncommon
p9
aVCommon
p10
aVRare
p11
aVRare
p12
aVCommon
p13
aVCommon
p14
aVCommon
p15
aVRare
p16
aVCommon
p17
aVUncommon
p18
aVUncommon
p19
aVUncommon
p20
aVCommon
p21
aVCommon
p22
aVCommon
p23
aVCommon
p24
aVCommon
p25
aVCommon
p26
aVCommon
p27
aVRare
p28
aVCommon
p29
aVRare
p30
aVCommon
p31
aVCommon
p32
aVUncommon
p33
aVCommon
p34
aVCommon
p35
aVUncommon
p36
aVCommon
p37
aVUncommon
p38
aVUncommon
p39
aVRare
p40
aVCommon
p41
aVCommon
p42
aVCommon
p43
aVUncommon
p44
aVCommon
p45
aVCommon
p46
aVUncommon
p47
aVCommon
p48
aVCommon
p49
aVUncommon
p50
aVRare
p51
aVCommon
p52
aVUncommon
p53
aVUncommon
p54
aVCommon
p55
aVUncommon
p56
aVCommon
p57
aVCommon
p58
aVUncommon
p59
aVUncommon
p60
aVCommon
p61
aVUncommon
p62
aVUncommon
p63
aVRare
p64
aVUncommon
p65
aVCommon
p66
aVUncommon
p67
aVCommon
p68
aVCommon
p69
aVUncommon
p70
aVCommon
p71
aVUncommon
p72
aVMythic Rare
p73
aVCommon
p74
aVRare
p75
aVCommon
p76
aVCommon
p77
aVUncommon
p78
aVRare
p79
aVUncommon
p80
aVRare
p81
aVCommon
p82
aVRare
p83
aVCommon
p84
aVUncommon
p85
aVUncommon
p86
aVCommon
p87
aVRare
p88
aVCommon
p89
aVUncommon
p90
aVUncommon
p91
aVCommon
p92
aVUncommon
p93
aVCommon
p94
aVCommon
p95
aVCommon
p96
aVCommon
p97
aVCommon
p98
aVRare
p99
aVUncommon
p100
aVCommon
p101
aVCommon
p102
aVCommon
p103
aVCommon
p104
aVUncommon
p105
aVRare
p106
aVCommon
p107
aVUncommon
p108
aVCommon
p109
aVCommon
p110
aVCommon
p111
aVCommon
p112
aVCommon
p113
aVUncommon
p114
aVUncommon
p115
aVUncommon
p116
aVCommon
p117
aVUncommon
p118
aVRare
p119
aVCommon
p120
aVRare
p121
aVCommon
p122
aVCommon
p123
aVCommon
p124
aVCommon
p125
aVCommon
p126
aVCommon
p127
aVCommon
p128
aVCommon
p129
aVCommon
p130
aVUncommon
p131
aVCommon
p132
aVCommon
p133
aVCommon
p134
aVCommon
p135
aVUncommon
p136
aVCommon
p137
aVCommon
p138
aVRare
p139
aVCommon
p140
aVUncommon
p141
aVCommon
p142
aVUncommon
p143
aVCommon
p144
aVCommon
p145
aVCommon
p146
aVCommon
p147
aVRare
p148
aVSpecial
p149
aVUncommon
p150
aVCommon
p151
aVRare
p152
asS'editns'
p153
(lp154
VAnthologies
p155
aVMagic: The Gathering-Commander
p156
aVMagic: The Gathering-Commander
p157
aVLimited Edition Beta
p158
aVLimited Edition Beta
p159
aVSaviors of Kamigawa
p160
aVBattle Royale Box Set
p161
aVBattle Royale Box Set
p162
aVMorningtide
p163
aVMorningtide
p164
aVMorningtide
p165
aVMorningtide
p166
aVMorningtide
p167
aVMagic 2013
p168
aVFourth Edition
p169
aVFourth Edition
p170
aVFourth Edition
p171
aVAntiquities
p172
aVAlliances
p173
aVAlliances
p174
aVAlliances
p175
aVAlliances
p176
aVScars of Mirrodin
p177
aVBorn of the Gods
p178
aVBorn of the Gods
p179
aVBorn of the Gods
p180
aVMagic 2014 Core Set
p181
aVTempest
p182
aVTenth Edition
p183
aVTenth Edition
p184
aVTenth Edition
p185
aVMercadian Masques
p186
aVModern Masters
p187
aVModern Masters
p188
aVThe Dark
p189
aVThe Dark
p190
aVFallen Empires
p191
aVApocalypse
p192
aVMasters Edition III
p193
aVMasters Edition III
p194
aVRevised Edition
p195
aVRevised Edition
p196
aVMasters Edition II
p197
aVGuildpact
p198
aVGuildpact
p199
aVNinth Edition
p200
aVNinth Edition
p201
aVNinth Edition
p202
aVEventide
p203
aVAvacyn Restored
p204
aVAvacyn Restored
p205
aVPlanechase 2012 Edition
p206
aVOnslaught
p207
aVOnslaught
p208
aVOnslaught
p209
aVChampions of Kamigawa
p210
aVChampions of Kamigawa
p211
aVUrza's Destiny
p212
aVUrza's Destiny
p213
aVRavnica: City of Guilds
p214
aVCommander 2013 Edition
p215
aVCommander 2013 Edition
p216
aVOdyssey
p217
aVTime Spiral
p218
aVReturn to Ravnica
p219
aVColdsnap
p220
aVUnlimited Edition
p221
aVUnlimited Edition
p222
aVIce Age
p223
aVZendikar
p224
aVZendikar
p225
aVClassic Sixth Edition
p226
aVClassic Sixth Edition
p227
aVClassic Sixth Edition
p228
aVClassic Sixth Edition
p229
aVClassic Sixth Edition
p230
aVShards of Alara
p231
aVSeventh Edition
p232
aVSeventh Edition
p233
aVSeventh Edition
p234
aVSeventh Edition
p235
aVProphecy
p236
aVMagic 2015 Core Set
p237
aVMagic 2015 Core Set
p238
aVMagic 2015 Core Set
p239
aVPromo set for Gatherer
p240
aVStarter 1999
p241
aVFifth Dawn
p242
aVFifth Dawn
p243
aVFifth Dawn
p244
aVFuture Sight
p245
aVPortal Second Age
p246
aVPlanechase
p247
aVPlanechase
p248
aVPlanechase
p249
aVPlanechase
p250
aVLegions
p251
aVUrza's Saga
p252
aVUrza's Saga
p253
aVMasters Edition
p254
aVTheros
p255
aVTheros
p256
aVWeatherlight
p257
aVWeatherlight
p258
aVEighth Edition
p259
aVEighth Edition
p260
aVEighth Edition
p261
aVWorldwake
p262
aVChronicles
p263
aVInvasion
p264
aVJourney into Nyx
p265
aVJourney into Nyx
p266
aVFifth Edition
p267
aVFifth Edition
p268
aVFifth Edition
p269
aVFifth Edition
p270
aVFifth Edition
p271
aVArchenemy
p272
aVArchenemy
p273
aVArchenemy
p274
aVArchenemy
p275
aVKhans of Tarkir
p276
aVKhans of Tarkir
p277
aVDuel Decks: Jace vs. Vraska
p278
aVMirage
p279
aVMirage
p280
aVMirage
p281
aVMirage
p282
aVMirage
p283
aVMirage
p284
aVInnistrad
p285
aVInnistrad
p286
aVInnistrad
p287
aVLimited Edition Alpha
p288
aVLimited Edition Alpha
p289
aVVisions
p290
aVVisions
p291
aVBeatdown Box Set
p292
aVDragon's Maze
p293
aVLegends
p294
aVDissension
p295
aVDuel Decks: Izzet vs. Golgari
p296
aVLorwyn
p297
aVHomelands
p298
aVHomelands
p299
aVHomelands
p300
aVTime Spiral "Timeshifted"
p301
aVDuel Decks: Heroes vs. Monsters
p302
aVPortal
p303
aVDark Ascension
p304
asS'ids'
p305
(lp306
V-2146729961
p307
aV247152
p308
aV247335
p309
aV359
p310
aV400
p311
aV84373
p312
aV21192
p313
aV21175
p314
aV152607
p315
aV152649
p316
aV152926
p317
aV152944
p318
aV157424
p319
aV279709
p320
aV2104
p321
aV2154
p322
aV2042
p323
aV1006
p324
aV3074
p325
aV3075
p326
aV3073
p327
aV3076
p328
aV194317
p329
aV378467
p330
aV378442
p331
aV378468
p332
aV370772
p333
aV4664
p334
aV129544
p335
aV129546
p336
aV135186
p337
aV19639
p338
aV370358
p339
aV370438
p340
aV1808
p341
aV1714
p342
aV1915
p343
aV28011
p344
aV201228
p345
aV201169
p346
aV1161
p347
aV1200
p348
aV184485
p349
aV107681
p350
aV96945
p351
aV83157
p352
aV83081
p353
aV83489
p354
aV153446
p355
aV240122
p356
aV240080
p357
aV270736
p358
aV39484
p359
aV41169
p360
aV39905
p361
aV50236
p362
aV75402
p363
aV15184
p364
aV15763
p365
aV83884
p366
aV376329
p367
aV376330
p368
aV29724
p369
aV108892
p370
aV253588
p371
aV121137
p372
aV661
p373
aV702
p374
aV2448
p375
aV189629
p376
aV185743
p377
aV14560
p378
aV14648
p379
aV15387
p380
aV16625
p381
aV14698
p382
aV174973
p383
aV12963
p384
aV25664
p385
aV11269
p386
aV13015
p387
aV24602
p388
aV383236
p389
aV383237
p390
aV383238
p391
aV97066
p392
aV20373
p393
aV46108
p394
aV51113
p395
aV51617
p396
aV126131
p397
aV6504
p398
aV198066
p399
aV205394
p400
aV205403
p401
aV205267
p402
aV34263
p403
aV5604
p404
aV5655
p405
aV159739
p406
aV373674
p407
aV373703
p408
aV4456
p409
aV4545
p410
aV45416
p411
aV45451
p412
aV45299
p413
aV198362
p414
aV2781
p415
aV23114
p416
aV380412
p417
aV380413
p418
aV3780
p419
aV3781
p420
aV3845
p421
aV3906
p422
aV3782
p423
aV212652
p424
aV220684
p425
aV220452
p426
aV220489
p427
aV386534
p428
aV386535
p429
aV380200
p430
aV3292
p431
aV3492
p432
aV3493
p433
aV3494
p434
aV3384
p435
aV3291
p436
aV237360
p437
aV220022
p438
aV233250
p439
aV105
p440
aV64
p441
aV3664
p442
aV3736
p443
aV27564
p444
aV368969
p445
aV1572
p446
aV111203
p447
aV338405
p448
aV139502
p449
aV2919
p450
aV2918
p451
aV2906
p452
aV109694
p453
aV373367
p454
aV4221
p455
aV262857
p456
asS'texts'
p457
(lp458
VTarget player discards two cards at random.
p459
aV{T}: Add to your mana pool one mana of any color that a land an opponent controls could produce.
p460
aVFertilid enters the battlefield with two +1/+1 counters on it.<br>{1}{G}, Remove a +1/+1 counter from Fertilid: Target player searches his or her library for a basic land card and puts it onto the battlefield tapped. Then that player shuffles his or her library.
p461
aVPrevent all combat damage that would be dealt this turn.
p462
aVTrample <i>(If this creature would assign enough damage to its blockers to destroy them, you may have it assign the rest of its damage to defending player or planeswalker.)</i><br>At the beginning of your upkeep, Force of Nature deals 8 damage to you unless you pay {G}{G}{G}{G}.
p463
aVPut three 3/1 red Elemental creature tokens with haste onto the battlefield. Exile them at the beginning of the next end step.
p464
aVEnchant land<br>Whenever enchanted land is tapped for mana, its controller adds one mana of any color to his or her mana pool <i>(in addition to the mana the land produces)</i>.
p465
aV{U}{U}: Tap target creature without flying.
p466
aV{T}: Up to two target Swamps each become 3/5 Treefolk Warrior creatures in addition to their other types until end of turn.
p467
aVYou gain 10 life. Then if you have more life than an opponent, put a 5/5 white Giant Warrior creature token onto the battlefield.
p468
aVFertilid enters the battlefield with two +1/+1 counters on it.<br>{1}{G}, Remove a +1/+1 counter from Fertilid: Target player searches his or her library for a basic land card and puts it onto the battlefield tapped. Then that player shuffles his or her library.
p469
aVFestercreep enters the battlefield with a +1/+1 counter on it.<br>{1}{B}, Remove a +1/+1 counter from Festercreep: All other creatures get -1/-1 until end of turn.
p470
aVWhen Slithermuse leaves the battlefield, choose an opponent. If that player has more cards in hand than you, draw cards equal to the difference.<br>Evoke {3}{U} <i>(You may cast this spell for its evoke cost. If you do, it's sacrificed when it enters the battlefield.)</i>
p471
aVTarget creature gets +1/+0 and gains first strike until end of turn. <i>(It deals combat damage before creatures without first strike.)</i>
p472
aVEnchant creature<br>{R}: Enchanted creature gets +1/+0 until end of turn.
p473
aVDestroy all Plains.
p474
aVEnchant creature<br>Enchanted creature has flying.
p475
aV{T}, Exile Feldon's Cane: Shuffle your graveyard into your library.
p476
aVChoose one- Put a 2/2 black Zombie creature token onto the battlefield; or destroy target nonartifact, nonblack creature and it can't be regenerated.
p477
aVTarget creature gets +2/+0 until end of turn.<br><br>Draw a card at the beginning of the next turn's upkeep.
p478
aVSearch your library for three cards, exile them, then shuffle your library.<br>Draw a card at the beginning of the next turn's upkeep.
p479
aVWhen Fyndhorn Druid dies, if it was blocked this turn, you gain 4 life.
p480
aVHaste<br>Flameborn Hellion attacks each turn if able.
p481
aVFelhide Brawler can't block unless you control another Minotaur.
p482
aVInspired- Whenever Felhide Spiritbinder becomes untapped, you may pay {1}{R}. If you do, put a token onto the battlefield that's a copy of another target creature except it's an enchantment in addition to its other types. It gains haste. Exile it at the beginning of the next end step.
p483
aVFlying<br>Tribute 2 <i>(As this creature enters the battlefield, an opponent of your choice may place two +1/+1 counters on it.)</i><br>When Flame-Wreathed Phoenix enters the battlefield, if tribute wasn't paid, it gains haste and "When this creature dies, return it to its owner's hand."
p484
aVFlames of the Firebrand deals 3 damage divided as you choose among one, two, or three target creatures and/or players.
p485
aVBuyback {3} <i>(You may pay an additional {3} as you cast this spell. If you do, put this card into your hand as it resolves.)</i><br>Target creature attacks this turn if able.
p486
aVEnchant creature <i>(Target a creature as you cast this. This card enters the battlefield attached to that creature.)</i><br>Enchanted creature has fear. <i>(It can't be blocked except by artifact creatures and/or black creatures.)</i>
p487
aVWhen Festering Goblin dies, target creature gets -1/-1 until end of turn.
p488
aVEnchant creature<br>Enchanted creature gets +2/+2 and has flying and vigilance.
p489
aVRemote Farm enters the battlefield tapped with two depletion counters on it.<br>{T}, Remove a depletion counter from Remote Farm: Add {W}{W} to your mana pool. If there are no depletion counters on Remote Farm, sacrifice it.
p490
aVWhen Festering Goblin dies, target creature gets -1/-1 until end of turn.
p491
aVYou gain 10 life. Then if you have more life than an opponent, put a 5/5 white Giant Warrior creature token onto the battlefield.
p492
aVCast Festival only during an opponent's upkeep.<br>Creatures can't attack this turn.
p493
aVFlying<br>{R}: Fire Drake gets +1/+0 until end of turn. Activate this ability only once each turn.
p494
aVAt the beginning of your upkeep, put a spore counter on Feral Thallid.<br><br>Remove three spore counters from Feral Thallid: Regenerate Feral Thallid.
p495
aVWhenever a creature you control attacks, it gets +2/+2 until end of turn.
p496
aVFire Ambush deals 3 damage to target creature or player.
p497
aVFlying<br>{R}: Fire Drake gets +1/+0 until end of turn. Activate this ability only once each turn.
p498
aVPrevent all combat damage that would be dealt this turn.
p499
aVTrample <i>(If this creature would assign enough damage to its blockers to destroy them, you may have it assign the rest of its damage to defending player or planeswalker.)</i><br>At the beginning of your upkeep, Force of Nature deals 8 damage to you unless you pay {G}{G}{G}{G}.
p500
aV{R}: Flame Spirit gets +1/+0 until end of turn.
p501
aVIf Leyline of the Void is in your opening hand, you may begin the game with it on the battlefield.<br>If a card would be put into an opponent's graveyard from anywhere, exile it instead.
p502
aVReplicate {2}{U} <i>(When you cast this spell, copy it for each time you paid its replicate cost.)</i><br>Put a 3/3 blue Weird creature token with defender and flying onto the battlefield. Exile it at the beginning of the next end step.
p503
aVDestroy target artifact or enchantment.
p504
aVFear <i>(This creature can't be blocked except by artifact creatures and/or black creatures.)</i>
p505
aV{R}: Goblin Balloon Brigade gains flying until end of turn.
p506
aV{T}: Add {1} to your mana pool.<br>{W/B}, {T}: Add {W}{W}, {W}{B}, or {B}{B} to your mana pool.
p507
aVFlying<br>At the beginning of your upkeep, sacrifice Fettergeist unless you pay {1} for each other creature you control.
p508
aVTarget creature gets -1/-0 until end of turn.<br>Draw a card.
p509
aVEnchant creature<br>Enchanted creature has lifelink.<br>{1}{W}: Attach Felidar Umbra to target creature you control.<br>Totem armor <i>(If enchanted creature would be destroyed, instead remove all damage from it and destroy this Aura.)</i>
p510
aVChoose one- Target creature gains haste until end of turn; or target creature gets +2/+0 until end of turn; or Fever Charm deals 3 damage to target Wizard creature.
p511
aVTarget creature gets -X/-X until end of turn, where X is the number of Zombies on the battlefield.
p512
aVG
p513
aV{1}: Look at the top card of your library.<br>{2}: Reveal the top card of your library. If it's a land card, Feral Deceiver gets +2/+2 and gains trample until end of turn. Activate this ability only once each turn.
p514
aV{T}: Add {G} to your mana pool.
p515
aVEnchant creature<br>At the beginning of your upkeep, you may put an infection counter on Festering Wound.<br>At the beginning of the upkeep of enchanted creature's controller, Festering Wound deals X damage to that player, where X is the number of infection counters on Festering Wound.
p516
aVPrevent all combat damage that would be dealt by target creature this turn.<br>Cycling {2} <i>({2}, Discard this card: Draw a card.)</i>
p517
aVBoros Garrison enters the battlefield tapped.<br>When Boros Garrison enters the battlefield, return a land you control to its owner's hand.<br>{T}: Add {R}{W} to your mana pool.
p518
aVWhenever a creature dies, that creature's controller may draw a card.
p519
aVWhenever Fell Shepherd deals combat damage to a player, you may return to your hand all creature cards that were put into your graveyard from the battlefield this turn.<br>{B}, Sacrifice another creature: Target creature gets -2/-2 until end of turn.
p520
aVCounter target spell.<br>Flashback {5}{U}{U} <i>(You may cast this card from your graveyard for its flashback cost. Then exile it.)</i>
p521
aVFlash <i>(You may cast this spell any time you could cast an instant.)</i><br>Enchant creature<br>Enchanted creature gets -2/-1.
p522
aV{U/R}: Frostburn Weird gets +1/-1 until end of turn.
p523
aVFeast of Flesh deals X damage to target creature and you gain X life, where X is 1 plus the number of cards named Feast of Flesh in all graveyards.
p524
aVTrample <i>(If this creature would assign enough damage to its blockers to destroy them, you may have it assign the rest of its damage to defending player or planeswalker.)</i><br>At the beginning of your upkeep, Force of Nature deals 8 damage to you unless you pay {G}{G}{G}{G}.
p525
aV{1}: The next time an unblocked creature of your choice would deal combat damage to you this turn, prevent all but 1 of that damage.
p526
ag513
aVCast Feast of Blood only if you control two or more Vampires.<br>Destroy target creature. You gain 4 life.
p527
aVVigilance, lifelink<br>At the beginning of your upkeep, if you have 40 or more life, you win the game.
p528
aVFear <i>(This creature can't be blocked except by artifact creatures and/or black creatures.)</i>
p529
aVFlying<br>Haste <i>(This creature can attack and {T} as soon as it comes under your control.)</i>
p530
aVIf Gravebane Zombie would die, put Gravebane Zombie on top of its owner's library instead.
p531
aV{8}, {T}: Aladdin's Ring deals 4 damage to target creature or player.
p532
ag513
aVU
p533
aV{T}: Femeref Archers deals 4 damage to target attacking creature with flying.
p534
aVDestroy all Islands.
p535
aV{T}: Add {G}{G} to your mana pool.
p536
aVTarget creature gets +3/+3 until end of turn.
p537
aVFen Stalker has fear as long as you control no untapped lands. <i>(It can't be blocked except by artifact creatures and/or black creatures.)</i>
p538
aVNonblack creatures get -1/-1 until end of turn.
p539
aVAt the beginning of each upkeep, if you lost life last turn, put a 1/1 white Soldier creature token onto the battlefield.
p540
aVDestroy target creature. It can't be regenerated.
p541
aVAmplify 2 <i>(As this creature enters the battlefield, put two +1/+1 counters on it for each Beast card you reveal in your hand.)</i><br>Provoke <i>(When this attacks, you may have target creature defending player controls untap and block it if able.)</i>
p542
aVWhen Gravedigger enters the battlefield, you may return target creature card from your graveyard to your hand.
p543
aVFeedback Bolt deals damage to target player equal to the number of artifacts you control.
p544
aVFerropede is unblockable.<br>Whenever Ferropede deals combat damage to a player, you may remove a counter from target permanent.
p545
aVWhen Eternal Witness enters the battlefield, you may return target card from your graveyard to your hand.
p546
aVCreatures your opponents control get -1/-1 until end of turn. Exile Festering March with three time counters on it.<br>Suspend 3\u2014{2}{B} <i>(Rather than cast this card from your hand, you may pay {2}{B} and exile it with three time counters on it. At the beginning of your upkeep, remove a time counter. When the last is removed, cast it without paying its mana cost.)</i>
p547
aVVigilance
p548
aVRed spells cost {1} less to cast.<br>Green spells cost {1} less to cast.<br>Whenever you roll , put X +1/+1 counters on target creature, where X is that creature's converted mana cost.
p549
aVEnchant land<br>Whenever enchanted land is tapped for mana, its controller adds one mana of any color to his or her mana pool <i>(in addition to the mana the land produces)</i>.
p550
aVFertilid enters the battlefield with two +1/+1 counters on it.<br>{1}{G}, Remove a +1/+1 counter from Fertilid: Target player searches his or her library for a basic land card and puts it onto the battlefield tapped. Then that player shuffles his or her library.
p551
aVWhen Festering Goblin dies, target creature gets -1/-1 until end of turn.
p552
aVAmplify 2 <i>(As this creature enters the battlefield, put two +1/+1 counters on it for each Beast card you reveal in your hand.)</i><br>Provoke <i>(When this attacks, you may have target creature defending player controls untap and block it if able.)</i>
p553
aV{T}: Fire Ants deals 1 damage to each other creature without flying.
p554
ag513
aVChoose one- Put a 2/2 black Zombie creature token onto the battlefield; or destroy target nonartifact, nonblack creature and it can't be regenerated.
p555
aV{5}, {T}, Sacrifice Flamecast Wheel: Flamecast Wheel deals 3 damage to target creature.
p556
aVWhenever you scry, Flamespeaker Adept gets +2/+0 and gains first strike until end of turn.
p557
aVAt the beginning of your upkeep, Festering Evil deals 1 damage to each creature and each player.<br><br>{B}{B}, Sacrifice Festering Evil: Festering Evil deals 3 damage to each creature and each player.
p558
aVCreatures you control have haste.
p559
aVTap an untapped creature you control: Llanowar Behemoth gets +1/+1 until end of turn.
p560
aV{3}: Patagia Golem gains flying until end of turn.
p561
aVReach <i>(This creature can block creatures with flying.)</i>
p562
aVPut a +1/+1 counter on target creature you control. Another target creature blocks it this turn if able.
p563
aVEnchant creature <i>(Target a creature as you cast this. This card enters the battlefield attached to that creature.)</i><br>Enchanted creature has islandwalk. <i>(This creature is unblockable as long as defending player controls an Island.)</i>
p564
aVEnchant land<br>Whenever enchanted land is tapped for mana, its controller adds one mana of any color to his or her mana pool <i>(in addition to the mana the land produces)</i>.
p565
aVDestroy target enchanted creature or enchantment creature.
p566
aVDeathtouch<br>Other Minotaur creatures you control have deathtouch.
p567
aV{T}, Exile Feldon's Cane: Shuffle your graveyard into your library.
p568
aV{T}: Add to your mana pool one mana of any color that a land an opponent controls could produce.
p569
aVEnchant creature<br>Enchanted creature has flying.
p570
aV{U}{U}: Tap target creature without flying.
p571
aV{2}, {T}: Target creature gains flying until end of turn.
p572
aVWhen you set this scheme in motion, target opponent chooses self or others. If that player chooses self, he or she sacrifices two creatures. If the player chooses others, each of your other opponents sacrifices a creature.
p573
aVFeral Hydra enters the battlefield with X +1/+1 counters on it.<br>{3}: Put a +1/+1 counter on Feral Hydra. Any player may activate this ability.
p574
aVFertilid enters the battlefield with two +1/+1 counters on it.<br>{1}{G}, Remove a +1/+1 counter from Fertilid: Target player searches his or her library for a basic land card and puts it onto the battlefield tapped. Then that player shuffles his or her library.
p575
aVWhen Festering Goblin dies, target creature gets -1/-1 until end of turn.
p576
aVYou gain 5 life.<br>Ferocious- You gain 10 life instead if you control a creature with power 4 or greater.
p577
aV{3}{R}: Firehoof Cavalry gets +2/+0 and gains trample until end of turn.
p578
aVTrample<br>Morbid- Festerhide Boar enters the battlefield with two +1/+1 counters on it if a creature died this turn.
p579
aV{B}: Fetid Horror gets +1/+1 until end of turn.
p580
aV{T}: Prevent the next 1 damage that would be dealt to target creature or player this turn.
p581
aVFlanking <i>(Whenever a creature without flanking blocks this creature, the blocking creature gets -1/-1 until end of turn.)</i><br>{W}: Femeref Knight gains vigilance until end of turn.
p582
aVCounter target artifact or enchantment spell. Its controller gains life equal to its converted mana cost.
p583
aVFlying
p584
aVTake an extra turn after this one. At the beginning of that turn's end step, you lose the game.
p585
aVTap up to two target creatures.<br>Flashback {1}{U} <i>(You may cast this card from your graveyard for its flashback cost. Then exile it.)</i>
p586
aVTrample<br>{1}{R}: Feral Ridgewolf gets +2/+0 until end of turn.
p587
aVTrample<br>Morbid- Festerhide Boar enters the battlefield with two +1/+1 counters on it if a creature died this turn.
p588
aVEnchant enchantment<br>At the beginning of the upkeep of enchanted enchantment's controller, Feedback deals 1 damage to that player.
p589
aVWhite spells cost {3} more to cast.<br>Activated abilities of white enchantments cost {3} more to activate.
p590
aVPhasing <i>(This phases in or out before you untap during each of your untap steps. While it's phased out, it's treated as though it doesn't exist.)</i><br>Creatures with flying can't attack or block, and their activated abilities with {T} in their costs can't be activated.
p591
aVFlying, trample<br>Cumulative upkeep {U}{R} <i>(At the beginning of your upkeep, put an age counter on this permanent, then sacrifice it unless you pay its upkeep cost for each age counter on it.)</i>
p592
aVFireball deals X damage divided evenly, rounded down, among any number of target creatures and/or players.<br>Fireball costs {1} more to cast for each target beyond the first.
p593
aVDestroy each nonland permanent with converted mana cost X or less.
p594
aVRampage 2 <i>(Whenever this creature becomes blocked, it gets +2/+2 until end of turn for each creature blocking it beyond the first.)</i>
p595
aVChoose a card type. Target opponent reveals his or her hand. Put two 1/1 green Saproling creature tokens onto the battlefield for each card of the chosen type revealed this way. <i>(Artifact, creature, enchantment, instant, land, planeswalker, sorcery, and tribal are card types.)</i>
p596
aVChoose one- Put a 2/2 black Zombie creature token onto the battlefield; or destroy target nonartifact, nonblack creature and it can't be regenerated.
p597
aVEnchant land<br>Whenever enchanted land is tapped for mana, its controller adds one mana of any color to his or her mana pool <i>(in addition to the mana the land produces)</i>.
p598
aVCreature spells cost {2} more to cast.
p599
aVWhenever Folk of An-Havva blocks, it gets +2/+0 until end of turn.
p600
aVTarget player discards two cards, then draws as many cards as he or she discarded this way.
p601
aV{2}, {T}, Sacrifice Grinning Totem: Search target opponent's library for a card and exile it. Then that player shuffles his or her library. Until the beginning of your next upkeep, you may play that card. At the beginning of your next upkeep, if you haven't played it, put it into its owner's graveyard.
p602
aVDouble strike <i>(This creature deals both first-strike and regular combat damage.)</i>
p603
aVDestroy target nonblack creature.
p604
aVAt the beginning of your end step, you may sacrifice a nontoken creature. If you do, put X 2/2 green Wolf creature tokens onto the battlefield, where X is the sacrificed creature's toughness.
p605
asS'costs'
p606
(lp607
V{3}{B}
p608
aV{2}
p609
aV{2}{G}
p610
aV{B}{B}
p611
aV{2}{U}
p612
aV{3}{R}{R}{R}
p613
aV{2}{G}
p614
aV{1}{G}
p615
aV{4}{B}
p616
aV{4}{W}{W}
p617
aV{2}{G}
p618
aV{1}{B}
p619
aV{2}{U}{U}
p620
aV{4}{R}
p621
aV{B}{B}
p622
aV{2}{U}
p623
aV{2}
p624
aV{1}
p625
aV{3}{B}
p626
aV{2}{B}
p627
aV{3}{B}
p628
aV{2}{B}
p629
aV{2}{G}{G}
p630
aV{2}{R}
p631
aV{1}{B}
p632
aV{3}{R}
p633
aV{3}{G}{G}
p634
aV{B}{B}
p635
aV{B}{B}
p636
aV{B}
p637
aV{2}{G}
p638
aV{1}{G}
p639
aV{B}
p640
aV{4}{W}{W}
p641
aV{W}
p642
aV{2}
p643
aV{3}{G}{G}{G}
p644
aV{1}{W}{B}{R}
p645
aV{2}
p646
aV{2}{B}
p647
aV{B}{B}
p648
aV{2}{U}
p649
aV{3}{G}{G}{G}
p650
aV{2}{R}
p651
aV{1}{R}{G}
p652
aV{B}
p653
aV{B}{B}
p654
aV{2}
p655
aS'0'
p656
aV{2}{W}
p657
aV{1}{U}
p658
aV{1}{W}
p659
aV{R}
p660
aV{2}{B}
p661
aV{B}
p662
aV{3}{G}
p663
aV{3}{G}{G}
p664
aV{1}{B}
p665
aV{1}{W}
p666
aV{X}{W}
p667
aV{2}{G}
p668
aV{5}{B}{B}
p669
aV{3}{U}{U}
p670
aV{1}{B}
p671
aV{1}{W}
p672
aV{B}
p673
aV{B}{B}
p674
aV{2}{U}
p675
aV{B}{B}
p676
aV{1}
p677
aV{1}{B}
p678
aV{B}{B}
p679
aV{2}{R}
p680
aV{2}{B}
p681
aV{3}{B}
p682
aV{2}{G}
p683
aV{W}
p684
aV{2}{G}
p685
aV{6}
p686
aV{B}{B}
p687
aV{2}{R}
p688
aV{3}{B}
p689
aV{1}{W}
p690
aV{1}{B}
p691
aV{2}{B}
p692
aV{4}{G}{G}
p693
aV{2}{B}
p694
aV{4}{R}
p695
aV{3}
p696
aV{2}{G}
p697
aV{3}{B}{B}
p698
aV{W}
p699
ag656
aV{1}{G}
p700
aV{2}{G}
p701
aV{B}
p702
aV{4}{G}{G}
p703
aV{2}{G}
p704
aV{1}{G}
p705
aV{3}{B}
p706
aV{1}{U}
p707
aV{W}
p708
aV{3}{B}{B}
p709
aV{2}{R}
p710
aV{1}{G}
p711
aV{2}{G}
p712
aV{B}{B}
p713
aV{3}{G}
p714
aV{1}
p715
aV{1}{G}
p716
aV{4}{B}{B}
p717
aV{1}{B}
p718
aV{1}
p719
aV{2}
p720
aV{B}{B}
p721
aV{2}{U}
p722
aV{6}
p723
ag656
aV{X}{G}
p724
aV{2}{G}
p725
aV{B}
p726
aV{1}{W}
p727
aV{1}{G}
p728
aV{3}{G}
p729
aV{3}{B}
p730
aV{1}{W}
p731
aV{2}{W}
p732
aV{2}{W}
p733
aV{2}{G}
p734
aV{2}{B}
p735
aV{1}{W}
p736
aV{2}{R}
p737
aV{3}{G}
p738
aV{2}{U}
p739
aV{B}{B}
p740
aV{1}{G}
p741
aV{G}{W}
p742
aV{2}{B}
p743
aV{1}{R}{G}
p744
aV{R}
p745
aV{2}{G}{G}
p746
aV{3}{B}
p747
aV{1}{G}
p748
aV{3}{B}
p749
aV{3}{B}
p750
aV{6}
p751
aV{1}
p752
aV{1}{W}
p753
aV{2}{B}
p754
aV{5}{G}
p755
asS'names'
p756
(lp757
VFeast of the Unicorn
p758
aVFellwar Stone
p759
aVFertilid
p760
aVFear
p761
aVFeedback
p762
aVFeral Lightning
p763
aVFecundity
p764
aVFertile Ground
p765
aVFendeep Summoner
p766
aVFeudkiller's Verdict
p767
aVFertilid
p768
aVFestercreep
p769
aVFencer Clique
p770
aVFervor
p771
aVFear
p772
aVFeedback
p773
aVFellwar Stone
p774
aVFeldon's Cane
p775
aVFeast or Famine
p776
aVFevered Strength
p777
aVFeast or Famine
p778
aVFevered Strength
p779
aVFerrovore
p780
aVFearsome Temper
p781
aVFelhide Brawler
p782
aVFelhide Spiritbinder
p783
aVFestering Newt
p784
aVFevered Convulsions
p785
aVFear
p786
aVFestering Goblin
p787
aVFemeref Archers
p788
aVFerocity
p789
aVFestering Goblin
p790
aVFeudkiller's Verdict
p791
aVFestival
p792
aVFellwar Stone
p793
aVFeral Thallid
p794
aVFervent Charge
p795
aVFellwar Stone
p796
aVFevered Strength
p797
aVFear
p798
aVFeedback
p799
aVFeral Thallid
p800
aVFencer's Magemark
p801
aVFeral Animist
p802
aVFestering Goblin
p803
aVFear
p804
aVFellwar Stone
p805
aVFetid Heath
p806
aVFervent Cathar
p807
aVFettergeist
p808
aVFelidar Umbra
p809
aVFever Charm
p810
aVFeeding Frenzy
p811
aVFestering Goblin
p812
aVFeral Deceiver
p813
aVFeast of Worms
p814
aVFestering Wound
p815
aVFend Off
p816
aVFestival of the Guildpact
p817
aVFecundity
p818
aVFell Shepherd
p819
aVFervent Denial
p820
aVFeebleness
p821
aVFencing Ace
p822
aVFeast of Flesh
p823
aVFear
p824
aVFeedback
p825
aVFear
p826
aVFeast of Blood
p827
aVFelidar Sovereign
p828
aVFear
p829
aVFervor
p830
aVFeral Shadow
p831
aVFeast of the Unicorn
p832
aVFemeref Archers
p833
aVFeral Hydra
p834
aVFemeref Archers
p835
aVFeroz's Ban
p836
aVFear
p837
aVFervor
p838
aVFen Stalker
p839
aVFeast on the Fallen
p840
aVFeral Incarnation
p841
aVFestergloom
p842
aVFeral Throwback
p843
aVFeral Shadow
p844
aVFeedback Bolt
p845
aVFerropede
p846
aVFerocious Charge
p847
aVFestering March
p848
aVFestival of Trokin
p849
aVFeeding Grounds
p850
aVFertile Ground
p851
aVFertilid
p852
aVFestering Goblin
p853
aVFeral Throwback
p854
aVFecundity
p855
aVFertile Ground
p856
aVFeast or Famine
p857
aVFelhide Minotaur
p858
aVFeral Invocation
p859
aVFestering Evil
p860
aVFervor
p861
aVFertile Ground
p862
aVFecundity
p863
aVFear
p864
aVFeral Contest
p865
aVFeldon's Cane
p866
aVFertile Ground
p867
aVFeast of Dreams
p868
aVFelhide Petrifier
p869
aVFeldon's Cane
p870
aVFellwar Stone
p871
aVFear
p872
aVFeedback
p873
aVFeroz's Ban
p874
aVFeed the Machine
p875
aVFeral Hydra
p876
aVFertilid
p877
aVFestering Goblin
p878
aVFeat of Resistance
p879
aVFeed the Clan
p880
aVFesterhide Boar
p881
aVFetid Horror
p882
aVFemeref Healer
p883
aVFemeref Knight
p884
aVFemeref Scouts
p885
aVFemeref Archers
p886
aVFeral Shadow
p887
aVFeeling of Dread
p888
aVFeral Ridgewolf
p889
aVFesterhide Boar
p890
aVFeedback
p891
aVFear
p892
aVFeral Instinct
p893
aVFemeref Enchantress
p894
aVFeral Shadow
p895
aVFeral Animist
p896
aVFeint
p897
aVFertile Imagination
p898
aVFeast or Famine
p899
aVFertile Ground
p900
aVFeast of the Unicorn
p901
aVFeast of the Unicorn
p902
aVFeroz's Ban
p903
aVFeldon's Cane
p904
aVFencing Ace
p905
aVFeral Shadow
p906
aVFeed the Pack
p907
asS'toughs'
p908
(lp909
S'N/A'
p910
ag910
aV0
p911
ag910
ag910
ag910
ag910
ag910
aV5
p912
ag910
ag911
ag911
aV2
p913
ag910
ag910
ag910
ag910
ag910
ag910
ag910
ag910
ag910
aV3
p914
ag910
aV4
p915
ag915
aV1
p916
ag910
ag910
ag913
ag916
ag910
ag916
ag910
ag910
ag910
ag914
ag910
ag910
ag910
ag910
ag910
ag914
ag910
ag916
aV6
p917
ag910
ag910
ag910
ag916
ag914
ag910
ag910
ag910
ag914
ag913
ag910
ag910
ag910
ag910
ag910
ag916
ag910
ag910
ag916
ag910
ag910
ag910
ag910
ag910
ag914
ag910
ag910
ag916
ag910
ag916
ag913
ag913
ag910
ag910
ag910
ag913
ag910
ag910
ag910
ag913
ag916
ag910
ag910
ag910
ag910
ag910
ag910
ag910
ag916
ag914
ag914
ag910
ag910
ag910
ag913
ag910
ag910
ag910
ag910
ag910
ag910
ag910
ag910
ag910
ag910
ag915
ag910
ag910
ag910
ag910
ag910
ag910
ag915
ag913
ag912
ag910
ag910
ag915
ag912
ag914
ag913
ag914
ag913
ag916
ag910
ag913
ag913
ag910
ag910
ag910
ag914
ag912
ag916
ag910
ag910
ag910
ag910
ag910
ag910
ag910
ag910
ag916
ag916
ag910
asS'artists'
p918
(lp919
VDennis Detwiller
p920
aVJohn Avon
p921
aVWayne Reynolds
p922
aVMark Poole
p923
aVQuinton Hoover
p924
aVChippy
p925
aVRebecca Guay
p926
aVHeather Hudson
p927
aVJesper Ejsing
p928
aVDan Scott
p929
aVWayne Reynolds
p930
aVJeff Easley
p931
aVWilliam O'Connor
p932
aVWayne England
p933
aVMark Poole
p934
aVQuinton Hoover
p935
aVQuinton Hoover
p936
aVMark Tedin
p937
aVPete Venters
p938
aVBrian Snoddy
p939
aVPete Venters
p940
aVBrian Snoddy
p941
aVAustin Hsu
p942
aVSeb McKinnon
p943
aVNils Hamm
p944
aVMathias Kollros
p945
aVEric Deschamps
p946
aVJeff Miracola
p947
aVAdam Rex
p948
aVThomas M. Baxa
p949
aVZoltan Boros & Gabor Szikszai
p950
aVPete Venters
p951
aS''
p952
ag952
aVMark Poole
p953
aVQuinton Hoover
p954
aVRob Alexander
p955
aVMark Tedin
p956
aVBrian Snoddy
p957
aVTang Xiaogu
p958
aVMark Poole
p959
aVQuinton Hoover
p960
aVRob Alexander
p961
aVBrandon Kitkouski
p962
aVRon Spears
p963
aVThomas M. Baxa
p964
aVAdam Rex
p965
aVJohn Avon
p966
aVDaarken
p967
aVIzzy
p968
aVRyan Yee
p969
ag952
aVDavid Martin
p970
aVNelson DeCastro
p971
aVThomas M. Baxa
p972
aVArnie Swekel
p973
aVChippy
p974
aVChippy and Matthew Wilson
p975
aVPaolo Parente
p976
aVAlex Horley-Orlandelli
p977
aVRebecca Guay
p978
aVBrad Rigney
p979
aVScott M. Fischer
p980
aVKev Walker
p981
aVDavid Rapoza
p982
aVVolkan Baga
p983
aVMark Poole
p984
aVQuinton Hoover
p985
aVRick Emond
p986
aVJason Felix
p987
aVZoltan Boros & Gabor Szikszai
p988
aVDoug Keith
p989
aVFranz Vohwinkel
p990
aVCliff Nielsen
p991
aVDennis Detwiller
p992
aVWilliam Donohoe
p993
aVSteve Prescott
p994
aVGary Ruddell
p995
aVDonato Giancola
p996
aVAdam Rex
p997
aVWayne England
p998
aVEdward P. Beard, Jr.
p999
aVDave Kendall
p1000
aVEytan Zana
p1001
aVMathias Kollros
p1002
aVCarl Critchlow
p1003
aVColin MacNeil
p1004
aVRon Spencer
p1005
aVJeff Easley
p1006
aVAnthony S. Waters
p1007
aVBrandon Kitkouski
p1008
aVJeffrey R. Busch
p1009
aVMatt Stewart
p1010
aVMark Tedin
p1011
aVWayne Reynolds
p1012
aVThomas M. Baxa
p1013
aVCarl Critchlow
p1014
aVRebecca Guay
p1015
aVHeather Hudson
p1016
aVPete Venters
p1017
aVKev Walker
p1018
aVMathias Kollros
p1019
aVJohn Matson
p1020
aVFranz Vohwinkel
p1021
aVHeather Hudson
p1022
aVRebecca Guay
p1023
aVAdam Rex
p1024
aVDaarken
p1025
aVMark Tedin
p1026
aVCarl Critchlow
p1027
aVClint Cearley
p1028
aVJames Ryman
p1029
aVMark Tedin
p1030
aVQuinton Hoover
p1031
aVDoug Keith
p1032
aVQuinton Hoover
p1033
aVHeather Hudson
p1034
aVWayne Reynolds
p1035
aVSteve Prescott
p1036
aVWayne Reynolds
p1037
aVThomas M. Baxa
p1038
aVDavid Gaillet
p1039
aVWinona Nelson
p1040
aVNils Hamm
p1041
aVGary Leach
p1042
aVSteve Luke
p1043
aVTony Roberts
p1044
aVZak Plucinski
p1045
aVWilliam Donohoe
p1046
aVCliff Nielsen
p1047
aVJohn Stanko
p1048
aVMartina Pilcerova
p1049
aVNils Hamm
p1050
aVQuinton Hoover
p1051
aVMark Poole
p1052
aVUna Fricker
p1053
aVD. Alexander Gregory
p1054
aVCliff Nielsen
p1055
aVDave Kendall
p1056
aVBrian Snoddy
p1057
aVDan Scott
p1058
aVChase Stone
p1059
aVMark Tedin
p1060
aVDennis Detwiller
p1061
aVDennis Detwiller
p1062
aVHeather Hudson
p1063
aVMark Tedin
p1064
aVDavid Rapoza
p1065
aVColin MacNeil
p1066
aVJason Chan
p1067
asS'powers'
p1068
(lp1069
g910
ag910
ag911
ag910
ag910
ag910
ag910
ag910
ag914
ag910
ag911
ag911
ag914
ag910
ag910
ag910
ag910
ag910
ag910
ag910
ag910
ag910
ag914
ag910
ag915
ag913
ag916
ag910
ag910
ag913
ag916
ag910
ag916
ag910
ag910
ag910
ag917
ag910
ag910
ag910
ag910
ag910
ag917
ag910
ag913
ag917
ag910
ag910
ag910
ag913
ag914
ag910
ag910
ag910
ag913
ag914
ag910
ag910
ag910
ag910
ag910
ag916
ag910
ag910
ag916
ag910
ag910
ag910
ag910
ag910
ag915
ag910
ag910
ag913
ag910
ag913
ag912
ag913
ag910
ag910
ag910
ag914
ag910
ag910
ag910
ag913
ag913
ag910
ag910
ag910
ag910
ag910
ag910
ag910
ag916
ag914
ag914
ag910
ag910
ag910
ag913
ag910
ag910
ag910
ag910
ag910
ag910
ag910
ag910
ag910
ag910
ag912
ag910
ag910
ag910
ag910
ag910
ag910
ag913
ag913
ag912
ag910
ag910
ag915
ag912
ag914
ag913
ag914
ag913
ag916
ag910
ag913
ag913
ag910
ag910
ag910
ag914
ag915
ag913
ag910
ag910
ag910
ag910
ag910
ag910
ag910
ag910
ag916
ag913
ag910
asS'types'
p1070
(lp1071
VEnchantment - Aura
p1072
aVArtifact
p1073
aVCreature - Elemental
p1074
aVEnchantment - Aura
p1075
aVEnchantment - Aura
p1076
aVSorcery
p1077
aVEnchantment
p1078
aVEnchantment - Aura
p1079
aVCreature - Treefolk Shaman
p1080
aVTribal Sorcery - Giant
p1081
aVCreature - Elemental
p1082
aVCreature - Elemental
p1083
aVCreature - Faerie Soldier
p1084
aVEnchantment
p1085
aVEnchantment - Aura
p1086
aVEnchantment - Aura
p1087
aVArtifact
p1088
aVArtifact
p1089
aVInstant
p1090
aVInstant
p1091
aVInstant
p1092
aVInstant
p1093
aVCreature - Beast
p1094
aVEnchantment - Aura
p1095
aVCreature - Minotaur
p1096
aVCreature - Minotaur Shaman
p1097
aVCreature - Salamander
p1098
aVEnchantment
p1099
aVEnchantment - Aura
p1100
aVCreature - Zombie Goblin
p1101
aVCreature - Human Archer
p1102
aVEnchantment - Aura
p1103
aVCreature - Zombie Goblin
p1104
aVTribal Sorcery - Giant
p1105
aVInstant
p1106
aVArtifact
p1107
aVCreature - Fungus
p1108
aVEnchantment
p1109
aVArtifact
p1110
aVInstant
p1111
aVEnchantment - Aura
p1112
aVEnchantment - Aura
p1113
aVCreature - Fungus
p1114
aVEnchantment - Aura
p1115
aVCreature - Goblin Shaman
p1116
aVCreature - Zombie Goblin
p1117
aVEnchantment - Aura
p1118
aVArtifact
p1119
aVLand
p1120
aVCreature - Human Knight
p1121
aVCreature - Spirit
p1122
aVEnchantment - Aura
p1123
aVInstant
p1124
aVInstant
p1125
aVCreature - Zombie Goblin
p1126
aVCreature - Spirit
p1127
aVSorcery - Arcane
p1128
aVEnchantment - Aura
p1129
aVInstant
p1130
aVInstant
p1131
aVEnchantment
p1132
aVCreature - Avatar
p1133
aVInstant
p1134
aVEnchantment - Aura
p1135
aVCreature - Human Soldier
p1136
aVSorcery
p1137
aVEnchantment - Aura
p1138
aVEnchantment - Aura
p1139
aVEnchantment - Aura
p1140
aVSorcery
p1141
aVCreature - Cat Beast
p1142
aVEnchantment - Aura
p1143
aVEnchantment
p1144
aVCreature - Nightstalker
p1145
aVEnchantment - Aura
p1146
aVCreature - Human Archer
p1147
aVCreature - Hydra Beast
p1148
aVCreature - Human Archer
p1149
aVArtifact
p1150
aVEnchantment - Aura
p1151
aVEnchantment
p1152
aVCreature - Nightstalker
p1153
aVEnchantment
p1154
aVSorcery
p1155
aVSorcery
p1156
aVCreature - Beast
p1157
aVCreature - Nightstalker
p1158
aVInstant
p1159
aVArtifact Creature - Insect
p1160
aVInstant
p1161
aVSorcery
p1162
aVSorcery
p1163
aVPlane - Muraganda
p1164
aVEnchantment - Aura
p1165
aVCreature - Elemental
p1166
aVCreature - Zombie Goblin
p1167
aVCreature - Beast
p1168
aVEnchantment
p1169
aVEnchantment - Aura
p1170
aVInstant
p1171
aVCreature - Minotaur
p1172
aVEnchantment - Aura
p1173
aVEnchantment
p1174
aVEnchantment
p1175
aVEnchantment - Aura
p1176
aVEnchantment
p1177
aVEnchantment - Aura
p1178
aVSorcery
p1179
aVArtifact
p1180
aVEnchantment - Aura
p1181
aVInstant
p1182
aVCreature - Minotaur Warrior
p1183
aVArtifact
p1184
aVArtifact
p1185
aVEnchantment - Aura
p1186
aVEnchantment - Aura
p1187
aVArtifact
p1188
aVScheme
p1189
aVCreature - Hydra Beast
p1190
aVCreature - Elemental
p1191
aVCreature - Zombie Goblin
p1192
aVInstant
p1193
aVInstant
p1194
aVCreature - Boar
p1195
aVCreature - Shade Horror
p1196
aVCreature - Human Cleric
p1197
aVCreature - Human Knight
p1198
aVCreature - Human Scout
p1199
aVCreature - Human Archer
p1200
aVCreature - Nightstalker
p1201
aVInstant
p1202
aVCreature - Wolf
p1203
aVCreature - Boar
p1204
aVEnchantment - Aura
p1205
aVEnchantment - Aura
p1206
aVInstant
p1207
aVCreature - Human Druid
p1208
aVCreature - Nightstalker
p1209
aVCreature - Goblin Shaman
p1210
aVInstant
p1211
aVSorcery
p1212
aVInstant
p1213
aVEnchantment - Aura
p1214
aVEnchantment - Aura
p1215
aVEnchantment - Aura
p1216
aVArtifact
p1217
aVArtifact
p1218
aVCreature - Human Soldier
p1219
aVCreature - Nightstalker
p1220
aVEnchantment
p1221
asS'numbers'
p1222
(lp1223
V23
p1224
aV248
p1225
aV154
p1226
aV91
p1227
aV92
p1228
aV97
p1229
aV63
p1230
aV64
p1231
aV61
p1232
aV9
p1233
aV122
p1234
aV62
p1235
aV33
p1236
aV129
p1237
aV204
p1238
aV205
p1239
aV206
p1240
aV56
p1241
aV24
p1242
aV25
p1243
aV148
p1244
aV149
p1245
aV88
p1246
aV95
p1247
aV70
p1248
aV96
p1249
aV98
p1250
aV55
p1251
aV142
p1252
aV143
p1253
aV264
p1254
aV245
p1255
ag952
ag952
aV58
p1256
aV90
p1257
aV39
p1258
aV98
p1259
aV195
p1260
aV66
p1261
aV122
p1262
aV123
p1263
aV161
p1264
aV65
p1265
aV112
p1266
aV130
p1267
aV129
p1268
aV297
p1269
aV176
p1270
aV135
p1271
aV52
p1272
aV80
p1273
aV202
p1274
aV147
p1275
aV148
p1276
aV208
p1277
aV207
p1278
aV61
p1279
aV7
p1280
aV17
p1281
aV145
p1282
aV78
p1283
aV86
p1284
aV110
p1285
aV11
p1286
aV56
p1287
aV96
p1288
aV97
p1289
aV276
p1290
aV88
p1291
aV12
p1292
aV129
p1293
aV174
p1294
aV131
p1295
aV130
p1296
aV229
p1297
aV131
p1298
aV244
p1299
aV295
p1300
aV135
p1301
aV181
p1302
aV64
p1303
aV96
p1304
aV174
p1305
aV97
p1306
aV126
p1307
aV77
p1308
aV64
p1309
aV122
p1310
aV88
p1311
aV65
p1312
aV10
p1313
ag1233
aV71
p1314
aV72
p1315
aV27
p1316
aV126
p1317
aV251
p1318
aV252
p1319
aV70
p1320
aV87
p1321
aV158
p1322
aV22
p1323
aV136
p1324
aV248
p1325
aV247
p1326
aV134
p1327
aV100
p1328
aV70
p1329
aV188
p1330
aV69
p1331
aV70
p1332
aV10
p1333
aV11
p1334
aV267
p1335
aV268
p1336
aV269
p1337
aV14
p1338
aV53
p1339
aV54
p1340
aV16
p1341
aV10
p1342
aV132
p1343
aV59
p1344
aV33
p1345
aV173
p1346
aV174
p1347
aV175
p1348
aV271
p1349
aV272
p1350
aV14
p1351
aV142
p1352
aV179
p1353
ag912
aV144
p1354
aV54
p1355
aV99
p1356
aV41
p1357
aV70
p1358
aV93
p1359
aV84
p1360
aV72
p1361
aV211
p1362
aV106
p1363
aV107
p1364
aV108
p1365
aV109
p1366
ag912
aV126
p1367
aV114
p1368
as.