(dp0
S'rares'
p1
(lp2
VRare
p3
aVCommon
p4
aVUncommon
p5
aVUncommon
p6
aVCommon
p7
aVCommon
p8
aVRare
p9
aVUncommon
p10
aVUncommon
p11
aVUncommon
p12
aVCommon
p13
aVCommon
p14
aVCommon
p15
aVUncommon
p16
aVRare
p17
aVCommon
p18
aVCommon
p19
aVUncommon
p20
aVRare
p21
aVUncommon
p22
aVRare
p23
aVCommon
p24
aVRare
p25
aVCommon
p26
aVMythic Rare
p27
aVCommon
p28
aVCommon
p29
aVUncommon
p30
aVUncommon
p31
aVRare
p32
aVRare
p33
aVRare
p34
aVRare
p35
aVCommon
p36
aVUncommon
p37
aVRare
p38
aVRare
p39
aVCommon
p40
aVUncommon
p41
aVRare
p42
aVUncommon
p43
aVCommon
p44
aVRare
p45
aVUncommon
p46
aVRare
p47
aVCommon
p48
aVUncommon
p49
aVMythic Rare
p50
aVRare
p51
aVCommon
p52
aVRare
p53
aVRare
p54
aVUncommon
p55
aVRare
p56
aVCommon
p57
aVRare
p58
aVUncommon
p59
aVUncommon
p60
aVUncommon
p61
aVRare
p62
aVRare
p63
aVUncommon
p64
aVUncommon
p65
aVUncommon
p66
aVUncommon
p67
aVUncommon
p68
aVRare
p69
aVRare
p70
aVCommon
p71
aVCommon
p72
aVUncommon
p73
aVRare
p74
aVCommon
p75
aVUncommon
p76
aVCommon
p77
aVCommon
p78
aVCommon
p79
aVRare
p80
aVRare
p81
aVUncommon
p82
aVRare
p83
aVUncommon
p84
aVCommon
p85
aVCommon
p86
aVCommon
p87
aVCommon
p88
aVCommon
p89
aVRare
p90
aVRare
p91
aVCommon
p92
aVRare
p93
aVRare
p94
aVCommon
p95
aVCommon
p96
aVRare
p97
aVUncommon
p98
aVUncommon
p99
aVCommon
p100
aVUncommon
p101
aVRare
p102
aVCommon
p103
aVRare
p104
aVCommon
p105
aVCommon
p106
aVRare
p107
aVUncommon
p108
aVUncommon
p109
aVUncommon
p110
aVUncommon
p111
aVCommon
p112
aVCommon
p113
aVUncommon
p114
aVUncommon
p115
aVCommon
p116
aVRare
p117
aVUncommon
p118
aVUncommon
p119
aVCommon
p120
aVCommon
p121
aVCommon
p122
aVCommon
p123
aVCommon
p124
aVRare
p125
aVCommon
p126
aVUncommon
p127
aVUncommon
p128
aVRare
p129
asS'editns'
p130
(lp131
VMagic 2012
p132
aVMagic 2012
p133
aVLimited Edition Beta
p134
aVLimited Edition Beta
p135
aVSaviors of Kamigawa
p136
aVMagic 2013
p137
aVMagic 2013
p138
aVFourth Edition
p139
aVFourth Edition
p140
aVScars of Mirrodin
p141
aVScars of Mirrodin
p142
aVScars of Mirrodin
p143
aVScars of Mirrodin
p144
aVBorn of the Gods
p145
aVMagic 2010
p146
aVMagic 2010
p147
aVMagic 2014 Core Set
p148
aVMagic 2014 Core Set
p149
aVTenth Edition
p150
aVMercadian Masques
p151
aVModern Masters
p152
aVModern Masters
p153
aVModern Masters
p154
aVModern Masters
p155
aVMirrodin Besieged
p156
aVMirrodin Besieged
p157
aVApocalypse
p158
aVRevised Edition
p159
aVRevised Edition
p160
aVMasters Edition II
p161
aVMasters Edition II
p162
aVGuildpact
p163
aVNinth Edition
p164
aVNinth Edition
p165
aVNinth Edition
p166
aVEventide
p167
aVEventide
p168
aVConflux
p169
aVConflux
p170
aVAvacyn Restored
p171
aVAvacyn Restored
p172
aVPlanechase 2012 Edition
p173
aVPlanechase 2012 Edition
p174
aVPlanechase 2012 Edition
p175
aVOnslaught
p176
aVOnslaught
p177
aVOnslaught
p178
aVFrom the Vault: Realms
p179
aVChampions of Kamigawa
p180
aVChampions of Kamigawa
p181
aVRavnica: City of Guilds
p182
aVRavnica: City of Guilds
p183
aVRavnica: City of Guilds
p184
aVRavnica: City of Guilds
p185
aVTime Spiral
p186
aVGatecrash
p187
aVColdsnap
p188
aVUnlimited Edition
p189
aVUnlimited Edition
p190
aVIce Age
p191
aVIce Age
p192
aVIce Age
p193
aVIce Age
p194
aVTorment
p195
aVClassic Sixth Edition
p196
aVClassic Sixth Edition
p197
aVMirrodin
p198
aVMirrodin
p199
aVDuel Decks: Elspeth vs. Tezzeret
p200
aVShards of Alara
p201
aVSeventh Edition
p202
aVSeventh Edition
p203
aVProphecy
p204
aVProphecy
p205
aVMagic 2015 Core Set
p206
aVRise of the Eldrazi
p207
aVRise of the Eldrazi
p208
aVJudgment
p209
aVPromo set for Gatherer
p210
aVShadowmoor
p211
aVShadowmoor
p212
aVShadowmoor
p213
aVShadowmoor
p214
aVShadowmoor
p215
aVShadowmoor
p216
aVNew Phyrexia
p217
aVNew Phyrexia
p218
aVNew Phyrexia
p219
aVFuture Sight
p220
aVPlanechase
p221
aVPlanechase
p222
aVLegions
p223
aVLegions
p224
aVLegions
p225
aVUrza's Saga
p226
aVTheros
p227
aVMagic: The Gathering\u2014Conspiracy
p228
aVEighth Edition
p229
aVEighth Edition
p230
aVEighth Edition
p231
aVInvasion
p232
aVInvasion
p233
aVJourney into Nyx
p234
aVAlara Reborn
p235
aVAlara Reborn
p236
aVAlara Reborn
p237
aVFifth Edition
p238
aVFifth Edition
p239
aVFifth Edition
p240
aVArchenemy
p241
aVKhans of Tarkir
p242
aVLimited Edition Alpha
p243
aVLimited Edition Alpha
p244
aVMasters Edition IV
p245
aVMasters Edition IV
p246
aVDragon's Maze
p247
aVStronghold
p248
aVLegends
p249
aVLegends
p250
aVLegends
p251
aVLegends
p252
aVLegends
p253
aVDuel Decks: Izzet vs. Golgari
p254
aVLorwyn
p255
aVLorwyn
p256
aVLorwyn
p257
aVMagic 2011
p258
asS'ids'
p259
(lp260
V221919
p261
aV220082
p262
aV311
p263
aV361
p264
aV89402
p265
aV265720
p266
aV249722
p267
aV2044
p268
aV2106
p269
aV194046
p270
aV209043
p271
aV206358
p272
aV194049
p273
aV378385
p274
aV190562
p275
aV190196
p276
aV370716
p277
aV370774
p278
aV129572
p279
aV19803
p280
aV370425
p281
aV370552
p282
aV370522
p283
aV370371
p284
aV214072
p285
aV213783
p286
aV27154
p287
aV1110
p288
aV1163
p289
aV184631
p290
aV184632
p291
aV107094
p292
aV83106
p293
aV83107
p294
aV84064
p295
aV153439
p296
aV157977
p297
aV179505
p298
aV179512
p299
aV240165
p300
aV278254
p301
aV226535
p302
aV271215
p303
aV271140
p304
aV39423
p305
aV39712
p306
aV33713
p307
aV288996
p308
aV75241
p309
aV80245
p310
aV83597
p311
aV83702
p312
aV83719
p313
aV89027
p314
aV113537
p315
aV366334
p316
aV121211
p317
aV613
p318
aV663
p319
aV2623
p320
aV2730
p321
aV2752
p322
aV2507
p323
aV12405
p324
aV14535
p325
aV11305
p326
aV48132
p327
aV48386
p328
aV222736
p329
aV174816
p330
aV11304
p331
aV26843
p332
aV24549
p333
aV24558
p334
aV383256
p335
aV193513
p336
aV193557
p337
aV34822
p338
aV97064
p339
aV142031
p340
aV146743
p341
aV147375
p342
aV154394
p343
aV158681
p344
aV158757
p345
aV194171
p346
aV233052
p347
aV214346
p348
aV136157
p349
aV198068
p350
aV205318
p351
aV42073
p352
aV43723
p353
aV44204
p354
aV5835
p355
aV373691
p356
aV382274
p357
aV45173
p358
aV47282
p359
aV45218
p360
aV22929
p361
aV22967
p362
aV380423
p363
aV179576
p364
aV179611
p365
aV189654
p366
aV3848
p367
aV3912
p368
aV3786
p369
aV220585
p370
aV386546
p371
aV16
p372
aV66
p373
aV202530
p374
aV202516
p375
aV368987
p376
aV5162
p377
aV1440
p378
aV1486
p379
aV1529
p380
aV1576
p381
aV1613
p382
aV338391
p383
aV139436
p384
aV145981
p385
aV146162
p386
aV205094
p387
asS'texts'
p388
(lp389
V{T}: Goblin Fireslinger deals 1 damage to target player.
p390
aVAs an additional cost to cast Goblin Grenade, sacrifice a Goblin.<br>Goblin Grenade deals 5 damage to target creature or player.
p391
aVChoose one- Target player gains 3 life; or prevent the next 3 damage that would be dealt to target creature or player this turn.
p392
aV{1}, {T}: Target creature gains banding until end of turn. <i>(Any creatures with banding, and up to one without, can attack in a band. Bands are blocked as a group. If any creatures with banding a player controls are blocking or being blocked by a creature, that player divides that creature's combat damage, not its controller, among any of the creatures it's being blocked by or is blocking.)</i>
p393
aVHaste<br>At the beginning of the end step, return Glitterfang to its owner's hand.
p394
aVCreatures you control get +1/+1 until end of turn.
p395
aVG
p396
aV{T}: Look at target player's hand.
p397
aVTarget creature gets +X/+0 until end of turn.
p398
aVWhen Glimmerpost enters the battlefield, you gain 1 life for each Locus on the battlefield.<br>{T}: Add {1} to your mana pool.
p399
aVFlying<br>When Glint Hawk enters the battlefield, sacrifice it unless you return an artifact you control to its owner's hand.
p400
aVWhenever another artifact enters the battlefield under your control, you may have Glint Hawk Idol become a 2/2 Bird artifact creature with flying until end of turn.<br>{W}: Glint Hawk Idol becomes a 2/2 Bird artifact creature with flying until end of turn.
p401
aVTrample<br>Goblin Gaveleer gets +2/+0 for each Equipment attached to it.
p402
aVInspired- Whenever God-Favored General becomes untapped, you may pay {2}{W}. If you do, put two 1/1 white Soldier enchantment creature tokens onto the battlefield.
p403
aVGreat Sable Stag can't be countered.<br>Protection from blue and from black <i>(This creature can't be blocked, targeted, dealt damage, or enchanted by anything blue or black.)</i>
p404
aVFlying<br>Vigilance <i>(Attacking doesn't cause this creature to tap.)</i>
p405
aV{T}: Each creature attacks this turn if able.
p406
aVWhen Goblin Shortcutter enters the battlefield, target creature can't block this turn.
p407
aV{B}{B}: Destroy target creature blocking Knight of Dusk.
p408
aV{X}{U}: This turn, creatures can't attack unless their controller pays {X} for each attacking creature he or she controls.
p409
aVAt the beginning of the end step, if you control no artifacts, sacrifice Glimmervoid.<br>{T}: Add one mana of any color to your mana pool.
p410
aVGlacial Ray deals 2 damage to target creature or player.<br>Splice onto Arcane {1}{R} <i>(As you cast an Arcane spell, you may reveal this card from your hand and pay its splice cost. If you do, add this card's effects to that spell.)</i>
p411
aVFlying<br>{U}, Sacrifice Glen Elendra Archmage: Counter target noncreature spell.<br>Persist <i>(When this creature dies, if it had no -1/-1 counters on it, return it to the battlefield under its owner's control with a -1/-1 counter on it.)</i>
p412
aVCreatures you control get +1/+2 until end of turn. Untap those creatures.<br>Basic landcycling {1}{W} <i>({1}{W}, Discard this card: Search your library for a basic land card, reveal it, and put it into your hand. Then shuffle your library.)</i>
p413
aVFirst strike, deathtouch<br>Whenever a creature an opponent controls dies, you may return target artifact card from your graveyard to your hand.
p414
aVMountainwalk
p415
aVWhenever a player casts a blue spell, Glade Gnarr gets +2/+2 until end of turn.
p416
aVEnchant creature<br>Enchanted creature gets +0/+2.<br>{W}: Enchanted creature gets +0/+1 until end of turn.
p417
aVEnchant creature<br>Enchanted creature gets +1/+2.
p418
aV{1}{R}: Goblin Ski Patrol gets +2/+0 and gains flying. Its controller sacrifices it at the beginning of the next end step. Activate this ability only once and only if you control a snow Mountain.
p419
aV{X}{X}{1}: Destroy target noncreature artifact with converted mana cost X.
p420
aVAs long as equipped creature is tapped, tapped creatures you control get +2/+0.<br>As long as equipped creature is untapped, untapped creatures you control get +0/+2.<br>{3}: You may tap or untap equipped creature.<br>Equip {3}
p421
aVAt the beginning of your upkeep, if you have 200 or more cards in your library, you win the game.
p422
aVU
p423
aVYou have shroud. <i>(You can't be the target of spells or abilities.)</i>
p424
aVChange the text of target spell or permanent by replacing all instances of one color word with another.<br>Retrace <i>(You may cast this card from your graveyard by discarding a land card in addition to paying its other costs.)</i>
p425
aVFlying<br>{U}, Sacrifice Glen Elendra Archmage: Counter target noncreature spell.<br>Persist <i>(When this creature dies, if it had no -1/-1 counters on it, return it to the battlefield under its owner's control with a -1/-1 counter on it.)</i>
p426
aVProtection from white
p427
aV{1}{R}, Sacrifice a land: Put a +1/+1 counter on Goblin Razerunners.<br>At the beginning of your end step, you may have Goblin Razerunners deal damage equal to the number of +1/+1 counters on it to target player.
p428
aVReach<br>Gloomwidow can block only creatures with flying.
p429
aVWhenever another creature enters the battlefield under your control, creatures you control get +1/+1 until end of turn.
p430
aVAt end of combat, you may exchange control of target creature you control that dealt combat damage to a player this combat and target creature that player controls.<br>Whenever you roll chaos, gain control of target creature you own.
p431
aVFlash<br>Devour 1 <i>(As this enters the battlefield, you may sacrifice any number of creatures. This creature enters the battlefield with that many +1/+1 counters on it.)</i>
p432
aVGraypelt Refuge enters the battlefield tapped.<br>When Graypelt Refuge enters the battlefield, you gain 1 life.<br>{T}: Add {G} or {W} to your mana pool.
p433
aVFlying<br>{5}{W}: The next time damage would be dealt to Glarecaster and/or you this turn, that damage is dealt to target creature or player instead.
p434
aVFlying <i>(This creature can't be blocked except by creatures with flying or reach.)</i>
p435
aVTarget opponent puts the cards from his or her hand on top of his or her library. Search that player's library for that many cards. The player puts those cards into his or her hand, then shuffles his or her library.
p436
aVCumulative upkeep\u2014Pay 2 life. <i>(At the beginning of your upkeep, put an age counter on this permanent, then sacrifice it unless you pay its upkeep cost for each age counter on it.)</i><br>When Glacial Chasm enters the battlefield, sacrifice a land.<br>Creatures you control can't attack.<br>Prevent all damage that would be dealt to you.
p437
aV{2}{G}: Target creature blocks Matsu-Tribe Decoy this turn if able.<br>Whenever Matsu-Tribe Decoy deals combat damage to a creature, tap that creature and it doesn't untap during its controller's next untap step.
p438
aVOther Snake creatures you control get +0/+1.<br>Shamans you control have "{T}: Add {G}{G} to your mana pool."
p439
aVTarget player puts the top ten cards of his or her library into his or her graveyard.
p440
aV{T}: Hammerfist Giant deals 4 damage to each creature without flying and each player.
p441
aVFlying<br>Whenever the first noncreature spell of a turn is cast, counter that spell.
p442
aVConvoke <i>(Each creature you tap while casting this spell reduces its cost by {1} or by one mana of that creature's color.)</i><br>Vigilance
p443
aVWhenever Glass Asp deals combat damage to a player, that player loses 2 life at the beginning of his or her next draw step unless he or she pays {2} before that step.
p444
aVCreatures your opponents control with hexproof can be the targets of spells and abilities you control as though they didn't have hexproof.<br>{3}, Sacrifice Glaring Spotlight: Creatures you control gain hexproof until end of turn and can't be blocked this turn.
p445
aVEnchant creature<br>Cumulative upkeep {snow} <i>(At the beginning of your upkeep, put an age counter on this permanent, then sacrifice it unless you pay its upkeep cost for each age counter on it. {snow} can be paid with one mana from a snow permanent.)</i><br>Enchanted creature gets +3/+3 for each age counter on Glacial Plating.
p446
aV{1}, {T}: Target creature gains banding until end of turn. <i>(Any creatures with banding, and up to one without, can attack in a band. Bands are blocked as a group. If any creatures with banding a player controls are blocking or being blocked by a creature, that player divides that creature's combat damage, not its controller, among any of the creatures it's being blocked by or is blocking.)</i>
p447
aVEnchant creature<br>Enchanted creature gets +0/+2.<br>{W}: Enchanted creature gets +0/+1 until end of turn.
p448
aVTrample<br>Goblin Mutant can't attack if defending player controls an untapped creature with power 3 or greater.<br>Goblin Mutant can't block creatures with power 3 or greater.
p449
aVAt end of combat, destroy all creatures blocking or blocked by Kjeldoran Frostbeast.
p450
aV{T}: Add {1} to your mana pool.<br>{T}: Add {R} or {G} to your mana pool. Karplusan Forest deals 1 damage to you.
p451
aVHipparion can't block creatures with power 3 or greater unless you pay {1}.
p452
aVFlying<br>Threshold- As long as seven or more cards are in your graveyard, Gloomdrifter has "When Gloomdrifter enters the battlefield, nonblack creatures get -2/-2 until end of turn."
p453
aV{B}, Pay 2 life: Draw a card.
p454
aVHammer of Bogardan deals 3 damage to target creature or player.<br>{2}{R}{R}{R}: Return Hammer of Bogardan from your graveyard to your hand. Activate this ability only during your upkeep.
p455
aVAt the beginning of the end step, if you control no artifacts, sacrifice Glimmervoid.<br>{T}: Add one mana of any color to your mana pool.
p456
aVFirst strike<br>{T}: Destroy target artifact if its converted mana cost is equal to the amount of mana in your mana pool.
p457
aV{T}: Target attacking creature gets +1/+1 until end of turn.
p458
aVEnchant creature<br>When enchanted creature dies, that creature's controller loses life equal to its toughness.
p459
aVEnchant creature<br>Enchanted creature gets +1/+2.
p460
aV{W}: Honor Guard gets +0/+1 until end of turn.
p461
aVPrevent all damage that would be dealt to Glittering Lynx.<br>{2}: Until end of turn, Glittering Lynx loses "Prevent all damage that would be dealt to Glittering Lynx." Any player may activate this ability.
p462
aVPrevent all damage that would be dealt to Glittering Lion.<br>{3}: Until end of turn, Glittering Lion loses "Prevent all damage that would be dealt to Glittering Lion." Any player may activate this ability.
p463
aVWhen Gravedigger enters the battlefield, you may return target creature card from your graveyard to your hand.
p464
aVFlying
p465
aVWhen Goblin Arsonist dies, you may have it deal 1 damage to target creature or player.
p466
aVFlying<br>{2}{W}: Choose a color. Creatures you control gain protection from the chosen color until end of turn. Activate this ability only if Glory is in your graveyard.
p467
aVFlying<br>{2}{W}: Choose a color. Creatures you control gain protection from the chosen color until end of turn. Activate this ability only if Glory is in your graveyard.
p468
aVBlack creatures you control have wither. <i>(They deal damage to creatures in the form of -1/-1 counters.)</i>
p469
aV{T}: Add {1} to your mana pool.<br>{G/W}, {T}: Add {G}{G}, {G}{W}, or {W}{W} to your mana pool.
p470
aVAt the beginning of each end step, if an opponent lost 3 or more life this turn, you may draw a card. <i>(Damage causes loss of life.)</i>
p471
aVAs an additional cost to cast Scarscale Ritual, put a -1/-1 counter on a creature you control.<br>Draw two cards.
p472
aVTarget creature becomes blue until end of turn. Untap that creature.<br>Draw a card.
p473
aVTarget player puts the top four cards of his or her library into his or her graveyard.<br>Conspire <i>(As you cast this spell, you may tap two untapped creatures you control that share a color with it. When you do, copy it and you may choose a new target for the copy.)</i>
p474
aVInfect <i>(This creature deals damage to creatures in the form of -1/-1 counters and to players in the form of poison counters.)</i>
p475
aVEnchant creature<br>Enchanted creature has infect.<br>At the beginning of your upkeep, put a -1/-1 counter on enchanted creature.<br>When Glistening Oil is put into a graveyard from the battlefield, return Glistening Oil to its owner's hand.
p476
aV{T}: Target creature gets +4/+4 until end of turn. Activate this ability only if Greenhilt Trainee's power is 4 or greater.
p477
aVFlying<br>{1}{R}: Scourge of Kher Ridges deals 2 damage to each creature without flying.<br>{5}{R}: Scourge of Kher Ridges deals 6 damage to each other creature with flying.
p478
aVWhenever a player casts an instant or sorcery spell with a single target, he or she copies that spell for each other spell, permanent, card not on the battlefield, and/or player the spell could target. Each copy targets a different one of them.<br>Whenever you roll , choose target creature. Each player except that creature's controller puts a token that's a copy of that creature onto the battlefield.
p479
aVAs long as it's your turn, creatures you control get +2/+0.<br>As long as it's not your turn, creatures you control get +0/+2.
p480
aVNoncreature spells cost {1} more to cast.
p481
aVAmplify 1 <i>(As this creature enters the battlefield, put a +1/+1 counter on it for each Beast card you reveal in your hand.)</i>
p482
aV{7}{U}: Glintwing Invoker gets +3/+3 and gains flying until end of turn.
p483
aVGoblin Raider can't block.
p484
aVPut target creature on top of its owner's library.
p485
aVVigilance<br>When Glimmerpoint Stag enters the battlefield, exile another target permanent. Return that card to the battlefield under its owner's control at the beginning of the next end step.
p486
aVVigilance
p487
aVFlying<br>Whenever Abyssal Specter deals damage to a player, that player discards a card.
p488
aVWhen Hunted Wumpus enters the battlefield, each other player may put a creature card from his or her hand onto the battlefield.
p489
aVFlying<br>{U}: Glimmering Angel gains shroud until end of turn. <i>(It can't be the target of spells or abilities.)</i>
p490
aVEach player chooses from the lands he or she controls a land of each basic land type, then sacrifices the rest.
p491
aV{5}{R}{R}: Monstrosity 3. <i>(If this creature isn't monstrous, put three +1/+1 counters on it and it becomes monstrous.)</i>
p492
aVWhenever another artifact enters the battlefield under your control, Glassdust Hulk gets +1/+1 until end of turn and is unblockable this turn.<br>Cycling {W/U} <i>({W/U}, Discard this card: Draw a card.)</i>
p493
aVAs long as it's your turn, creatures you control get +2/+0.<br>As long as it's not your turn, creatures you control get +0/+2.
p494
aVWhenever you cast a multicolored spell, Gloryscale Viashino gets +3/+3 until end of turn.
p495
aVWhite spells cost {3} more to cast.<br>Activated abilities of white enchantments cost {3} more to activate.
p496
aVDefender <i>(This creature can't attack.)</i>
p497
aV{1}, {T}: Target creature gains banding until end of turn. <i>(Any creatures with banding, and up to one without, can attack in a band. Bands are blocked as a group. If any creatures with banding a player controls are blocking or being blocked by a creature, that player divides that creature's combat damage, not its controller, among any of the creatures it's being blocked by or is blocking.)</i>
p498
aVDestroy target artifact or enchantment.<br>Conspire <i>(As you cast this spell, you may tap two untapped creatures you control that share a color with it. When you do, copy it and you may choose a new target for the copy.)</i>
p499
aVWhenever you cast a noncreature spell, you may pay {1}. If you do, put a 1/1 red Goblin creature token with haste onto the battlefield.
p500
aVHurricane deals X damage to each creature with flying and each player.
p501
aVFlying<br>Whenever Hypnotic Specter deals damage to an opponent, that player discards a card at random.
p502
aVSacrifice Goblin Firestarter: Goblin Firestarter deals 1 damage to target creature or player. Activate this ability only during your turn, before attackers are declared.
p503
aVWhenever Goblin General attacks, Goblin creatures you control get +1/+1 until end of turn.
p504
aV{T}: Add {B} or {G} to your mana pool.<br>{B}{G}, {T}, Sacrifice Golgari Cluestone: Draw a card.
p505
aV{U}, {T}: Gliding Licid loses this ability and becomes an Aura enchantment with enchant creature. Attach it to target creature. You may pay {U} to end this effect.<br>Enchanted creature has flying.
p506
aVAt end of combat, destroy all creatures that were blocked by target Wall this turn.
p507
aVWhenever a player casts an instant spell, counter it unless that player pays {X}, where X is its converted mana cost.
p508
aVWhenever an opponent casts an instant spell other than the first instant spell that player casts each turn, Ichneumon Druid deals 4 damage to him or her.
p509
aV{T}: You may tap or untap target artifact an opponent controls.
p510
aVAny number of target creatures become white until end of turn.
p511
aV<i>({B/G} can be paid with either {B} or {G}.)</i><br>Trample<br>At the beginning of your end step, return to your hand all creature cards in your graveyard that were put there from the battlefield this turn.
p512
aVEnchant tapped creature<br>Enchanted creature doesn't untap during its controller's untap step.
p513
aVPut two 1/1 green Elf Warrior creature tokens onto the battlefield. Clash with an opponent. If you win, those creatures gain deathtouch until end of turn. <i>(Each clashing player reveals the top card of his or her library, then puts that card on the top or bottom. A player wins if his or her card had a higher converted mana cost. Any amount of damage a creature with deathtouch deals to a creature is enough to destroy it.)</i>
p514
aVWhen Seedguide Ash dies, you may search your library for up to three Forest cards and put them onto the battlefield tapped. If you do, shuffle your library.
p515
aVFlying<br>Whenever Goldenglow Moth blocks, you may gain 4 life.
p516
asS'costs'
p517
(lp518
S'0'
p519
aV{3}{W}{W}
p520
aV{1}
p521
aV{2}{B}
p522
aV{R}
p523
aV{3}{W}
p524
ag519
aV{1}
p525
aV{2}{B}
p526
aV{3}{W}
p527
ag519
aV{2}{W}{W}
p528
aV{W}
p529
aV{X}{W}
p530
ag519
aV{2}{G}{G}
p531
aV{5}{G}{G}
p532
aV{G}
p533
aV{1}{W}{W}
p534
aV{3}{U}
p535
ag519
aV{1}{R}
p536
aV{3}{U}
p537
aV{3}{U}
p538
aV{B}{G}{G}
p539
aV{1}{G}{G}
p540
aV{5}{G}
p541
aV{1}
p542
aV{2}{B}
p543
ag519
aV{2}{R}
p544
aV{U}{B}{R}{G}
p545
aV{1}{W}{W}
p546
aV{1}{W}
p547
aV{4}{B}
p548
aV{1}{U}
p549
aV{3}{U}
p550
aV{4}{W}
p551
aV{2}{G}
p552
aV{B}
p553
aV{4}{R}{W}{W}
p554
ag519
aV{1}{U/B}{U/B}{U/B}
p555
aV{2}{G}
p556
aV{4}{W}{W}
p557
aV{1}{W}
p558
aV{4}{B}
p559
ag519
aV{G}
p560
aV{1}{R}
p561
aV{U}{B}
p562
aV{3}{B/G}{B/G}{B/G}
p563
aV{5}
p564
aV{2}{G}{W}
p565
aV{1}{G}{G}
p566
aV{2}{W}{W}
p567
aV{2}{W}{W}
p568
aV{1}
p569
aV{2}{B}
p570
aV{2}{R}
p571
aV{2}{W}{U}
p572
ag519
aV{2}{U}
p573
aV{3}{B}
p574
aV{2}{U}
p575
aV{1}
p576
ag519
aV{2}{G}{G}
p577
aV{4}
p578
aV{1}{B}
p579
aV{2}{U}
p580
aV{1}{W}{W}
p581
aV{W}
p582
aV{2}{W}
p583
aV{1}{W}{W}
p584
aV{7}{G}
p585
aV{2}{B}
p586
aV{3}{W}{W}
p587
aV{3}{W}{W}
p588
aV{4}{W/U}
p589
aV{1}{U/B}{U/B}{U/B}
p590
aV{2}{G}
p591
aV{3}{G}
p592
aV{1}{G}
p593
aV{3}{B}{B}
p594
aV{1}{G}
p595
aV{G}
p596
aV{B}{B}
p597
aV{G}{W}
p598
ag519
aV{2}{R}{W}
p599
aV{2}{W}
p600
aV{5}{G}
p601
aV{4}{U}
p602
aV{1}{W}{W}
p603
aV{1}{U}
p604
aV{3}{G}
p605
aV{1}{W}
p606
aV{4}{B}
p607
aV{1}{W}{W}
p608
aV{3}{W}
p609
aV{4}{W}
p610
aV{2}{R}{R}
p611
aV{3}{W}{U}
p612
aV{2}{R}{W}
p613
aV{1}{R}{G}{W}
p614
aV{2}{B}
p615
aV{2}{U}
p616
aV{1}
p617
aV{1}{G}
p618
aV{5}{U}
p619
aV{1}
p620
aV{2}{B}
p621
aV{1}
p622
aV{2}{B}
p623
aV{4}{R}{W}
p624
aV{2}{U}
p625
aV{B}
p626
aV{U}
p627
aV{G}
p628
aV{R}
p629
aV{W}
p630
aV{3}{B/G}{B/G}{B/G}
p631
aV{2}{U}
p632
aV{2}{W}
p633
aV{4}{G}
p634
ag519
asS'names'
p635
(lp636
VGlacial Fortress
p637
aVGladecover Scout
p638
aVGlasses of Urza
p639
aVGloom
p640
aVGlitterfang
p641
aVGlorious Charge
p642
aVGlacial Fortress
p643
aVGlasses of Urza
p644
aVGloom
p645
aVGlimmerpoint Stag
p646
aVGlimmerpost
p647
aVGlint Hawk
p648
aVGlint Hawk Idol
p649
aVGlimpse the Sun God
p650
aVGlacial Fortress
p651
aVGlorious Charge
p652
aVGladecover Scout
p653
aVGlimpse the Future
p654
aVGlorious Anthem
p655
aVGlowing Anemone
p656
aVGlimmervoid
p657
aVGlacial Ray
p658
aVGlen Elendra Archmage
p659
aVGleam of Resistance
p660
aVGlissa, the Traitor
p661
aVGlissa's Courier
p662
aVGlade Gnarr
p663
aVGlasses of Urza
p664
aVGloom
p665
aVGlacial Chasm
p666
aVGlacial Crevasses
p667
aVGlint-Eye Nephilim
p668
aVGlorious Anthem
p669
aVGlory Seeker
p670
aVGluttonous Zombie
p671
aVGlamerdye
p672
aVGlen Elendra Archmage
p673
aVGleam of Resistance
p674
aVGluttonous Slime
p675
aVGloom Surgeon
p676
aVGloomwidow
p677
aVGlen Elendra
p678
aVGlen Elendra Liege
p679
aVGluttonous Slime
p680
aVGlarecaster
p681
aVGlory Seeker
p682
aVGluttonous Zombie
p683
aVGlacial Chasm
p684
aVGlimpse of Nature
p685
aVGlacial Ray
p686
aVGlimpse the Unthinkable
p687
aVGleancrawler
p688
aVGlass Golem
p689
aVGlare of Subdual
p690
aVGlass Asp
p691
aVGlaring Spotlight
p692
aVGlacial Plating
p693
aVGlasses of Urza
p694
aVGloom
p695
aVGlacial Crevasses
p696
aVGlaciers
p697
aVGlacial Chasm
p698
aVGlacial Wall
p699
aVGloomdrifter
p700
aVGlacial Wall
p701
aVGlasses of Urza
p702
aVGlimmervoid
p703
aVGlissa Sunseeker
p704
aVGlory Seeker
p705
aVGlaze Fiend
p706
aVGlacial Wall
p707
aVGlorious Anthem
p708
aVGlittering Lynx
p709
aVGlittering Lion
p710
aVGlacial Crasher
p711
aVGloomhunter
p712
aVGlory Seeker
p713
aVGlory
p714
aVGlory
p715
aVGlamer Spinners
p716
aVGlen Elendra Liege
p717
aVGloomwidow
p718
aVGloomwidow's Feast
p719
aVGleeful Sabotage
p720
aVGloomlance
p721
aVGlissa's Scorn
p722
aVGlistener Elf
p723
aVGlistening Oil
p724
aVGlittering Wish
p725
aVGlimmervoid Basin
p726
aVGlory of Warfare
p727
aVGlowrider
p728
aVGlowering Rogon
p729
aVGlintwing Invoker
p730
aVGlorious Anthem
p731
aVGlare of Heresy
p732
aVGlimmerpoint Stag
p733
aVGlory Seeker
p734
aVGluttonous Zombie
p735
aVGlorious Anthem
p736
aVGlimmering Angel
p737
aVGlobal Ruin
p738
aVGluttonous Cyclops
p739
aVGlassdust Hulk
p740
aVGlory of Warfare
p741
aVGloryscale Viashino
p742
aVGloom
p743
aVGlacial Wall
p744
aVGlasses of Urza
p745
aVGleeful Sabotage
p746
aVGlacial Stalker
p747
aVGlasses of Urza
p748
aVGloom
p749
aVGlasses of Urza
p750
aVGloom
p751
aVGleam of Battle
p752
aVGliding Licid
p753
aVGlyph of Doom
p754
aVGlyph of Delusion
p755
aVGlyph of Reincarnation
p756
aVGlyph of Destruction
p757
aVGlyph of Life
p758
aVGleancrawler
p759
aVGlimmerdust Nap
p760
aVGlarewielder
p761
aVGlen Elendra Pranksters
p762
aVGlacial Fortress
p763
asS'toughs'
p764
(lp765
S'N/A'
p766
aV4
p767
ag766
ag766
ag767
ag766
ag766
ag766
ag766
aV2
p768
ag766
ag768
ag766
ag766
ag766
ag766
ag767
ag766
ag766
aV1
p769
ag766
ag766
ag767
ag766
aV3
p770
aV5
p771
ag769
ag766
ag766
ag766
ag766
ag768
ag766
ag768
ag770
ag766
aV*
p772
ag766
ag768
ag771
ag771
ag766
ag771
aV6
p773
ag769
ag769
ag768
ag766
ag766
ag766
ag766
ag773
ag766
ag766
ag767
ag766
ag766
ag766
ag766
ag766
ag766
ag766
ag768
ag768
ag767
ag766
ag766
ag770
aV0
p774
ag766
ag767
ag766
ag769
ag768
ag771
ag773
ag769
ag770
ag768
ag769
ag770
ag770
ag766
ag766
ag766
ag766
aV10
p775
ag766
ag766
ag766
ag766
ag769
ag767
ag770
ag766
ag766
ag769
ag768
ag768
ag766
ag768
ag766
ag769
ag766
ag766
ag767
ag766
ag767
ag766
ag766
ag771
ag766
ag766
ag766
ag766
ag766
ag768
ag766
ag766
ag766
ag766
ag766
ag773
ag766
ag771
ag769
ag766
asS'artists'
p776
(lp777
S''
p778
ag778
aVDouglas Schuler
p779
aVDan Frazier
p780
aVRon Spencer
p781
aVIzzy
p782
aVTrevor Claxton
p783
aVDouglas Shuler
p784
aVDan Frazier
p785
aVRyan Pancoast
p786
aVMatt Cavotta
p787
aVDave Allsop
p788
aVDave Allsop
p789
aVAleksi Briclot
p790
aVFranz Vohwinkel
p791
aVIzzy
p792
aVAllen Williams
p793
aVAndrew Robinson
p794
aVKev Walker
p795
aVPete Venters
p796
ag778
ag778
ag778
ag778
ag778
ag778
aVDaren Bader
p797
aVDouglas Shuler
p798
aVDan Frazier
p799
aVLiz Danforth
p800
aVMike Raabe
p801
aVMark Zug
p802
aVKev Walker
p803
aVDave Dorman
p804
aVThomas M. Baxa
p805
aVRalph Horsley
p806
aVWarren Mahy
p807
aVMatt Stewart
p808
aVTrevor Claxton
p809
aVSvetlin Velinov
p810
aVChris Rahn
p811
aVAleksi Briclot
p812
ag778
ag778
aVDan Frazier
p813
aVDave Dorman
p814
aVThomas M. Baxa
p815
aVMike Bierek
p816
aVShishizaru
p817
aVJim Murray
p818
aVBrandon Kitkouski
p819
aVDave Allsop
p820
aVGlen Angus
p821
aVZoltan Boros & Gabor Szikszai
p822
aVRichard Kane Ferguson
p823
aVAdam Paquette
p824
aVBrian Despain
p825
aVDouglas Schuler
p826
aVDan Frazier
p827
aVMike Raabe
p828
aVMark Tedin
p829
aVLiz Danforth
p830
aVDameon Willich
p831
aVAdam Rex
p832
aVDameon Willich
p833
aVDouglas Shuler
p834
aVLars Grant-West
p835
aVBrom
p836
aVMatt Cavotta
p837
aVJoshua Hagler
p838
aVHeather Hudson
p839
aVTerese Nielsen
p840
aVDan Frazier
p841
aVDon Hazeltine
p842
aVMark Winters
p843
aVLars Grant-West
p844
aVMatt Cavotta
p845
aVDonato Giancola
p846
aVDonato Giancola
p847
aVJesper Ejsing
p848
aVKev Walker
p849
aVMark Tedin
p850
aVThomas M. Baxa
p851
aVTodd Lockwood
p852
aVZoltan Boros & Gabor Szikszai
p853
ag778
ag778
ag778
aVJohn Donahue
p854
aVLars Grant-West
p855
aVParente
p856
aVScott M. Fischer
p857
aVKev Walker
p858
aVJim Nelson
p859
aVKev Walker
p860
aVRaymond Swanland
p861
aVRyan Pancoast
p862
aVDave Dorman
p863
aVThomas M. Baxa
p864
aVKev Walker
p865
aVCiruelo
p866
aVGreg Staples
p867
aVSteve Prescott
p868
aVFranz Vohwinkel
p869
aVParente
p870
aVVolkan Baga
p871
aVDouglas Shuler
p872
aVGreg Simanson
p873
aVDouglas Shuler
p874
aVTodd Lockwood
p875
aVDaarken
p876
aVDouglas Schuler
p877
aVDan Frazier
p878
aVDouglas Shuler
p879
aVDan Frazier
p880
aVRaymond Swanland
p881
aVHeather Hudson
p882
aVSusan Van Camp
p883
aVSusan Van Camp
p884
aVSusan Van Camp
p885
aVSusan Van Camp
p886
aVSusan Van Camp
p887
aVJeremy Jarvis
p888
aVGreg Staples
p889
aVNils Hamm
p890
aVOmar Rayyan
p891
aVFranz Vohwinkel
p892
asS'powers'
p893
(lp894
g766
ag769
ag766
ag766
ag773
ag766
ag766
ag766
ag766
ag768
ag766
ag769
ag766
ag766
ag766
ag766
ag769
ag766
ag766
ag770
ag766
ag766
ag771
ag766
ag770
ag771
ag769
ag766
ag766
ag766
ag766
ag768
ag766
ag767
ag770
ag766
ag772
ag766
ag768
ag768
ag770
ag766
ag771
ag770
ag769
ag769
ag768
ag766
ag766
ag766
ag766
ag773
ag766
ag766
ag771
ag766
ag766
ag766
ag766
ag766
ag766
ag766
ag770
ag768
ag771
ag766
ag766
ag769
ag774
ag766
ag768
ag766
ag769
ag768
ag768
ag769
ag768
ag770
ag768
ag768
ag770
ag767
ag766
ag766
ag766
ag766
aV10
p895
ag766
ag766
ag766
ag766
ag768
ag767
ag770
ag766
ag766
ag774
ag768
ag768
ag766
ag768
ag766
ag768
ag766
ag766
ag771
ag766
ag768
ag766
ag766
ag767
ag766
ag766
ag766
ag766
ag766
ag768
ag766
ag766
ag766
ag766
ag766
ag773
ag766
ag770
ag769
ag766
asS'types'
p896
(lp897
VLand
p898
aVCreature - Elf Scout
p899
aVArtifact
p900
aVEnchantment
p901
aVCreature - Spirit
p902
aVInstant
p903
aVLand
p904
aVArtifact
p905
aVEnchantment
p906
aVCreature - Elk
p907
aVLand - Locus
p908
aVCreature - Bird
p909
aVArtifact
p910
aVInstant
p911
aVLand
p912
aVInstant
p913
aVCreature - Elf Scout
p914
aVSorcery
p915
aVEnchantment
p916
aVCreature - Jellyfish Beast
p917
aVLand
p918
aVInstant - Arcane
p919
aVCreature - Faerie Wizard
p920
aVInstant
p921
aVLegendary Creature - Zombie Elf
p922
aVCreature - Horror
p923
aVCreature - Beast
p924
aVArtifact
p925
aVEnchantment
p926
aVLand
p927
aVEnchantment
p928
aVCreature - Nephilim
p929
aVEnchantment
p930
aVCreature - Human Soldier
p931
aVCreature - Zombie
p932
aVInstant
p933
aVCreature - Faerie Wizard
p934
aVInstant
p935
aVCreature - Ooze
p936
aVCreature - Spirit
p937
aVCreature - Spider
p938
aVPlane - Lorwyn
p939
aVCreature - Faerie Knight
p940
aVCreature - Ooze
p941
aVCreature - Bird Cleric
p942
aVCreature - Human Soldier
p943
aVCreature - Zombie
p944
aVLand
p945
aVSorcery
p946
aVInstant - Arcane
p947
aVSorcery
p948
aVCreature - Insect Horror
p949
aVArtifact Creature - Golem
p950
aVEnchantment
p951
aVCreature - Snake
p952
aVArtifact
p953
aVSnow Enchantment - Aura
p954
aVArtifact
p955
aVEnchantment
p956
aVEnchantment
p957
aVEnchantment
p958
aVLand
p959
aVCreature - Wall
p960
aVCreature - Zombie Minion
p961
aVCreature - Wall
p962
aVArtifact
p963
aVLand
p964
aVLegendary Creature - Elf
p965
aVCreature - Human Soldier
p966
aVArtifact Creature - Illusion
p967
aVCreature - Wall
p968
aVEnchantment
p969
aVCreature - Cat
p970
aVCreature - Cat
p971
aVCreature - Elemental
p972
aVCreature - Bat
p973
aVCreature - Human Soldier
p974
aVCreature - Incarnation
p975
aVCreature - Incarnation
p976
aVCreature - Faerie Wizard
p977
aVCreature - Faerie Knight
p978
aVCreature - Spider
p979
aVInstant
p980
aVSorcery
p981
aVSorcery
p982
aVInstant
p983
aVCreature - Elf Warrior
p984
aVEnchantment - Aura
p985
aVSorcery
p986
aVPlane - Mirrodin
p987
aVEnchantment
p988
aVCreature - Human Cleric
p989
aVCreature - Beast
p990
aVCreature - Human Wizard Mutant
p991
aVEnchantment
p992
aVSorcery
p993
aVCreature - Elk
p994
aVCreature - Human Soldier
p995
aVCreature - Zombie
p996
aVEnchantment
p997
aVCreature - Angel
p998
aVSorcery
p999
aVCreature - Cyclops
p1000
aVArtifact Creature - Golem
p1001
aVEnchantment
p1002
aVCreature - Viashino Soldier
p1003
aVEnchantment
p1004
aVCreature - Wall
p1005
aVArtifact
p1006
aVSorcery
p1007
aVCreature - Elemental
p1008
aVArtifact
p1009
aVEnchantment
p1010
aVArtifact
p1011
aVEnchantment
p1012
aVEnchantment
p1013
aVCreature - Licid
p1014
aVInstant
p1015
aVInstant
p1016
aVInstant
p1017
aVInstant
p1018
aVInstant
p1019
aVCreature - Insect Horror
p1020
aVEnchantment - Aura
p1021
aVCreature - Elemental Shaman
p1022
aVCreature - Faerie Wizard
p1023
aVLand
p1024
asS'numbers'
p1025
(lp1026
V227
p1027
aV178
p1028
aV111
p1029
aV112
p1030
aV100
p1031
aV15
p1032
aV225
p1033
aV21
p1034
aV223
p1035
aV9
p1036
aV227
p1037
aV10
p1038
aV156
p1039
aV13
p1040
aV226
p1041
aV11
p1042
aV176
p1043
aV58
p1044
aV17
p1045
aV81
p1046
ag778
ag778
ag778
ag778
aV96
p1047
aV80
p1048
aV78
p1049
aV141
p1050
aV142
p1051
aV229
p1052
aV127
p1053
aV115
p1054
aV16
p1055
aV17
p1056
aV134
p1057
aV21
p1058
aV22
p1059
aV8
p1060
aV83
p1061
aV104
p1062
aV180
p1063
ag1036
aV90
p1064
aV91
p1065
aV30
p1066
aV31
p1067
aV151
p1068
aV7
p1069
aV210
p1070
aV168
p1071
aV208
p1072
aV247
p1073
aV261
p1074
aV207
p1075
aV197
p1076
aV229
p1077
ag1069
aV115
p1078
aV116
p1079
aV155
p1080
aV219
p1081
aV232
p1082
aV287
p1083
aV61
p1084
aV72
p1085
aV287
p1086
aV281
p1087
aV120
p1088
ag1069
aV77
p1089
aV78
p1090
aV17
p1091
aV11
p1092
aV10
p1093
aV57
p1094
aV111
p1095
aV22
p1096
aV11
p1097
aV11
p1098
aV141
p1099
aV163
p1100
aV117
p1101
aV118
p1102
aV116
p1103
aV67
p1104
aV110
p1105
aV111
p1106
aV62
p1107
aV156
p1108
aV12
p1109
aV88
p1110
aV15
p1111
aV128
p1112
aV40
p1113
aV15
p1114
aV15
p1115
aV70
p1116
aV21
p1117
aV136
p1118
aV20
p1119
aV17
p1120
aV18
p1121
aV99
p1122
ag1069
aV98
p1123
aV120
p1124
aV33
p1125
aV69
p1126
aV288
p1127
aV58
p1128
aV41
p1129
aV156
p1130
aV157
p1131
aV203
p1132
aV83
p1133
aV73
p1134
aV39
p1135
aV22
p1136
aV44
p1137
aV68
p1138
aV96
p1139
aV112
p1140
aV64
p1141
aV68
p1142
aV171
p1143
aV67
p1144
aV225
p1145
as.