(dp0
S'rares'
p1
(lp2
VUncommon
p3
aVCommon
p4
aVCommon
p5
aVCommon
p6
aVCommon
p7
aVRare
p8
aVCommon
p9
aVCommon
p10
aVRare
p11
aVRare
p12
aVUncommon
p13
aVCommon
p14
aVUncommon
p15
aVCommon
p16
aVCommon
p17
aVRare
p18
aVUncommon
p19
aVRare
p20
aVCommon
p21
aVRare
p22
aVCommon
p23
aVUncommon
p24
aVCommon
p25
aVUncommon
p26
aVCommon
p27
aVCommon
p28
aVUncommon
p29
aVRare
p30
aVUncommon
p31
aVUncommon
p32
aVUncommon
p33
aVCommon
p34
aVUncommon
p35
aVUncommon
p36
aVUncommon
p37
aVRare
p38
aVUncommon
p39
aVUncommon
p40
aVCommon
p41
aVCommon
p42
aVCommon
p43
aVCommon
p44
aVRare
p45
aVRare
p46
aVCommon
p47
aVCommon
p48
aVCommon
p49
aVCommon
p50
aVCommon
p51
aVUncommon
p52
aVRare
p53
aVRare
p54
aVCommon
p55
aVUncommon
p56
aVUncommon
p57
aVUncommon
p58
aVCommon
p59
aVUncommon
p60
aVCommon
p61
aVCommon
p62
aVCommon
p63
aVUncommon
p64
aVCommon
p65
aVUncommon
p66
aVRare
p67
aVCommon
p68
aVRare
p69
aVRare
p70
aVCommon
p71
aVUncommon
p72
aVRare
p73
aVRare
p74
aVRare
p75
aVRare
p76
aVUncommon
p77
aVUncommon
p78
asS'editns'
p79
(lp80
VMagic: The Gathering-Commander
p81
aVMagic 2012
p82
aVLimited Edition Beta
p83
aVMagic 2013
p84
aVMagic 2013
p85
aVAlliances
p86
aVAlliances
p87
aVAlliances
p88
aVMagic 2010
p89
aVMagic 2014 Core Set
p90
aVTenth Edition
p91
aVMercadian Masques
p92
aVVintage Masters
p93
aVVintage Masters
p94
aVMirrodin Besieged
p95
aVApocalypse
p96
aVMasters Edition III
p97
aVMasters Edition III
p98
aVRevised Edition
p99
aVMasters Edition II
p100
aVGuildpact
p101
aVNinth Edition
p102
aVAvacyn Restored
p103
aVPlanechase 2012 Edition
p104
aVOnslaught
p105
aVOnslaught
p106
aVOnslaught
p107
aVOnslaught
p108
aVOnslaught
p109
aVChampions of Kamigawa
p110
aVChampions of Kamigawa
p111
aVRavnica: City of Guilds
p112
aVCommander 2013 Edition
p113
aVCommander 2013 Edition
p114
aVTime Spiral
p115
aVReturn to Ravnica
p116
aVReturn to Ravnica
p117
aVGatecrash
p118
aVGatecrash
p119
aVGatecrash
p120
aVColdsnap
p121
aVUnlimited Edition
p122
aVTorment
p123
aVZendikar
p124
aVZendikar
p125
aVShards of Alara
p126
aVShards of Alara
p127
aVProphecy
p128
aVRise of the Eldrazi
p129
aVRise of the Eldrazi
p130
aVRise of the Eldrazi
p131
aVJudgment
p132
aVJudgment
p133
aVShadowmoor
p134
aVNew Phyrexia
p135
aVFifth Dawn
p136
aVScourge
p137
aVUrza's Saga
p138
aVTheros
p139
aVWeatherlight
p140
aVMagic: The Gathering\u2014Conspiracy
p141
aVEighth Edition
p142
aVWorldwake
p143
aVKhans of Tarkir
p144
aVInnistrad
p145
aVLimited Edition Alpha
p146
aVVisions
p147
aVMasters Edition IV
p148
aVDissension
p149
aVLorwyn
p150
aVLorwyn
p151
aVArabian Nights
p152
aVPortal Three Kingdoms
p153
aVPortal Three Kingdoms
p154
aVDuel Decks: Heroes vs. Monsters
p155
aVPlaneshift
p156
asS'ids'
p157
(lp158
V247397
p159
aV220095
p160
aV548
p161
aV279701
p162
aV279861
p163
aV3046
p164
aV3176
p165
aV3175
p166
aV193766
p167
aV370603
p168
aV129588
p169
aV20404
p170
aV382971
p171
aV382972
p172
aV213768
p173
aV27169
p174
aV201280
p175
aV201284
p176
aV1347
p177
aV184548
p178
aV107688
p179
aV83217
p180
aV240002
p181
aV279846
p182
aV39420
p183
aV39432
p184
aV39509
p185
aV39602
p186
aV39839
p187
aV79088
p188
aV79194
p189
aV89030
p190
aV376360
p191
aV376361
p192
aV108889
p193
aV265406
p194
aV265392
p195
aV366260
p196
aV366392
p197
aV366234
p198
aV121194
p199
aV850
p200
aV32221
p201
aV183418
p202
aV180498
p203
aV174805
p204
aV175103
p205
aV24573
p206
aV193445
p207
aV193602
p208
aV193612
p209
aV29890
p210
aV36431
p211
aV158773
p212
aV230074
p213
aV51138
p214
aV46464
p215
aV8806
p216
aV373605
p217
aV4578
p218
aV382281
p219
aV45376
p220
aV197872
p221
aV386549
p222
aV234849
p223
aV252
p224
aV3738
p225
aV202539
p226
aV107583
p227
aV139665
p228
aV140190
p229
aV918
p230
aV10494
p231
aV10597
p232
aV373364
p233
aV19141
p234
asS'texts'
p235
(lp236
VDefender, flying<br>Prevent all combat damage that would be dealt to Guard Gomazoa.
p237
aVIncinerate deals 3 damage to target creature or player. A creature dealt damage this way can't be regenerated this turn.
p238
aVFlying<br>Whenever Hypnotic Specter deals damage to an opponent, that player discards a card at random.
p239
aVVigilance <i>(Attacking doesn't cause this creature to tap.)</i>
p240
aVDefender <i>(This creature can't attack.)</i><br>Exalted <i>(Whenever a creature you control attacks alone, that creature gets +1/+1 until end of turn.)</i>
p241
aV{T}: Exile a card from your hand face down. You may look at it for as long as it remains exiled.<br>{T}: Return a card you own exiled with Gustha's Scepter to your hand.<br>When you lose control of Gustha's Scepter, put all cards exiled with Gustha's Scepter into their owner's graveyard.
p242
aVWhen Insidious Bookworms dies, you may pay {1}{B}. If you do, target player discards a card at random.
p243
aVBanding <i>(Any creatures with banding, and up to one without, can attack in a band. Bands are blocked as a group. If any creatures with banding you control are blocking or being blocked by a creature, you divide that creature's combat damage, not its controller, among any of the creatures it's being blocked by or is blocking.)</i>
p244
aVFlying<br>When Howling Banshee enters the battlefield, each player loses 3 life.
p245
aVPut a 2/2 green Wolf creature token onto the battlefield for each Forest you control.
p246
aVEnchant creature<br>Enchanted creature gets +1/+2.
p247
aVEnchant creature<br>Prevent all damage that would be dealt by enchanted creature.
p248
aV{G}, {T}: Reveal cards from the top of your library until you reveal a basic land card. Put that card into your hand and all other cards revealed this way into your graveyard.
p249
aVUntil end of turn, whenever a player taps an Island for mana, that player adds {U} to his or her mana pool <i>(in addition to the mana the land produces)</i>.
p250
aV{U}: Gust-Skimmer gains flying until end of turn.
p251
aVReveal the cards in your library. An opponent chooses from among them a creature card, a land card, and a noncreature, nonland card. You put the chosen cards into your hand. Then shuffle your library.
p252
aV{T}: Target player discards a card at random. Activate this ability only during your turn.
p253
aVAt the beginning of your upkeep, Halfdane's power and toughness become equal to the power and toughness of target creature other than Halfdane until the end of your next upkeep.
p254
aVWhenever a player casts a red spell, you may pay {1}. If you do, you gain 1 life.
p255
aVIf Heart of Yavimaya would enter the battlefield, sacrifice a Forest instead. If you do, put Heart of Yavimaya onto the battlefield. If you don't, put it into its owner's graveyard.<br>{T}: Add {G} to your mana pool.<br>{T}: Target creature gets +1/+1 until end of turn.
p256
aVEnchant creature<br>Creatures you control that are enchanted get +1/+1.<br>Whenever a creature you control that's enchanted becomes blocked, it gets +1/+1 until end of turn for each creature blocking it.
p257
aVKird Ape gets +1/+2 as long as you control a Forest.
p258
aVSoulbond <i>(You may pair this creature with another unpaired creature when either enters the battlefield. They remain paired for as long as you control both of them.)</i><br>As long as Hanweir Lancer is paired with another creature, both creatures have first strike.
p259
aVSacrifice all creatures you control, then put that many 4/4 red Hellion creature tokens onto the battlefield.
p260
aVWhenever Gustcloak Runner becomes blocked, you may untap it and remove it from combat.
p261
aVFlying<br>Whenever Gustcloak Harrier becomes blocked, you may untap it and remove it from combat.
p262
aVWhenever Gustcloak Sentinel becomes blocked, you may untap it and remove it from combat.
p263
aVFlying<br>Whenever a creature you control becomes blocked, you may untap that creature and remove it from combat.
p264
aVFlying<br>Whenever Gustcloak Skirmisher becomes blocked, you may untap it and remove it from combat.
p265
aVSearch your library for four cards with different names and reveal them. Target opponent chooses two of those cards. Put the chosen cards into your graveyard and the rest into your hand. Then shuffle your library.
p266
aV{T}: Add {1} to your mana pool.<br>{T}: Add {G} or {W} to your mana pool. Tranquil Garden doesn't untap during your next untap step.
p267
aVReturn target permanent to its owner's hand. Its controller loses 3 life.<br>Transmute {1}{U}{B} <i>({1}{U}{B}, Discard this card: Search your library for a card with the same converted mana cost as this card, reveal it, and put it into your hand. Then shuffle your library. Transmute only as a sorcery.)</i>
p268
aVDefender, flying<br>Prevent all combat damage that would be dealt to Guard Gomazoa.
p269
aVWhenever you cast an instant or sorcery spell, Guttersnipe deals 2 damage to each opponent.
p270
aVFlanking <i>(Whenever a creature without flanking blocks this creature, the blocking creature gets -1/-1 until end of turn.)</i><br>Whenever Gustcloak Cavalier attacks, you may tap target creature.<br>Whenever Gustcloak Cavalier becomes blocked, you may untap Gustcloak Cavalier and remove it from combat.
p271
aVUnleash <i>(You may have this creature enter the battlefield with a +1/+1 counter on it. It can't block as long as it has a +1/+1 counter on it.)</i><br>{2}{B}{R}, Sacrifice Hellhole Flailer: Hellhole Flailer deals damage equal to its power to target player.
p272
aVTarget player gains 7 life.
p273
aVFlying<br>Guardian of the Gateless can block any number of creatures.<br>Whenever Guardian of the Gateless blocks, it gets +1/+1 until end of turn for each creature it's blocking.
p274
aVEnchant creature<br>Enchanted creature has protection from multicolored.
p275
aVEvolve <i>(Whenever a creature enters the battlefield under your control, if that creature has greater power or toughness than this creature, put a +1/+1 counter on this creature.)</i><br>{T}: Add {G} to your mana pool for each +1/+1 counter on Gyre Sage.
p276
aV{1}, Sacrifice a creature: You gain 2 life.
p277
aVPrevent the next X damage that would be dealt to target creature or player this turn. Until end of turn, you may pay {1} any time you could cast an instant. If you do, prevent the next 1 damage that would be dealt to that creature or player this turn.
p278
aVAt the beginning of your upkeep, sacrifice Gurzigost unless you put two cards from your graveyard on the bottom of your library.<br>{G}{G}, Discard a card: You may have Gurzigost assign its combat damage this turn as though it weren't blocked.
p279
aVFlying<br>Guul Draz Specter gets +3/+3 as long as an opponent has no cards in hand.<br>Whenever Guul Draz Specter deals combat damage to a player, that player discards a card.
p280
aVAs long as an opponent has 10 or less life, Guul Draz Vampire gets +2/+1 and has intimidate. <i>(It can't be blocked except by artifact creatures and/or creatures that share a color with it.)</i>
p281
aVFlying<br>Sacrifice Gustrider Exuberant: Creatures you control with power 5 or greater gain flying until end of turn.
p282
aVFlying<br>At the beginning of your end step, you gain 3 life if Sphinx Sovereign is untapped. Otherwise, each opponent loses 3 life.
p283
aVWhen Gulf Squid enters the battlefield, tap all lands target player controls.
p284
aVDefender, flying<br>Prevent all combat damage that would be dealt to Guard Gomazoa.
p285
aVLevel up {1}{B} <i>({1}{B}: Put a level counter on this. Level up only as a sorcery.)</i><br>LEVEL 2-3<br>2/2<br>{B}, {T}: Target creature gets -2/-2 until end of turn.<br>LEVEL 4+<br>4/4<br>{B}, {T}: Target creature gets -4/-4 until end of turn.
p286
aVLevel up {2}{U} <i>({2}{U}: Put a level counter on this. Level up only as a sorcery.)</i><br>LEVEL 1-2<br>2/2<br>Hada Spy Patrol is unblockable.<br>LEVEL 3+<br>3/3<br>Shroud<br>Hada Spy Patrol is unblockable.
p287
aVFear <i>(This creature can't be blocked except by artifact creatures and/or black creatures.)</i><br>Whenever Guiltfeeder attacks and isn't blocked, defending player loses 1 life for each card in his or her graveyard.
p288
aVTarget creature gets +1/+0 and gains first strike until end of turn.<br><br>Draw a card.
p289
aVEnchant creature<br>Enchanted creature attacks each turn if able.
p290
aV{X}{BP}: Remove up to X counters from target permanent. For each counter removed this way, Hex Parasite gets +1/+0 until end of turn. <i>({BP} can be paid with either {B} or 2 life.)</i>
p291
aVGuardian Idol enters the battlefield tapped.<br>{T}: Add {1} to your mana pool.<br>{2}: Guardian Idol becomes a 2/2 Golem artifact creature until end of turn.
p292
aVEnchant creature<br>Whenever enchanted creature deals damage, Guilty Conscience deals that much damage to that creature.
p293
aVWhenever a creature dies, if another creature is on the battlefield, return the first card to the battlefield under its owner's control at the beginning of the next end step.
p294
aVBestow {6}{W} <i>(If you cast this card for its bestow cost, it's an Aura spell with enchant creature. It becomes a creature again if it's not attached to a creature.)</i><br>Whenever Heliod's Emissary or enchanted creature attacks, tap target creature an opponent controls.<br>Enchanted creature gets +3/+3.
p295
aVTarget creature gets +1/+0 and gains first strike until end of turn.<br><br>Draw a card.
p296
aVEnchant land<br>Enchanted land is a 2/6 white Wall creature with defender. It's still a land.<br>When enchanted land dies, return that card to its owner's hand.
p297
aVU
p298
aVWhenever Hada Freeblade or another Ally enters the battlefield under your control, you may put a +1/+1 counter on Hada Freeblade.
p299
aVIf one or more +1/+1 counters would be placed on a creature you control, that many plus one +1/+1 counters are placed on it instead.
p300
aVWhenever Hamlet Captain attacks or blocks, other Human creatures you control get +1/+1 until end of turn.
p301
ag298
aV{T}: Counter target spell unless its controller pays {1} and 1 life.
p302
aVTarget creature gets +X/+0 until end of turn.
p303
aVProtection from monocolored
p304
aVWhen Guardian of Cloverdell enters the battlefield, put three 1/1 white Kithkin Soldier creature tokens onto the battlefield.<br>{G}, Sacrifice a Kithkin: You gain 1 life.
p305
aVGuile can't be blocked except by three or more creatures.<br>If a spell or ability you control would counter a spell, instead exile that spell and you may play that card without paying its mana cost.<br>When Guile is put into a graveyard from anywhere, shuffle it into its owner's library.
p306
aVAs long as Guardian Beast is untapped, noncreature artifacts you control can't be enchanted, they're indestructible, and other players can't gain control of them. This effect doesn't remove Auras already attached to those artifacts.
p307
aV{T}: Kongming's Contraptions deals 2 damage to target attacking creature. Activate this ability only during the declare attackers step and only if you've been attacked this step.
p308
aVSwampwalk
p309
aVWhenever Gustcloak Sentinel becomes blocked, you may untap it and remove it from combat.
p310
aV{2}{W}, {T}: Choose a permanent you control. Prevent all combat damage target creature would deal this turn if it shares a color with that permanent.
p311
asS'costs'
p312
(lp313
V{2}
p314
aV{1}{W}
p315
aV{X}{W}
p316
aV{3}{W}
p317
aV{4}{W}
p318
aV{0}
p319
aV{1}{R}
p320
aV{1}{R}
p321
aV{3}{B}
p322
aV{2}{W}
p323
aV{1}{R}
p324
aV{4}{U}
p325
aV{3}{G}{G}
p326
aV{4}{U}
p327
aV{2}
p328
aV{U}{R}{G}
p329
aV{3}{W}{W}
p330
aV{4}{W}{W}
p331
aV{X}{W}
p332
aV{0}
p333
aV{2}{W}
p334
aV{1}{R}
p335
aV{1}{G}
p336
aV{2}{U}
p337
aV{W}
p338
aV{1}{W}{W}
p339
aV{2}{W}{W}
p340
aV{4}{W}
p341
aV{3}{W}
p342
aV{3}{B}{B}
p343
aV{1}{U}
p344
aV{6}{G}{W}
p345
aV{2}{U}
p346
aV{2}{R}
p347
aV{3}{W}{W}
p348
aV{5}{R}
p349
aV{2}{R}
p350
aV{3}
p351
aV{5}{R}{G}
p352
aV{4}{W}
p353
aV{2}{B}
p354
aV{X}{W}
p355
aV{3}{G}{G}
p356
aV{1}{B}
p357
aV{2}{B}{B}
p358
aV{2}{W}
p359
aV{2}{U}
p360
aV{3}{U}
p361
aV{2}{G}
p362
aV{W}
p363
aV{2}{U}
p364
aV{3}{B}{B}
p365
aV{1}{W}
p366
aV{R/G}
p367
aV{RP}
p368
aV{2}
p369
aV{W}
p370
aV{2}{R}
p371
aV{3}{B}{B}
p372
aV{1}{W}
p373
aV{1}{B}
p374
aV{1}{R}
p375
aV{2}{W}
p376
aV{1}{B}
p377
aV{B}
p378
aV{X}{W}
p379
aV{1}{W}{U}
p380
aV{3}{B}
p381
aV{3}{W}
p382
aV{5}{G}{G}
p383
aV{6}{W}
p384
aV{3}{B}
p385
aV{3}{W}{W}
p386
aV{4}{W}{W}
p387
aV{2}{W}{W}
p388
aV{3}{W}
p389
asS'names'
p390
(lp391
VGuard Gomazoa
p392
aVGuardians' Pledge
p393
aVGuardian Angel
p394
aVGuardian Lions
p395
aVGuardians of Akrasa
p396
aVGustha's Scepter
p397
aVGuerrilla Tactics
p398
aVGuerrilla Tactics
p399
aVGuardian Seraph
p400
aVGuardian of the Ages
p401
aVGuerrilla Tactics
p402
aVGush
p403
aVGush
p404
aVGustcloak Harrier
p405
aVGust-Skimmer
p406
aVGuided Passage
p407
aVGuan Yu, Sainted Warrior
p408
aVGuan Yu's 1,000-Li March
p409
aVGuardian Angel
p410
aVGustha's Scepter
p411
aVGuardian's Magemark
p412
aVGuerrilla Tactics
p413
aVGuise of Fire
p414
aVGuard Gomazoa
p415
aVGustcloak Runner
p416
aVGustcloak Harrier
p417
aVGustcloak Sentinel
p418
aVGustcloak Savior
p419
aVGustcloak Skirmisher
p420
aVGutwrencher Oni
p421
aVGuardian of Solitude
p422
aVGuardian of Vitu-Ghazi
p423
aVGuard Gomazoa
p424
aVGuttersnipe
p425
aVGustcloak Cavalier
p426
aVGuild Feud
p427
aVGuttersnipe
p428
aVGuardian of the Gateless
p429
aVGuildscorn Ward
p430
aVGutter Skulk
p431
aVGutless Ghoul
p432
aVGuardian Angel
p433
aVGurzigost
p434
aVGuul Draz Specter
p435
aVGuul Draz Vampire
p436
aVGustrider Exuberant
p437
aVGuardians of Akrasa
p438
aVGulf Squid
p439
aVGuard Duty
p440
aVGuard Gomazoa
p441
aVGuul Draz Assassin
p442
aVGuiltfeeder
p443
aVGuided Strike
p444
aVGuttural Response
p445
aVGut Shot
p446
aVGuardian Idol
p447
aVGuilty Conscience
p448
aVGuma
p449
aVGuardians of Meletis
p450
aVGuided Strike
p451
aVGuardian Zendikon
p452
aVGuerrilla Tactics
p453
aVGuardian Zendikon
p454
aVGurmag Swiftwing
p455
aVGutter Grime
p456
aVGuardian Angel
p457
aVGuiding Spirit
p458
aVGuardian Beast
p459
aVGuardian of the Guildpact
p460
aVGuardian of Cloverdell
p461
aVGuile
p462
aVGuardian Beast
p463
aVGuan Yu, Sainted Warrior
p464
aVGuan Yu's 1,000-Li March
p465
aVGustcloak Sentinel
p466
aVGuard Dogs
p467
asS'toughs'
p468
(lp469
V2
p470
aS'N/A'
p471
ag471
aV3
p472
aV6
p473
ag471
ag471
ag471
aV1
p474
ag471
ag471
ag471
ag471
ag474
ag471
ag471
ag470
ag471
ag471
ag471
ag471
ag471
ag471
aV8
p475
ag474
ag474
ag474
ag474
ag474
aV4
p476
ag470
ag474
ag470
ag470
ag470
ag471
ag470
ag476
ag471
ag474
ag471
ag471
ag475
ag474
ag470
ag470
ag474
ag470
ag471
ag474
ag474
ag476
ag471
ag471
ag471
ag471
ag471
ag476
ag471
ag471
ag471
ag471
ag471
ag470
ag471
ag471
ag474
aV5
p477
ag470
ag477
ag477
ag476
ag477
ag471
ag472
ag470
asS'artists'
p478
(lp479
VRob Alexander
p480
aS''
p481
aVAnson Maddocks
p482
aVJohannes Voss
p483
aVAlan Pollack
p484
aVSandra Everingham
p485
aVRandy Asplund-Faith
p486
aVRandy Asplund-Faith
p487
aVPaul Bonner
p488
aVRyan Pancoast
p489
aVDave Dorman
p490
aVKev Walker
p491
aVKev Walker
p492
aVDan Frazier
p493
ag481
aVAlex Horley-Orlandelli
p494
aVYang Guangmai
p495
aVJulie Baroh
p496
aVAnson Maddocks
p497
aVSandra Everingham
p498
aVBrandon Kitkouski
p499
aVRon Spencer
p500
aVSteve Prescott
p501
ag481
aVGlen Angus
p502
aVDan Frazier
p503
aVMark Zug
p504
aVJim Nelson
p505
aVDan Frazier
p506
aVHideaki Takamura
p507
aVStephen Tappin
p508
aVWayne Reynolds
p509
aVRob Alexander
p510
aVSteve Prescott
p511
aVStuart Griffin
p512
aVKarl Kopinski
p513
aVSteve Prescott
p514
aVWesley Burt
p515
aVRyan Barger
p516
aVMark Winters
p517
aVKensuke Okabayashi
p518
aVAnson Maddocks
p519
aVScott M. Fischer
p520
aVMark Tedin
p521
aVSteve Argyle
p522
aVWayne Reynolds
p523
aVAlan Pollack
p524
aVWayne England
p525
aVKarl Kopinski
p526
aVRob Alexander
p527
aVJames Ryman
p528
aVMark Tedin
p529
aVDave Dorman
p530
aVMatt Cavotta
p531
ag481
aVEdward P. Beard, Jr.
p532
aVChristopher Moeller
p533
aVDaren Bader
p534
aVMagali Villeneuve
p535
aVGary Leach
p536
aVJohn Avon
p537
aVRon Spencer
p538
aVJohn Avon
p539
aVJeff Simpson
p540
aVErica Yang
p541
aVAnson Maddocks
p542
aVTerese Nielsen
p543
aVKen Meyer, Jr.
p544
aVFred Hooper
p545
aVJesper Ejsing
p546
aVZoltan Boros & Gabor Szikszai
p547
aVKen Meyer Jr.
p548
aVZhao Dafu
p549
aVYang Guangmai
p550
aVMark Zug
p551
aVMike Raabe
p552
asS'powers'
p553
(lp554
g474
ag471
ag471
ag474
aV0
p555
ag471
ag471
ag471
ag474
ag471
ag471
ag471
ag471
ag470
ag471
ag471
ag555
ag471
ag471
ag471
ag471
ag471
ag471
ag475
ag474
ag474
ag474
ag470
ag474
ag477
ag474
ag472
ag470
ag470
ag470
ag471
ag470
ag473
ag471
ag472
ag471
ag471
ag473
ag470
ag474
ag474
ag474
ag470
ag471
ag470
ag474
ag555
ag471
ag471
ag471
ag471
ag471
ag476
ag471
ag471
ag471
ag471
ag471
ag474
ag471
ag471
ag472
ag476
ag470
ag476
ag473
ag470
ag472
ag471
ag472
ag470
asS'types'
p556
(lp557
VCreature - Jellyfish
p558
aVInstant
p559
aVInstant
p560
aVCreature - Cat
p561
aVCreature - Human Soldier
p562
aVArtifact
p563
aVInstant
p564
aVInstant
p565
aVCreature - Angel
p566
aVArtifact Creature - Golem
p567
aVInstant
p568
aVInstant
p569
aVInstant
p570
aVCreature - Bird Soldier
p571
aVArtifact Creature - Insect
p572
aVSorcery
p573
aVLegendary Creature - Human Soldier Warrior
p574
aVSorcery
p575
aVInstant
p576
aVArtifact
p577
aVEnchantment - Aura
p578
aVInstant
p579
aVEnchantment - Aura
p580
aVCreature - Jellyfish
p581
aVCreature - Human Soldier
p582
aVCreature - Bird Soldier
p583
aVCreature - Human Soldier
p584
aVCreature - Bird Soldier
p585
aVCreature - Bird Soldier
p586
aVCreature - Demon Spirit
p587
aVCreature - Spirit
p588
aVCreature - Elemental
p589
aVCreature - Jellyfish
p590
aVCreature - Goblin Shaman
p591
aVCreature - Human Knight
p592
aVEnchantment
p593
aVCreature - Goblin Shaman
p594
aVCreature - Angel
p595
aVEnchantment - Aura
p596
aVCreature - Zombie Rat
p597
aVSnow Creature - Zombie
p598
aVInstant
p599
aVCreature - Beast
p600
aVCreature - Specter
p601
aVCreature - Vampire Rogue
p602
aVCreature - Human Wizard
p603
aVCreature - Human Soldier
p604
aVCreature - Squid Beast
p605
aVEnchantment - Aura
p606
aVCreature - Jellyfish
p607
aVCreature - Vampire Assassin
p608
aVCreature - Horror
p609
aVInstant
p610
aVInstant
p611
aVInstant
p612
aVArtifact
p613
aVEnchantment - Aura
p614
aVCreature - Cat
p615
aVArtifact Creature - Golem
p616
aVInstant
p617
aVEnchantment - Aura
p618
aVInstant
p619
aVEnchantment - Aura
p620
aVCreature - Bat
p621
aVEnchantment
p622
aVInstant
p623
aVCreature - Angel Spirit
p624
aVCreature - Beast
p625
aVCreature - Spirit
p626
aVCreature - Treefolk Shaman
p627
aVCreature - Elemental Incarnation
p628
aVCreature - Beast
p629
aVLegendary Creature - Human Soldier Warrior
p630
aVSorcery
p631
aVCreature - Human Soldier
p632
aVCreature - Hound
p633
asS'numbers'
p634
(lp635
V49
p636
aV22
p637
aV118
p638
aV17
p639
aV18
p640
ag477
aV158
p641
aV159
p642
aV13
p643
aV211
p644
aV211
p645
aV82
p646
aV72
p647
aV30
p648
aV108
p649
aV105
p650
aV12
p651
aV13
p652
aV148
p653
aV209
p654
ag475
aV196
p655
aV137
p656
aV94
p657
aV35
p658
aV34
p659
aV37
p660
aV36
p661
aV38
p662
aV113
p663
aV64
p664
aV212
p665
aV45
p666
aV112
p667
aV22
p668
aV97
p669
aV98
p670
aV14
p671
aV15
p672
aV67
p673
aV60
p674
aV16
p675
aV126
p676
aV92
p677
aV93
p678
aV13
p679
aV12
p680
aV35
p681
aV23
p682
aV70
p683
aV112
p684
aV68
p685
aV13
p686
aV208
p687
aV86
p688
aV128
p689
aV17
p690
aV197
p691
aV217
p692
aV143
p693
aV71
p694
aV192
p695
ag473
aV74
p696
aV186
p697
aV164
p698
aV101
p699
aV85
p700
aV10
p701
aV216
p702
aV69
p703
ag473
ag473
aV7
p704
aV13
p705
ag477
as.