(dp0
S'rares'
p1
(lp2
VUncommon
p3
aVCommon
p4
aVUncommon
p5
aVUncommon
p6
aVUncommon
p7
aVUncommon
p8
aVCommon
p9
aVUncommon
p10
aVRare
p11
aVUncommon
p12
aVUncommon
p13
aVUncommon
p14
aVUncommon
p15
aVUncommon
p16
aVUncommon
p17
aVRare
p18
aVUncommon
p19
aVRare
p20
aVRare
p21
aVRare
p22
aVUncommon
p23
aVRare
p24
aVUncommon
p25
aVUncommon
p26
aVUncommon
p27
aVUncommon
p28
aVUncommon
p29
aVCommon
p30
aVCommon
p31
aVCommon
p32
aVRare
p33
aVUncommon
p34
aVUncommon
p35
aVRare
p36
aVRare
p37
aVUncommon
p38
aVRare
p39
aVUncommon
p40
aVUncommon
p41
aVRare
p42
aVUncommon
p43
aVCommon
p44
aVRare
p45
aVRare
p46
aVUncommon
p47
aVCommon
p48
aVRare
p49
aVUncommon
p50
aVCommon
p51
aVUncommon
p52
aVRare
p53
aVCommon
p54
aVCommon
p55
aVUncommon
p56
aVUncommon
p57
aVUncommon
p58
aVRare
p59
aVRare
p60
aVCommon
p61
aVRare
p62
aVUncommon
p63
aVUncommon
p64
aVUncommon
p65
aVCommon
p66
aVCommon
p67
aVRare
p68
aVCommon
p69
aVUncommon
p70
aVUncommon
p71
aVRare
p72
aVRare
p73
aVCommon
p74
aVRare
p75
aVRare
p76
aVUncommon
p77
aVRare
p78
aVCommon
p79
aVUncommon
p80
aVRare
p81
aVCommon
p82
aVUncommon
p83
aVRare
p84
aVUncommon
p85
aVCommon
p86
aVCommon
p87
aVRare
p88
aVUncommon
p89
aVCommon
p90
aVUncommon
p91
aVCommon
p92
aVCommon
p93
aVCommon
p94
aVCommon
p95
aVCommon
p96
aVCommon
p97
aVCommon
p98
aVUncommon
p99
aVUncommon
p100
aVCommon
p101
aVRare
p102
aVUncommon
p103
aVUncommon
p104
aVRare
p105
aVRare
p106
aVCommon
p107
aVCommon
p108
aVRare
p109
aVCommon
p110
aVUncommon
p111
aVCommon
p112
aVCommon
p113
aVUncommon
p114
aVRare
p115
aVCommon
p116
aVUncommon
p117
aVCommon
p118
aVRare
p119
aVRare
p120
aVUncommon
p121
aVRare
p122
aVRare
p123
aVCommon
p124
aVUncommon
p125
aVUncommon
p126
aVRare
p127
aVCommon
p128
aVRare
p129
aVRare
p130
aVRare
p131
aVUncommon
p132
aVUncommon
p133
aVUncommon
p134
aVRare
p135
aVUncommon
p136
aVSpecial
p137
aVSpecial
p138
aVUncommon
p139
aVUncommon
p140
aVCommon
p141
aVUncommon
p142
aVRare
p143
aVCommon
p144
aVCommon
p145
aVUncommon
p146
aVCommon
p147
aVRare
p148
aVUncommon
p149
aVRare
p150
aVRare
p151
aVCommon
p152
aVRare
p153
aVUncommon
p154
aVRare
p155
aVCommon
p156
aVCommon
p157
aVCommon
p158
aVRare
p159
aVRare
p160
aVSpecial
p161
aVRare
p162
aVRare
p163
aVCommon
p164
aVCommon
p165
aVUncommon
p166
aVCommon
p167
aVMythic Rare
p168
aVRare
p169
asS'editns'
p170
(lp171
VMagic: The Gathering-Commander
p172
aVMagic 2012
p173
aVSaviors of Kamigawa
p174
aVSaviors of Kamigawa
p175
aVSaviors of Kamigawa
p176
aVSaviors of Kamigawa
p177
aVMagic 2013
p178
aVMagic 2013
p179
aVMagic 2013
p180
aVPlanar Chaos
p181
aVPlanar Chaos
p182
aVAntiquities
p183
aVAlliances
p184
aVDuel Decks: Knights vs. Dragons
p185
aVScars of Mirrodin
p186
aVScars of Mirrodin
p187
aVMagic 2010
p188
aVMagic 2010
p189
aVMagic 2014 Core Set
p190
aVTempest
p191
aVTempest
p192
aVTempest
p193
aVTempest
p194
aVTenth Edition
p195
aVTenth Edition
p196
aVMercadian Masques
p197
aVMercadian Masques
p198
aVModern Masters
p199
aVModern Masters
p200
aVStarter 2000
p201
aVFallen Empires
p202
aVFallen Empires
p203
aVApocalypse
p204
aVMasters Edition III
p205
aVMasters Edition III
p206
aVMasters Edition III
p207
aVMasters Edition III
p208
aVMasters Edition II
p209
aVGuildpact
p210
aVGuildpact
p211
aVEventide
p212
aVEventide
p213
aVEventide
p214
aVEventide
p215
aVEventide
p216
aVAvacyn Restored
p217
aVAvacyn Restored
p218
aVAvacyn Restored
p219
aVAvacyn Restored
p220
aVAvacyn Restored
p221
aVOnslaught
p222
aVOnslaught
p223
aVChampions of Kamigawa
p224
aVChampions of Kamigawa
p225
aVChampions of Kamigawa
p226
aVChampions of Kamigawa
p227
aVChampions of Kamigawa
p228
aVChampions of Kamigawa
p229
aVBetrayers of Kamigawa
p230
aVRavnica: City of Guilds
p231
aVRavnica: City of Guilds
p232
aVCommander 2013 Edition
p233
aVCommander 2013 Edition
p234
aVOdyssey
p235
aVOdyssey
p236
aVOdyssey
p237
aVTime Spiral
p238
aVTime Spiral
p239
aVTime Spiral
p240
aVReturn to Ravnica
p241
aVReturn to Ravnica
p242
aVGatecrash
p243
aVExodus
p244
aVColdsnap
p245
aVIce Age
p246
aVIce Age
p247
aVZendikar
p248
aVZendikar
p249
aVZendikar
p250
aVZendikar
p251
aVClassic Sixth Edition
p252
aVClassic Sixth Edition
p253
aVClassic Sixth Edition
p254
aVProphecy
p255
aVMagic 2015 Core Set
p256
aVMagic 2015 Core Set
p257
aVUrza's Legacy
p258
aVDarksteel
p259
aVRise of the Eldrazi
p260
aVRise of the Eldrazi
p261
aVRise of the Eldrazi
p262
aVRise of the Eldrazi
p263
aVRise of the Eldrazi
p264
aVJudgment
p265
aVJudgment
p266
aVStarter 1999
p267
aVFuture Sight
p268
aVPortal Second Age
p269
aVPortal Second Age
p270
aVLegions
p271
aVUrza's Saga
p272
aVMasters Edition
p273
aVMasters Edition
p274
aVTheros
p275
aVWeatherlight
p276
aVWeatherlight
p277
aVEighth Edition
p278
aVNemesis
p279
aVWorldwake
p280
aVWorldwake
p281
aVWorldwake
p282
aVWorldwake
p283
aVWorldwake
p284
aVChronicles
p285
aVInvasion
p286
aVInvasion
p287
aVInvasion
p288
aVInvasion
p289
aVInvasion
p290
aVJourney into Nyx
p291
aVJourney into Nyx
p292
aVJourney into Nyx
p293
aVFifth Edition
p294
aVArchenemy
p295
aVKhans of Tarkir
p296
aVDuel Decks: Jace vs. Vraska
p297
aVMirage
p298
aVMirage
p299
aVMirage
p300
aVMirage
p301
aVMirage
p302
aVMirage
p303
aVMirage
p304
aVMirage
p305
aVVanguard
p306
aVVanguard
p307
aVInnistrad
p308
aVInnistrad
p309
aVInnistrad
p310
aVBeatdown Box Set
p311
aVMasters Edition IV
p312
aVMasters Edition IV
p313
aVDragon's Maze
p314
aVDragon's Maze
p315
aVStronghold
p316
aVLegends
p317
aVLegends
p318
aVLegends
p319
aVDissension
p320
aVDissension
p321
aVDissension
p322
aVLorwyn
p323
aVLorwyn
p324
aVArabian Nights
p325
aVArabian Nights
p326
aVMagic 2011
p327
aVMagic 2011
p328
aVHomelands
p329
aVTime Spiral "Timeshifted"
p330
aVPremium Deck Series: Fire and Lightning
p331
aVPortal
p332
aVPortal
p333
aVPortal
p334
aVDark Ascension
p335
aVDark Ascension
p336
aVDark Ascension
p337
aVDark Ascension
p338
asS'ids'
p339
(lp340
V247360
p341
aV230756
p342
aV74062
p343
aV74063
p344
aV74173
p345
aV74137
p346
aV254113
p347
aV259660
p348
aV279708
p349
aV122362
p350
aV128948
p351
aV1040
p352
aV3144
p353
aV243440
p354
aV194110
p355
aV215086
p356
aV190166
p357
aV190577
p358
aV370594
p359
aV4822
p360
aV4823
p361
aV4878
p362
aV4764
p363
aV130995
p364
aV132107
p365
aV19704
p366
aV19708
p367
aV370475
p368
aV370401
p369
aV25490
p370
aV1979
p371
aV2007
p372
aV25910
p373
aV121986
p374
aV201192
p375
aV201242
p376
aV201193
p377
aV184486
p378
aV96843
p379
aV96873
p380
aV147413
p381
aV152089
p382
aV152155
p383
aV157394
p384
aV157980
p385
aV240073
p386
aV240199
p387
aV279613
p388
aV240094
p389
aV240152
p390
aV39614
p391
aV39852
p392
aV50343
p393
aV50469
p394
aV75357
p395
aV77138
p396
aV77924
p397
aV79219
p398
aV74580
p399
aV83712
p400
aV83764
p401
aV376362
p402
aV376363
p403
aV29693
p404
aV29751
p405
aV29956
p406
aV108808
p407
aV109706
p408
aV109731
p409
aV253684
p410
aV253648
p411
aV366445
p412
aV6104
p413
aV122045
p414
aV2689
p415
aV2753
p416
aV170998
p417
aV197404
p418
aV185752
p419
aV180408
p420
aV15366
p421
aV15420
p422
aV14726
p423
aV24572
p424
aV383262
p425
aV383263
p426
aV12437
p427
aV29513
p428
aV194928
p429
aV194947
p430
aV193616
p431
aV198165
p432
aV193569
p433
aV36115
p434
aV36411
p435
aV20379
p436
aV130328
p437
aV6632
p438
aV6563
p439
aV44299
p440
aV9710
p441
aV159230
p442
aV159175
p443
aV373587
p444
aV4459
p445
aV4518
p446
aV49039
p447
aV21370
p448
aV198400
p449
aV197787
p450
aV197129
p451
aV197871
p452
aV194675
p453
aV2808
p454
aV23082
p455
aV23131
p456
aV25977
p457
aV26282
p458
aV23041
p459
aV380431
p460
aV380432
p461
aV380433
p462
aV4182
p463
aV220584
p464
aV386550
p465
aV380231
p466
aV3297
p467
aV3339
p468
aV3390
p469
aV3537
p470
aV3538
p471
aV3539
p472
aV3452
p473
aV3340
p474
aV182287
p475
aV4962
p476
aV234446
p477
aV244683
p478
aV220010
p479
aV26652
p480
aV228267
p481
aV202427
p482
aV369077
p483
aV369087
p484
aV5163
p485
aV1655
p486
aV1700
p487
aV1656
p488
aV107272
p489
aV107467
p490
aV97071
p491
aV139407
p492
aV143682
p493
aV919
p494
aV920
p495
aV204974
p496
aV205005
p497
aV3019
p498
aV107296
p499
aV234721
p500
aV4386
p501
aV4225
p502
aV4224
p503
aV262689
p504
aV245289
p505
aV262852
p506
aV249878
p507
asS'texts'
p508
(lp509
VDraw three cards.
p510
aV{R}: Inferno Titan gets +1/+0 until end of turn.<br>Whenever Inferno Titan enters the battlefield or attacks, it deals 3 damage divided as you choose among one, two, or three target creatures and/or players.
p511
aVWhen Haru-Onna enters the battlefield, draw a card.<br>Whenever you cast a Spirit or Arcane spell, you may return Haru-Onna to its owner's hand.
p512
aVProtection from white<br>Bushido 1 <i>(When this blocks or becomes blocked, it gets +1/+1 until end of turn.)</i>
p513
aVProtection from black<br>Bushido 1 <i>(When this blocks or becomes blocked, it gets +1/+1 until end of turn.)</i>
p514
aVHail of Arrows deals X damage divided as you choose among any number of target attacking creatures.
p515
aVLook at the top five cards of your library, then put them back in any order.
p516
aVEnchant creature<br>Enchanted creature gets +2/+2 and has lifelink. <i>(Damage dealt by the creature also causes its controller to gain that much life.)</i>
p517
aVHaste <i>(This creature can attack and {T} as soon as it comes under your control.)</i><br>Reckless Brute attacks each turn if able.
p518
aVDraw three cards.
p519
aVEcho {5}{R} <i>(At the beginning of your upkeep, if this came under your control since the beginning of your last upkeep, sacrifice it unless you pay its echo cost.)</i><br>When Hammerheim Deadeye enters the battlefield, destroy target creature with flying.
p520
aVWhenever an artifact becomes tapped or a player activates an artifact's ability without {T} in its activation cost, Haunting Wind deals 1 damage to that artifact's controller.
p521
aVGreen creatures you control get +1/+1.
p522
aVThe next 2 damage that a source of your choice would deal to you and/or permanents you control this turn is dealt to target creature or player instead.
p523
aVInfect <i>(This creature deals damage to creatures in the form of -1/-1 counters and to players in the form of poison counters.)</i><br>Other creatures you control with infect get +1/+1.<br>Whenever you cast a creature spell with infect, target player gets a poison counter.
p524
aVEquipped creature doesn't untap during its controller's untap step.<br>Equipped creature has "{T}: This creature deals 2 damage to target creature or player."<br>Equip {4}
p525
aVAt the beginning of each player's draw step, if Howling Mine is untapped, that player draws an additional card.
p526
aVFlying<br>Whenever Hypnotic Specter deals damage to an opponent, that player discards a card at random.
p527
aVPut a +1/+1 counter on target creature you control. Then that creature fights target creature you don't control. <i>(Each deals damage equal to its power to the other.)</i>
p528
aVWhenever an opponent casts a white spell, he or she loses 2 life.
p529
aVAll Sliver creatures have haste.
p530
aVAll creatures lose all abilities and are 1/1.
p531
aVEnchant creature<br>Enchanted creature gets +1/+5.
p532
aVWhen Academy Researchers enters the battlefield, you may put an Aura card from your hand onto the battlefield attached to Academy Researchers.
p533
aVCounter target spell. Look at the top four cards of your library, then put them back in any order.
p534
aVWhenever a nontoken permanent is put into a player's graveyard from the battlefield, that player loses 1 life.
p535
aVFlying<br>Battle Squadron's power and toughness are each equal to the number of creatures you control.
p536
aV{1}{G}, Sacrifice Hana Kami: Return target Arcane card from your graveyard to your hand.
p537
aVEcho {5}{R} <i>(At the beginning of your upkeep, if this came under your control since the beginning of your last upkeep, sacrifice it unless you pay its echo cost.)</i><br>When Hammerheim Deadeye enters the battlefield, destroy target creature with flying.
p538
aVU
p539
aV{T}, Tap three untapped white creatures you control: Destroy target creature.
p540
aVHavenwood Battleground enters the battlefield tapped.<br>{T}: Add {G} to your mana pool.<br>{T}, Sacrifice Havenwood Battleground: Add {G}{G} to your mana pool.
p541
aVFlying<br>When Haunted Angel dies, exile Haunted Angel and each other player puts a 3/3 black Angel creature token with flying onto the battlefield.
p542
aVAt the beginning of your upkeep, if Hazezon Tamar came into play since the beginning of your last upkeep, put a 1/1 red, green, and white Sand Warrior creature token into play for each land you control. Those creatures have "When a permanent named Hazezon Tamar isn't in play, remove this creature from the game."
p543
aVWhen Hazezon Tamar enters the battlefield, put X 1/1 Sand Warrior creature tokens that are red, green, and white onto the battlefield at the beginning of your next upkeep, where X is the number of lands you control at that time.<br>When Hazezon leaves the battlefield, exile all Sand Warriors.
p544
aVPrevent the next 1 damage that would be dealt to target creature or player this turn.<br><br>Draw a card at the beginning of the next turn's upkeep.
p545
aVCast Heavy Fog only during the declare attackers step and only if you've been attacked this step.<br>Prevent all damage that would be dealt to you this turn by attacking creatures.
p546
aV{X}, {T}: Target opponent puts cards from the top of his or her library into his or her graveyard until a creature card or X cards are put into that graveyard this way, whichever comes first. If a creature card is put into that graveyard this way, sacrifice Helm of Obedience and put that card onto the battlefield under your control. X can't be 0.
p547
aVHaunt <i>(When this creature dies, exile it haunting target creature.)</i><br>When Orzhov Pontiff enters the battlefield or the creature it haunts dies, choose one- Creatures you control get +1/+1 until end of turn; or creatures you don't control get -1/-1 until end of turn.
p548
aV{T}: Living Inferno deals damage equal to its power divided as you choose among any number of target creatures. Each of those creatures deals damage equal to its power to Living Inferno.
p549
aV{2}{R}, {T}, Put a -1/-1 counter on a creature you control: Hatchet Bully deals 2 damage to target creature or player.
p550
aVWither <i>(This deals damage to creatures in the form of -1/-1 counters.)</i>
p551
aVWither <i>(This deals damage to creatures in the form of -1/-1 counters.)</i><br>{2}{R}, {Q}: Hateflayer deals damage equal to its power to target creature or player. <i>({Q} is the untap symbol.)</i>
p552
aVPut all creatures on the bottom of their owners' libraries.
p553
aVWhen Hag Hedge-Mage enters the battlefield, if you control two or more Swamps, you may have target player discard a card.<br>When Hag Hedge-Mage enters the battlefield, if you control two or more Forests, you may put target card from your graveyard on top of your library.
p554
aVDeathtouch<br>Whenever another nontoken creature dies, you may draw a card.
p555
aVDefender, first strike
p556
aVWhenever Havengul Skaab attacks, return another creature you control to its owner's hand.
p557
aVWhenever Havengul Vampire deals combat damage to a player, put a +1/+1 counter on it.<br>Whenever another creature dies, put a +1/+1 counter on Havengul Vampire.
p558
aVIntimidate <i>(This creature can't be blocked except by artifact creatures and/or creatures that share a color with it.)</i><br>Whenever Heirs of Stromkirk deals combat damage to a player, put a +1/+1 counter on it.
p559
aVEach player chooses a creature type. Destroy all creatures that aren't of a type chosen this way. They can't be regenerated.
p560
aVWhenever Haunted Cadaver deals combat damage to a player, you may sacrifice it. If you do, that player discards three cards.<br>Morph {1}{B} <i>(You may cast this face down as a 2/2 creature for {3}. Turn it face up any time for its morph cost.)</i>
p561
aV{1}: Look at the top card of your library.<br>{2}: Reveal the top card of your library. If it's a land card, untap Harsh Deceiver and it gets +1/+1 until end of turn. Activate this ability only once each turn.
p562
aV{2}{U}, Discard a card: Counter target spell if it has the same converted mana cost as the discarded card.
p563
aVTarget creature gets +X/+X until end of turn, where X is the number of lands you control.
p564
aV{X}, Sacrifice Hearth Kami: Destroy target artifact with converted mana cost X.
p565
aVUntap target nonlegendary creature and gain control of it until end of turn. That creature gains haste until end of turn.
p566
aVFor each Spirit, return it to its owner's hand unless that player pays {3}.
p567
aVTarget creature gets +1/+0 and gains first strike until end of turn.<br>Splice onto Arcane\u2014Tap an untapped white creature you control. <i>(As you cast an Arcane spell, you may reveal this card from your hand and pay its splice cost. If you do, add this card's effects to that spell.)</i>
p568
aV<i>({G/W} can be paid with either {G} or {W}.)</i><br>Other permanents you control have hexproof. <i>(They can't be the targets of spells or abilities your opponents control.)</i>
p569
aVWhenever a player casts an instant or sorcery card, exile it. Then that player copies each instant or sorcery card exiled with Eye of the Storm. For each copy, the player may cast the copy without paying its mana cost.
p570
aVLevel up {2}{U} <i>({2}{U}: Put a level counter on this. Level up only as a sorcery.)</i><br>LEVEL 1-2<br>2/2<br>Hada Spy Patrol can't be blocked.<br>LEVEL 3+<br>3/3<br>Shroud<br>Hada Spy Patrol can't be blocked.
p571
aVDraw three cards.
p572
aV{T}: Prevent the next 2 damage that would be dealt to target creature or player this turn.<br>Threshold- {T}: Prevent the next 4 damage that would be dealt to target creature or player this turn. Activate this ability only if seven or more cards are in your graveyard.
p573
aVFirst strike
p574
aVDiscard two cards: Put a 2/2 black Zombie creature token onto the battlefield.
p575
aVFlash <i>(You may cast this spell any time you could cast an instant.)</i><br>Trample
p576
aVAll Slivers have "When this permanent enters the battlefield, destroy target artifact or enchantment."
p577
aVTarget player discards two cards. If you cast this spell during your main phase, that player discards four cards instead.
p578
aVPut a 4/4 green Rhino creature token with trample onto the battlefield, then populate. <i>(Put a token onto the battlefield that's a copy of a creature token you control.)</i>
p579
aVDefender, flying
p580
aVFlying, trample<br>Whenever Hellkite Tyrant deals combat damage to a player, gain control of all artifacts that player controls.<br>At the beginning of your upkeep, if you control twenty or more artifacts, you win the game.
p581
aVAs an additional cost to cast Hatred, pay X life.<br>Target creature gets +X/+0 until end of turn.
p582
aVWhen Stalking Yeti enters the battlefield, if it's on the battlefield, it deals damage equal to its power to target creature an opponent controls and that creature deals damage equal to its power to Stalking Yeti.<br>{2}{snow}: Return Stalking Yeti to its owner's hand. Activate this ability only any time you could cast a sorcery. <i>({snow} can be paid with one mana from a snow permanent.)</i>
p583
aV{T}: Target creature gets +2/+2 until end of turn. When that creature leaves the battlefield this turn, sacrifice Kjeldoran Elite Guard. Activate this ability only during combat.
p584
aVLand Cap doesn't untap during your untap step if it has a depletion counter on it.<br>At the beginning of your upkeep, remove a depletion counter from Land Cap.<br>{T}: Add {W} or {U} to your mana pool. Put a depletion counter on Land Cap.
p585
aVHagra Crocodile can't block.<br>Landfall- Whenever a land enters the battlefield under your control, Hagra Crocodile gets +2/+2 until end of turn.
p586
aVWhenever Hagra Diabolist or another Ally enters the battlefield under your control, you may have target player lose life equal to the number of Allies you control.
p587
aVIntimidate <i>(This creature can't be blocked except by artifact creatures and/or creatures that share a color with it.)</i><br>When Halo Hunter enters the battlefield, destroy target Angel.
p588
aVAs an additional cost to cast Harrow, sacrifice a land.<br>Search your library for up to two basic land cards and put them onto the battlefield. Then shuffle your library.
p589
aVIf the difference between your life total and target player's life total is 5 or less, exchange life totals with that player.
p590
aVInferno deals 6 damage to each creature and each player.
p591
aVWhenever a player casts a red spell, you may pay {1}. If you do, you gain 1 life.
p592
aVHazy Homunculus is unblockable as long as defending player controls an untapped land.
p593
aVFlying<br>When Hoarding Dragon enters the battlefield, you may search your library for an artifact card, exile it, then shuffle your library.<br>When Hoarding Dragon dies, you may put the exiled card into its owner's hand.
p594
aVDefender <i>(This creature can't attack.)</i><br>Whenever Hornet Nest is dealt damage, put that many 1/1 green Insect creature tokens with flying and deathtouch onto the battlefield. <i>(Any amount of damage a creature with deathtouch deals to a creature is enough to destroy it.)</i>
p595
aVPut all enchantments on top of their owners' libraries.
p596
aVPrevent all damage target spell would deal this turn. You gain life equal to the damage prevented this way.
p597
aVLevel up {2} <i>({2}: Put a level counter on this. Level up only as a sorcery.)</i><br>LEVEL 1-4<br>0/6<br><br>LEVEL 5+<br>6/6<br>Islandwalk
p598
aVYou may sacrifice four Eldrazi Spawn rather than pay Hand of Emrakul's mana cost.<br>Annihilator 1 <i>(Whenever this creature attacks, defending player sacrifices a permanent.)</i>
p599
aVPrevent all combat damage that would be dealt this turn by attacking creatures.
p600
aVFlash <i>(You may cast this spell any time you could cast an instant.)</i><br>When Haze Frog enters the battlefield, prevent all combat damage that other creatures would deal this turn.
p601
aVHeat Ray deals X damage to target creature.
p602
aVSacrifice Hapless Researcher: Draw a card, then discard a card.
p603
aV{T}: Add to your mana pool one mana of any color that a land you control could produce.
p604
aVSwampwalk <i>(This creature is unblockable as long as defending player controls a Swamp.)</i>
p605
aVRegenerate each creature you control.
p606
aVDestroy all lands.
p607
aVR
p608
aVFlying<br>When Havoc Demon dies, all creatures get -5/-5 until end of turn.
p609
aVFlying<br>Whenever Ravenous Skirge attacks, it gets +2/+0 until end of turn.
p610
aV{W}{W}: Return target nonsnow land you control to its owner's hand.
p611
aV{T}, Tap three untapped white creatures you control: Destroy target creature.
p612
aVDestroy target creature or planeswalker.
p613
aVAs an additional cost to cast Haunting Misery, exile X creature cards from your graveyard.<br>Haunting Misery deals X damage to target player.
p614
aVWhen Harvest Wurm enters the battlefield, sacrifice it unless you return a basic land card from your graveyard to your hand.
p615
aVFlying <i>(This creature can't be blocked except by creatures with flying or reach.)</i> <br>When Aven Fisher dies, you may draw a card.
p616
aV{G}, {T}, Discard a card: Until end of turn, if you tap a land for mana, it produces one mana of a color of your choice instead of any other type and amount.
p617
aVHalimar Depths enters the battlefield tapped.<br>When Halimar Depths enters the battlefield, look at the top three cards of your library, then put them back in any order.<br>{T}: Add {U} to your mana pool.
p618
aVWhenever Halimar Excavator or another Ally enters the battlefield under your control, target player puts the top X cards of his or her library into his or her graveyard, where X is the number of Allies you control.
p619
aVEquipped creature gets +2/+0.<br>Whenever equipped creature deals combat damage to a player, you may destroy target Equipment that player controls.<br>Equip {2}
p620
aV{T}: Add X mana of any one color to your mana pool, where X is the number of Allies you control.
p621
aVLandfall- Whenever a land enters the battlefield under your control, Hedron Rover gets +2/+2 until end of turn.
p622
aVProtection from red<br>Creatures named Ivory Guardians get +1/+1 as long as an opponent controls a nontoken red permanent.
p623
aVHaste<br>Halam Djinn gets -2/-2 as long as red is the most common color among all permanents or is tied for most common.
p624
aVAs an additional cost to cast Harrow, sacrifice a land.<br>Search your library for up to two basic land cards and put them onto the battlefield. Then shuffle your library.
p625
aV{1}{W}{U}, {T}: Return target artifact or enchantment card from your graveyard to your hand.
p626
aVAs Harsh Judgment enters the battlefield, choose a color.<br>If an instant or sorcery spell of the chosen color would deal damage to you, it deals that damage to its controller instead.
p627
aV{2}: Target blue or red creature gets +1/+0 until end of turn.
p628
aVAs Hall of Triumph enters the battlefield, choose a color.<br>Creatures you control of the chosen color get +1/+1.
p629
aVStrive- Harness by Force costs {2}{R} more to cast for each target beyond the first.<br>Gain control of any number of target creatures until end of turn. Untap those creatures. They gain haste until end of turn.
p630
aVConstellation- Whenever Harvestguard Alseids or another enchantment enters the battlefield under your control, prevent all damage that would be dealt to target creature this turn.
p631
aVHurricane deals X damage to each creature with flying and each player.
p632
aVDraw three cards.
p633
aVWhenever equipped creature attacks, Heart-Piercer Bow deals 1 damage to target creature defending player controls.<br>Equip {1}
p634
aVHalimar Depths enters the battlefield tapped.<br>When Halimar Depths enters the battlefield, look at the top three cards of your library, then put them back in any order.<br>{T}: Add {U} to your mana pool.
p635
aVAt the beginning of your upkeep, put a -1/-1 counter on each creature.
p636
aVFlying<br>{U}{U}: Return target Aura card from your graveyard to the battlefield attached to Hakim, Loreweaver. Activate this ability only during your upkeep and only if Hakim isn't enchanted.<br>{U}{U}, {T}: Destroy all Auras attached to Hakim.
p637
aVAt the beginning of each player's upkeep, that player chooses a color. Until end of turn, lands tapped for mana produce mana of the chosen color instead of any other color.
p638
aVFlying<br>As Haunting Apparition enters the battlefield, choose an opponent.<br>Haunting Apparition's power is equal to 1 plus the number of green creature cards in the chosen player's graveyard.
p639
aVFlying, protection from red
p640
aV{R}: Regenerate Jungle Troll.<br><br>{G}: Regenerate Jungle Troll.
p641
aVFlying<br><br>{1}{U}{U}: Target creature gains flying until end of turn.
p642
aVChoose one- Target player gains 3 life; or prevent the next 3 damage that would be dealt to target creature or player this turn.
p643
aVPay 1 life: You may play target creature card in your graveyard this turn.<br>Whenever you play a creature card from your graveyard, it becomes a black Zombie Knight.<br>If a Zombie Knight would be put into your graveyard from the battlefield, exile it instead.
p644
aVSpells you cast cost {1} less to cast.
p645
aVDefender<br>At the beginning of each upkeep, if no spells were cast last turn, transform Hanweir Watchkeep.
p646
aVAs an additional cost to cast Harvest Pyre, exile X cards from your graveyard.<br>Harvest Pyre deals X damage to target creature.
p647
aVCreature spells you cast cost {2} less to cast.<br>Creatures you control get -1/-1.
p648
aVWhenever Hollow Dogs attacks, it gets +2/+0 until end of turn.
p649
aV{X}, {T}: Put a charge counter on Ice Cauldron and exile a nonland card from your hand. You may cast that card for as long as it remains exiled. Note the type and amount of mana spent to pay this activation cost. Activate this ability only if there are no charge counters on Ice Cauldron.<br>{T}, Remove a charge counter from Ice Cauldron: Add Ice Cauldron's last noted type and amount of mana to your mana pool. Spend this mana only to cast the last card exiled with Ice Cauldron.
p650
aV{1}, {T}: Tap target artifact, creature, or land.
p651
aVYou may tap or untap target permanent, then you may tap or untap another target permanent.<br>Cipher <i>(Then you may exile this spell card encoded on a creature you control. Whenever that creature deals combat damage to a player, its controller may cast a copy of the encoded card without paying its mana cost.)</i>
p652
aVDefender<br>{3}{B}, {T}: Target opponent loses 2 life, then reveals a card at random from his or her hand.
p653
aVHammerhead Shark can't attack unless defending player controls an Island.
p654
aV{T}: Prevent the next 2 damage that would be dealt to target creature this turn.
p655
aVAmrou Kithkin can't be blocked by creatures with power 3 or greater.
p656
aVRampage 1 <i>(Whenever this creature becomes blocked, it gets +1/+1 until end of turn for each creature blocking it beyond the first.)</i>
p657
aVAt the beginning of your upkeep, sacrifice Haazda Shield Mate unless you pay {W}{W}.<br>{W}: The next time a source of your choice would deal damage to you this turn, prevent that damage.
p658
aV{T}, Sacrifice Haazda Exonerator: Destroy target Aura.
p659
aV<i>({T}: Add {W} or {U} to your mana pool.)</i><br>As Hallowed Fountain enters the battlefield, you may pay 2 life. If you don't, Hallowed Fountain enters the battlefield tapped.
p660
aV{W}, {T}: Harpoon Sniper deals X damage to target attacking or blocking creature, where X is the number of Merfolk you control.
p661
aVWhenever another creature enters the battlefield, you may put X +1/+1 counters on Hamletback Goliath, where X is that creature's power.
p662
aVWhenever Hasran Ogress attacks, it deals 3 damage to you unless you pay {2}.
p663
aVWhenever Hasran Ogress attacks, it deals 3 damage to you unless you pay {2}.
p664
aVHornet Sting deals 1 damage to target creature or player.
p665
aVFlying<br>When Howling Banshee enters the battlefield, each player loses 3 life.
p666
aVTarget player loses all poison counters. Leeches deals that much damage to that player.
p667
aVHail Storm deals 2 damage to each attacking creature and 1 damage to you and each creature you control.
p668
aVHammer of Bogardan deals 3 damage to target creature or player.<br>{2}{R}{R}{R}: Return Hammer of Bogardan from your graveyard to your hand. Activate this ability only during your upkeep.
p669
aV{T}: Target creature gets +2/+2 until end of turn. Activate this ability only during your turn, before attackers are declared.
p670
aVTarget creature gets +4/+4 until end of turn.
p671
aVFlying
p672
aVTarget player draws three cards and loses 3 life.
p673
aV{T}: Add {1} to your mana pool.<br>{3}, {T}, Sacrifice Haunted Fengraf: Return a creature card at random from your graveyard to your hand.
p674
aV{1}: You may cast target creature card in a graveyard this turn. When you cast that card this turn, Havengul Lich gains all activated abilities of that card until end of turn.
p675
aV{2}{U}, {T}, Exile a creature card from your graveyard: Put a 2/2 black Zombie creature token onto the battlefield, then put a +1/+1 counter on each Zombie creature you control.
p676
asS'costs'
p677
(lp678
V{2}{W/B}
p679
aV{2}{W}
p680
aV{3}{G}
p681
aV{B}{B}
p682
aV{W}{W}
p683
aV{X}{W}
p684
aV{1}{U}
p685
aV{4}{B}
p686
aV{2}{R}
p687
aV{2}{G}{G}
p688
aV{3}{R}
p689
aV{3}{B}
p690
aV{1}{G}{G}
p691
aV{W}
p692
aV{2}
p693
aV{2}{U}
p694
aV{1}{G}{G}
p695
aV{2}{W}
p696
aV{2}{B}
p697
aV{2}{R}
p698
aV{1}{R}
p699
aV{2}{W}
p700
aV{2}{G}
p701
aV{1}{B}
p702
aV{X}{W}
p703
aV{2}{B}
p704
aV{1}{R}
p705
aV{G}
p706
aV{3}{R}
p707
aV{2}{B}
p708
aV{5}{W}
p709
aS'0'
p710
aV{2}{W}
p711
aV{4}{R}{G}{W}
p712
aV{1}{W}{U}{B}
p713
ag710
aV{4}{R}{G}{W}
p714
ag710
aV{5}{W}
p715
aV{1}{U}
p716
aV{3}{R}
p717
aV{2}{W/B}{W/B}
p718
aV{5}{R}{R}
p719
aV{3}{W}{W}
p720
aV{2}{B/G}
p721
aV{4}{U}
p722
aV{R}
p723
aV{2}{R}
p724
aV{4}{B}{B}
p725
aV{2}
p726
aV{2}{W}
p727
aV{3}{B}
p728
aV{3}{W}
p729
aV{1}
p730
aV{1}{R}{R}
p731
aV{G}
p732
ag710
aV{6}
p733
aV{4}{G}
p734
aV{4}{R}{R}
p735
aV{1}{U}{U}
p736
aV{1}{U}
p737
aV{2}{G}{G}
p738
aV{2}{W}
p739
aV{3}{R}
p740
aV{3}{B}{B}
p741
aV{6}{G}
p742
aV{1}{G}{W}
p743
aV{4}{B}{B}
p744
ag710
aV{4}{B}{R}
p745
aV{1}{B}
p746
aV{3}{B}{B}
p747
aV{1}{B}{B}
p748
aV{1}{W}
p749
ag710
aV{B}
p750
aV{3}{B}
p751
aV{4}{B}
p752
aV{2}{B}{B}{B}
p753
aV{2}{U}{U}
p754
aV{1}{R}{R}
p755
ag710
aV{1}{U}
p756
aV{2}{R}
p757
aV{3}{B}
p758
aV{2}{G}
p759
aV{W}
p760
aV{B}
p761
aV{1}{U}
p762
aV{1}{U}
p763
aV{9}
p764
aV{2}{W}{W}
p765
aV{U}
p766
aV{1}{G}
p767
aV{2}{B}
p768
aV{1}{R}
p769
aV{2}{G}
p770
aV{2}{B}
p771
aV{5}{B}{B}
p772
aV{3}{G}
p773
aV{1}{W}
p774
aV{5}{W}
p775
aV{3}{U}
p776
aV{1}{B}{B}
p777
aV{1}{G}
p778
aV{1}{R}{R}
p779
aV{G}
p780
aV{W}
p781
ag710
aV{1}{U}
p782
aV{2}
p783
aV{1}{G}
p784
aV{B}{B}
p785
aV{5}{R}
p786
aV{2}{G}
p787
aV{1}{W}{U}
p788
aV{2}{W}{W}
p789
aV{1}{B}
p790
aV{2}{B}
p791
aV{3}
p792
aV{1}{R}{R}
p793
ag710
aV{2}{G}{G}
p794
aV{G}
p795
ag710
aV{2}{B}{B}
p796
aV{3}{U}{U}
p797
aV{1}{G}{G}
p798
aV{2}{W}{U}
p799
aV{1}{U}{B}
p800
aV{2}{W}{U}
p801
aV{1}{R}{R}
p802
aV{2}{U}{U}
p803
ag710
ag710
aV{4}{G}
p804
aV{1}{G}
p805
aV{2}{R}
p806
ag710
aV{2}{W}
p807
aV{B}{B}
p808
aV{2}{W}
p809
aV{3}{U}{B}
p810
aV{1}{U}
p811
aV{1}{W}{U}{B}
p812
ag710
aV{4}{R}{G}{W}
p813
aV{2}{W}
p814
aV{W}
p815
ag710
aV{2}{W}
p816
aV{1}{R}
p817
aV{B}{B}
p818
aV{B}{B}
p819
aV{4}{B}{B}
p820
aV{3}{B}
p821
aV{3}{W}{W}
p822
aV{1}{G}{G}
p823
aV{1}{R}{R}
p824
aV{2}{W}
p825
aV{2}{B}
p826
aV{2}{B}
p827
aV{4}{B}
p828
ag710
aV{3}{U}{B}
p829
aV{2}{U}{U}
p830
asS'names'
p831
(lp832
VHarmonize
p833
aVHarbor Serpent
p834
aVHaru-Onna
p835
aVHand of Cruelty
p836
aVHand of Honor
p837
aVHail of Arrows
p838
aVHarbor Serpent
p839
aVHarbor Bandit
p840
aVHamletback Goliath
p841
aVHarmonize
p842
aVHammerheim Deadeye
p843
aVHaunting Wind
p844
aVHail Storm
p845
aVHarm's Way
p846
aVHalt Order
p847
aVHand of the Praetors
p848
aVHarm's Way
p849
aVHaunting Echoes
p850
aVHaunted Plate Mail
p851
aVHand to Hand
p852
aVHavoc
p853
aVHanna's Custody
p854
aVHarrow
p855
aVHate Weaver
p856
aVHail of Arrows
p857
aVHaunted Crossroads
p858
aVHammer Mage
p859
aVHana Kami
p860
aVHammerheim Deadeye
p861
aVHand of Death
p862
aVHand of Justice
p863
aVHavenwood Battleground
p864
aVHaunted Angel
p865
aVHazezon Tamar
p866
aVHalfdane
p867
aVHammerheim
p868
aVHazezon Tamar
p869
aVHavenwood Battleground
p870
aVHarrier Griffin
p871
aVHatching Plans
p872
aVHatchet Bully
p873
aVHarvest Gwyllion
p874
aVHateflayer
p875
aVHallowed Burial
p876
aVHag Hedge-Mage
p877
aVHanweir Lancer
p878
aVHarvester of Souls
p879
aVHaunted Guardian
p880
aVHavengul Skaab
p881
aVHavengul Vampire
p882
aVHarsh Mercy
p883
aVHaunted Cadaver
p884
aVHarsh Deceiver
p885
aVHankyu
p886
aVHanabi Blast
p887
aVHana Kami
p888
aVHall of the Bandit Lord
p889
aVHair-Strung Koto
p890
aVHarbinger of Spring
p891
aVHammerfist Giant
p892
aVHalcyon Glaze
p893
aVHada Spy Patrol
p894
aVHarmonize
p895
aVHallowed Healer
p896
aVHalberdier
p897
aVHaunting Echoes
p898
aVHavenwood Wurm
p899
aVHarmonic Sliver
p900
aVHaunting Hymn
p901
aVHallowed Fountain
p902
aVHavoc Festival
p903
aVHands of Binding
p904
aVHatred
p905
aVHaakon, Stromgald Scourge
p906
aVHallowed Ground
p907
aVHalls of Mist
p908
aVHagra Crocodile
p909
aVHagra Diabolist
p910
aVHalo Hunter
p911
aVHarrow
p912
aVHarmattan Efreet
p913
aVHammer of Bogardan
p914
aVHavenwood Battleground
p915
aVHazy Homunculus
p916
aVHammerhand
p917
aVHaunted Plate Mail
p918
aVHarmonic Convergence
p919
aVHallow
p920
aVHada Spy Patrol
p921
aVHalimar Wavewatch
p922
aVHand of Emrakul
p923
aVHarmless Assault
p924
aVHaze Frog
p925
aVHapless Researcher
p926
aVHarvester Druid
p927
aVHand of Death
p928
aVHaze of Rage
p929
aVHarmony of Nature
p930
aVHand of Death
p931
aVHavoc Demon
p932
aVHawkeater Moth
p933
aVHallowed Ground
p934
aVHand of Justice
p935
aVHammer of Purphoros
p936
aVHaunting Misery
p937
aVHarvest Wurm
p938
aVHammer of Bogardan
p939
aVHarvest Mage
p940
aVHada Freeblade
p941
aVHalimar Depths
p942
aVHalimar Excavator
p943
aVHammer of Ruin
p944
aVHarabaz Druid
p945
aVHasran Ogress
p946
aVHalam Djinn
p947
aVHarrow
p948
aVHanna, Ship's Navigator
p949
aVHarsh Judgment
p950
aVHate Weaver
p951
aVHall of Triumph
p952
aVHarness by Force
p953
aVHarvestguard Alseids
p954
aVHavenwood Battleground
p955
aVHarmonize
p956
aVHardened Scales
p957
aVHalimar Depths
p958
aVHarbinger of Night
p959
aVHakim, Loreweaver
p960
aVHall of Gemstone
p961
aVHarbor Guardian
p962
aVHaunting Apparition
p963
aVHazerider Drake
p964
aVHammer of Bogardan
p965
aVHarmattan Efreet
p966
aVHaakon, Stromgald Scourge Avatar
p967
aVHanna
p968
aVHamlet Captain
p969
aVHanweir Watchkeep
p970
aVHarvest Pyre
p971
aVHavenwood Battleground
p972
aVHarsh Justice
p973
aVHasran Ogress
p974
aVHaazda Snare Squad
p975
aVHaunter of Nightveil
p976
aVHammerhead Shark
p977
aVHalfdane
p978
aVHammerheim
p979
aVHazezon Tamar
p980
aVHaazda Shield Mate
p981
aVHaazda Exonerator
p982
aVHallowed Fountain
p983
aVHarpoon Sniper
p984
aVHamletback Goliath
p985
aVHasran Ogress
p986
aVHasran Ogress
p987
aVHarbor Serpent
p988
aVHaunting Echoes
p989
aVHazduhr the Abbot
p990
aVHail Storm
p991
aVHammer of Bogardan
p992
aVHarsh Justice
p993
aVHand of Death
p994
aVHand of Death
p995
aVHarrowing Journey
p996
aVHaunted Fengraf
p997
aVHavengul Lich
p998
aVHavengul Runebinder
p999
asS'toughs'
p1000
(lp1001
S'N/A'
p1002
aV5
p1003
aV1
p1004
aV2
p1005
ag1005
ag1002
ag1005
ag1005
ag1005
ag1002
aV3
p1006
ag1002
ag1002
ag1002
ag1002
ag1005
ag1002
ag1002
ag1002
ag1002
ag1002
ag1002
ag1002
ag1003
ag1002
ag1002
ag1004
ag1005
ag1005
ag1002
aV6
p1007
ag1002
ag1006
aV4
p1008
ag1003
ag1002
ag1006
ag1002
ag1006
ag1002
ag1006
ag1008
ag1003
ag1002
ag1005
aV7
p1009
ag1005
ag1002
ag1005
ag1003
ag1002
ag1005
ag1008
ag1002
ag1002
ag1004
ag1002
ag1002
ag1004
ag1008
ag1002
ag1006
ag1002
ag1004
ag1004
ag1002
ag1007
ag1004
ag1002
ag1002
ag1002
ag1002
ag1002
ag1004
ag1002
ag1002
ag1004
ag1004
ag1005
ag1002
ag1005
ag1002
ag1002
ag1004
ag1002
ag1002
ag1002
ag1002
ag1006
ag1004
ag1004
ag1002
ag1006
ag1004
ag1004
ag1002
ag1002
ag1002
ag1002
ag1003
ag1006
ag1002
ag1004
ag1002
ag1002
ag1006
ag1002
ag1004
ag1004
ag1002
ag1006
ag1002
ag1004
ag1004
ag1003
ag1002
ag1004
ag1002
ag1005
ag1002
ag1002
ag1002
ag1002
ag1002
ag1002
ag1002
ag1006
ag1005
ag1002
ag1005
ag1005
ag1006
ag1002
ag1004
ag1002
ag1002
ag1003
aV*
p1010
ag1002
ag1002
ag1002
ag1006
ag1008
ag1008
ag1006
ag1003
ag1002
ag1004
ag1004
ag1007
ag1002
ag1005
ag1004
ag1005
ag1004
ag1004
ag1002
ag1006
ag1002
ag1002
ag1002
ag1002
ag1002
ag1002
ag1002
ag1008
ag1008
asS'artists'
p1011
(lp1012
VPaul Lee
p1013
aS''
p1014
aVRebecca Guay
p1015
aVKev Walker
p1016
aVKev Walker
p1017
aVAnthony S. Waters
p1018
aVDaarken
p1019
aVJesper Ejsing
p1020
aVParente & Brian Snoddy
p1021
aVRob Alexander
p1022
aVCarl Critchlow
p1023
aVJeff A. Menges
p1024
aVJeff A. Menges
p1025
aVDan Scott
p1026
aVIzzy
p1027
aVIzzy
p1028
aVDan Scott
p1029
aVNils Hamm
p1030
aVIzzy
p1031
aVCarl Frank
p1032
aVDonato Giancola
p1033
aVDiTerlizzi
p1034
aVEric David Anderson
p1035
aVRoger Raupp
p1036
aVAnthony S. Waters
p1037
aVCarl Critchlow
p1038
aVRebecca Guay
p1039
ag1014
ag1014
aVHeather Hudson
p1040
aVMelissa Benson
p1041
aVMark Poole
p1042
aVArnie Swekel
p1043
aVJustin Hampton
p1044
aVBryon Wackwitz
p1045
aVRichard Kane Ferguson
p1046
aVMark Tedin
p1047
aVMark Poole
p1048
aVJim Nelson
p1049
aVHeather Hudson
p1050
aVPaul Bonner
p1051
aVNils Hamm
p1052
aVThomas M. Baxa
p1053
aVDave Kendall
p1054
aVScott Altmann
p1055
aVSlawomir Maniak
p1056
aVDaniel Ljunggren
p1057
aVVincent Proce
p1058
aVJames Ryman
p1059
aVWinona Nelson
p1060
aVJohn Matson
p1061
aVRandy Gallegos
p1062
aVHeather Hudson
p1063
aVBen Thompson
p1064
aVPaolo Parente
p1065
aVRebecca Guay
p1066
aVPaolo Parente
p1067
aVRebecca Guay
p1068
aVCara Mitten
p1069
aVCarl Critchlow
p1070
aVJohn Avon
p1071
aVZoltan Boros & Gabor Szikszai
p1072
aVPaul Lee
p1073
aVBen Thompson
p1074
aVBen Thompson
p1075
aVArnie Swekel
p1076
aVStuart Griffin
p1077
aVLuca Zontini
p1078
aVrk post
p1079
aVJung Park
p1080
aVJohannes Voss
p1081
aVRaymond Swanland
p1082
aVBrom
p1083
aVMark Zug
p1084
aVDouglas Shuler
p1085
aVMark Poole
p1086
aVDaren Bader
p1087
aVKarl Kopinski
p1088
aVChris Rahn
p1089
aVIzzy
p1090
aVDrew Tucker
p1091
aVRon Spencer
p1092
aVLiz Danforth
p1093
aVAnthony S. Waters
p1094
aVTomasz Jedruszek
p1095
aVIzzy
p1096
aVJohn Avon
p1097
aVAlex Horley-Orlandelli
p1098
aVZoltan Boros & Gabor Szikszai
p1099
aVMatt Stewart
p1100
aVChippy
p1101
aVChippy
p1102
aVJesper Ejsing
p1103
aVRon Spears
p1104
aVDavid Martin
p1105
aVHeather Hudson
p1106
aVParente
p1107
aVKaja Foglio
p1108
aVHeather Hudson
p1109
aVThomas M. Baxa
p1110
aVHeather Hudson
p1111
aVDouglas Shuler
p1112
aVMelissa A. Benson
p1113
aVYeong-Hao Han
p1114
aVGary Leach
p1115
aVStephen L. Walsh
p1116
aVRon Spencer
p1117
aVDan Frazier
p1118
aVCyril Van Der Haegen
p1119
aVVolkan Baga
p1120
aVKev Walker
p1121
aVVincent Proce
p1122
aVWayne Reynolds
p1123
aVDan Frazier
p1124
aVAdam Rex
p1125
aVRob Alexander
p1126
aVDave Dorman
p1127
aVCarl Critchlow
p1128
aVRoger Raupp
p1129
aVRyan Yee
p1130
aVYefim Kligerman
p1131
aVIgor Kieryluk
p1132
aVLiz Danforth
p1133
aVPaul Lee
p1134
aVMark Winters
p1135
aVVolkan Baga
p1136
aVTom Kyffin
p1137
aVAlan Rabinowitz
p1138
aVDavid A. Cherry
p1139
aVPatrick Beel
p1140
aVChippy
p1141
aVZina Saunders
p1142
aVRon Spencer
p1143
aVDrew Tucker
p1144
aVUDON
p1145
aVLiz Danforth
p1146
aVWayne Reynolds
p1147
aVWayne Reynolds
p1148
aVRyan Yee
p1149
aVLiz Danforth
p1150
aVJohn Coulthart
p1151
aVDan Frazier
p1152
aVDavid Palumbo
p1153
aVIgor Kieryluk
p1154
aVStephen Daniele
p1155
aVMelissa Benson
p1156
aVBryon Wackwitz
p1157
aVRichard Kane Ferguson
p1158
aVRon Spears
p1159
aVKev Walker
p1160
aVRob Alexander
p1161
aVDominick Domingo
p1162
aVParente & Brian Snoddy
p1163
aVDan Frazier
p1164
aVDan Frazier
p1165
aVDaarken
p1166
aVNils Hamm
p1167
aVDan Frazier
p1168
aVJeff A. Menges
p1169
ag1014
aVJohn Coulthart
p1170
aVJohn Coulthart
p1171
aVJohn Coulthart
p1172
aVJames Ryman
p1173
aVBud Cook
p1174
aVJohann Bodin
p1175
aVWinona Nelson
p1176
asS'powers'
p1177
(lp1178
g1002
ag1004
ag1005
ag1005
ag1005
ag1002
ag1003
ag1005
ag1007
ag1002
ag1006
ag1002
ag1002
ag1002
ag1002
ag1003
ag1002
ag1002
ag1002
ag1002
ag1002
ag1002
ag1002
ag1004
ag1002
ag1002
ag1004
ag1005
ag1006
ag1002
ag1005
ag1002
ag1006
ag1005
ag1006
ag1002
ag1006
ag1002
ag1006
ag1002
ag1006
ag1005
ag1003
ag1002
ag1005
ag1005
ag1003
ag1002
ag1005
ag1008
ag1002
ag1005
ag1004
ag1002
ag1002
ag1004
ag1002
ag1002
ag1005
ag1003
ag1002
ag1004
ag1002
ag1004
ag1006
ag1002
ag1003
ag1004
ag1002
ag1002
ag1002
ag1002
ag1002
ag1005
ag1002
ag1002
ag1006
ag1006
ag1007
ag1002
ag1005
ag1002
ag1002
ag1004
ag1002
ag1002
ag1002
ag1002
ag1004
ag1004
aV0
p1179
ag1002
ag1009
ag1004
ag1004
ag1002
ag1002
ag1002
ag1002
ag1003
ag1008
ag1002
ag1004
ag1002
ag1002
ag1008
ag1002
ag1004
ag1179
ag1002
ag1004
ag1002
ag1179
ag1004
ag1007
ag1002
ag1004
ag1002
ag1005
ag1002
ag1002
ag1002
ag1002
ag1002
ag1002
ag1002
ag1008
ag1179
ag1002
ag1005
ag1005
ag1006
ag1002
ag1004
ag1002
ag1002
ag1010
ag1005
ag1002
ag1002
ag1002
ag1005
ag1004
ag1006
ag1005
ag1006
ag1002
ag1004
ag1004
ag1006
ag1002
ag1005
ag1007
ag1006
ag1004
ag1006
ag1002
ag1006
ag1002
ag1002
ag1002
ag1002
ag1002
ag1002
ag1002
ag1008
ag1008
asS'types'
p1180
(lp1181
VSorcery
p1182
aVCreature - Serpent
p1183
aVCreature - Spirit
p1184
aVCreature - Human Samurai
p1185
aVCreature - Human Samurai
p1186
aVInstant
p1187
aVCreature - Serpent
p1188
aVCreature - Human Rogue
p1189
aVCreature - Giant Warrior
p1190
aVSorcery
p1191
aVCreature - Giant Warrior
p1192
aVEnchantment
p1193
aVInstant
p1194
aVInstant
p1195
aVInstant
p1196
aVCreature - Zombie
p1197
aVInstant
p1198
aVSorcery
p1199
aVArtifact - Equipment
p1200
aVEnchantment
p1201
aVEnchantment
p1202
aVEnchantment
p1203
aVInstant
p1204
aVCreature - Zombie Wizard
p1205
aVInstant
p1206
aVEnchantment
p1207
aVCreature - Human Spellshaper
p1208
aVCreature - Spirit
p1209
aVCreature - Giant Warrior
p1210
aVSorcery
p1211
aVCreature - Avatar
p1212
aVLand
p1213
aVCreature - Angel
p1214
aVLegendary Creature - Human Warrior
p1215
aVLegendary Creature - Shapeshifter
p1216
aVLegendary Land
p1217
aVLegendary Creature - Human Warrior
p1218
aVLand
p1219
aVCreature - Griffin
p1220
aVEnchantment
p1221
aVCreature - Goblin Warrior
p1222
aVCreature - Hag
p1223
aVCreature - Elemental
p1224
aVSorcery
p1225
aVCreature - Hag Shaman
p1226
aVCreature - Human Knight
p1227
aVCreature - Demon
p1228
aVArtifact Creature - Construct
p1229
aVCreature - Zombie Horror
p1230
aVCreature - Vampire
p1231
aVSorcery
p1232
aVCreature - Zombie
p1233
aVCreature - Spirit
p1234
aVArtifact - Equipment
p1235
aVInstant
p1236
aVCreature - Spirit
p1237
aVLegendary Land
p1238
aVArtifact
p1239
aVCreature - Spirit
p1240
aVCreature - Giant Warrior
p1241
aVEnchantment
p1242
aVCreature - Human Rogue
p1243
aVSorcery
p1244
aVCreature - Human Cleric
p1245
aVCreature - Human Barbarian
p1246
aVSorcery
p1247
aVCreature - Wurm
p1248
aVCreature - Sliver
p1249
aVInstant
p1250
aVLand - Plains Island
p1251
aVEnchantment
p1252
aVSorcery
p1253
aVInstant
p1254
aVLegendary Creature - Zombie Knight
p1255
aVEnchantment
p1256
aVLand
p1257
aVCreature - Crocodile
p1258
aVCreature - Ogre Shaman Ally
p1259
aVCreature - Demon
p1260
aVInstant
p1261
aVCreature - Efreet
p1262
aVSorcery
p1263
aVLand
p1264
aVCreature - Homunculus Illusion
p1265
aVEnchantment - Aura
p1266
aVArtifact - Equipment
p1267
aVInstant
p1268
aVInstant
p1269
aVCreature - Human Rogue
p1270
aVCreature - Merfolk Soldier
p1271
aVCreature - Eldrazi
p1272
aVInstant
p1273
aVCreature - Frog
p1274
aVCreature - Human Wizard
p1275
aVCreature - Human Druid
p1276
aVSorcery
p1277
aVSorcery
p1278
aVSorcery
p1279
aVSorcery
p1280
aVCreature - Demon
p1281
aVCreature - Insect
p1282
aVEnchantment
p1283
aVCreature - Avatar
p1284
aVLegendary Enchantment Artifact
p1285
aVSorcery
p1286
aVCreature - Wurm
p1287
aVSorcery
p1288
aVCreature - Human Spellshaper
p1289
aVCreature - Human Soldier Ally
p1290
aVLand
p1291
aVCreature - Human Wizard Ally
p1292
aVArtifact - Equipment
p1293
aVCreature - Human Druid Ally
p1294
aVCreature - Ogre
p1295
aVCreature - Djinn
p1296
aVInstant
p1297
aVLegendary Creature - Human Artificer
p1298
aVEnchantment
p1299
aVCreature - Zombie Wizard
p1300
aVLegendary Artifact
p1301
aVSorcery
p1302
aVEnchantment Creature - Nymph
p1303
aVLand
p1304
aVSorcery
p1305
aVEnchantment
p1306
aVLand
p1307
aVCreature - Spirit
p1308
aVLegendary Creature - Human Wizard
p1309
aVWorld Enchantment
p1310
aVCreature - Gargoyle
p1311
aVCreature - Spirit
p1312
aVCreature - Drake
p1313
aVSorcery
p1314
aVCreature - Efreet
p1315
aVVanguard
p1316
aVVanguard
p1317
aVCreature - Human Warrior
p1318
aVCreature - Human Warrior Werewolf
p1319
aVInstant
p1320
aVLand
p1321
aVInstant
p1322
aVCreature - Ogre
p1323
aVCreature - Human Soldier
p1324
aVCreature - Spirit
p1325
aVCreature - Fish
p1326
aVLegendary Creature - Shapeshifter
p1327
aVLegendary Land
p1328
aVLegendary Creature - Human Warrior
p1329
aVCreature - Human Soldier
p1330
aVCreature - Human Cleric
p1331
aVLand - Plains Island
p1332
aVCreature - Merfolk Archer
p1333
aVCreature - Giant Warrior
p1334
aVCreature - Ogre
p1335
aVCreature - Ogre
p1336
aVCreature - Serpent
p1337
aVSorcery
p1338
aVLegendary Creature - Human Cleric
p1339
aVInstant
p1340
aVSorcery
p1341
aVInstant
p1342
aVSorcery
p1343
aVSorcery
p1344
aVSorcery
p1345
aVLand
p1346
aVCreature - Zombie Wizard
p1347
aVCreature - Human Wizard
p1348
asS'numbers'
p1349
(lp1350
V158
p1351
aV56
p1352
aV132
p1353
aV71
p1354
aV12
p1355
aV11
p1356
aV53
p1357
aV95
p1358
aV136
p1359
aV149
p1360
aV101
p1361
aV14
p1362
aV62
p1363
aV23
p1364
aV34
p1365
aV66
p1366
aV14
p1367
aV98
p1368
aV212
p1369
aV152
p1370
aV153
p1371
aV183
p1372
aV269
p1373
aV147
p1374
aV18
p1375
aV138
p1376
aV193
p1377
ag1014
ag1014
aV19
p1378
aV63
p1379
aV73
p1380
aV12
p1381
ag1004
aV150
p1382
aV207
p1383
aV151
p1384
aV230
p1385
aV9
p1386
aV27
p1387
aV54
p1388
aV90
p1389
aV55
p1390
ag1009
aV123
p1391
aV138
p1392
aV107
p1393
aV216
p1394
aV60
p1395
aV139
p1396
aV39
p1397
aV154
p1398
aV11
p1399
aV253
p1400
aV170
p1401
aV211
p1402
aV277
p1403
aV252
p1404
aV128
p1405
aV130
p1406
aV54
p1407
aV46
p1408
aV148
p1409
aV25
p1410
aV196
p1411
aV142
p1412
aV199
p1413
aV240
p1414
aV112
p1415
aV241
p1416
aV166
p1417
aV37
p1418
aV64
p1419
aV61
p1420
aV192
p1421
aV233
p1422
aV94
p1423
aV95
p1424
aV96
p1425
aV165
p1426
aV73
p1427
aV188
p1428
aV325
p1429
aV36
p1430
aV147
p1431
aV218
p1432
aV103
p1433
ag1008
aV71
p1434
aV72
p1435
ag1003
aV24
p1436
aV187
p1437
aV42
p1438
aV120
p1439
aV80
p1440
aV100
p1441
aV80
p1442
aV114
p1443
aV74
p1444
aV259
p1445
aV14
p1446
aV15
p1447
aV124
p1448
aV25
p1449
aV68
p1450
aV193
p1451
aV105
p1452
ag1009
aV137
p1453
aV29
p1454
aV124
p1455
aV105
p1456
aV79
p1457
aV146
p1458
aV189
p1459
aV249
p1460
aV19
p1461
aV108
p1462
aV162
p1463
aV100
p1464
aV13
p1465
aV294
p1466
aV59
p1467
aV133
p1468
aV36
p1469
aV36
p1470
aV68
p1471
aV105
p1472
aV213
p1473
aV214
p1474
aV215
p1475
aV288
p1476
aV289
p1477
aV62
p1478
aV38
p1479
aV187
p1480
aV145
p1481
aV146
p1482
aV52
p1483
aV13
p1484
aV86
p1485
ag1005
aV76
p1486
aV40
p1487
aV134
p1488
aV174
p1489
aV234
p1490
aV12
p1491
aV11
p1492
aV174
p1493
aV19
p1494
aV173
p1495
ag1009
aV63
p1496
aV56
p1497
aV99
p1498
aV68
p1499
aV79
p1500
ag1014
aV77
p1501
aV140
p1502
aV141
p1503
aV67
p1504
aV157
p1505
aV139
p1506
aV39
p1507
as.