(dp0
S'rares'
p1
(lp2
VSpecial
p3
aVSpecial
p4
aVRare
p5
aVUncommon
p6
aVCommon
p7
aVUncommon
p8
aVRare
p9
aVRare
p10
aVUncommon
p11
aVCommon
p12
aVCommon
p13
aVCommon
p14
aVCommon
p15
aVUncommon
p16
aVUncommon
p17
aVRare
p18
aVCommon
p19
aVRare
p20
aVMythic Rare
p21
aVRare
p22
aVRare
p23
aVCommon
p24
aVUncommon
p25
aVUncommon
p26
aVUncommon
p27
aVCommon
p28
aVUncommon
p29
aVUncommon
p30
aVRare
p31
aVCommon
p32
aVCommon
p33
aVCommon
p34
aVCommon
p35
aVCommon
p36
aVUncommon
p37
aVUncommon
p38
aVMythic Rare
p39
aVMythic Rare
p40
aVCommon
p41
aVRare
p42
aVRare
p43
aVUncommon
p44
aVCommon
p45
aVCommon
p46
aVUncommon
p47
aVUncommon
p48
asS'editns'
p49
(lp50
VAnthologies
p51
aVAnthologies
p52
aVMagic: The Gathering-Commander
p53
aVLimited Edition Beta
p54
aVMagic 2013
p55
aVFourth Edition
p56
aVMagic 2010
p57
aVTenth Edition
p58
aVVintage Masters
p59
aVFallen Empires
p60
aVFallen Empires
p61
aVFallen Empires
p62
aVFallen Empires
p63
aVRevised Edition
p64
aVGuildpact
p65
aVNinth Edition
p66
aVPlanechase 2012 Edition
p67
aVOnslaught
p68
aVFrom the Vault: Twenty
p69
aVTime Spiral
p70
aVReturn to Ravnica
p71
aVGatecrash
p72
aVUnlimited Edition
p73
aVIce Age
p74
aVIce Age
p75
aVIce Age
p76
aVTorment
p77
aVTorment
p78
aVTorment
p79
aVTorment
p80
aVMagic 2015 Core Set
p81
aVRise of the Eldrazi
p82
aVMasters Edition
p83
aVMasters Edition
p84
aVMasters Edition
p85
aVMasters Edition
p86
aVTheros
p87
aVMagic: The Gathering\u2014Conspiracy
p88
aVInvasion
p89
aVJourney into Nyx
p90
aVJourney into Nyx
p91
aVFifth Edition
p92
aVDuel Decks: Jace vs. Vraska
p93
aVInnistrad
p94
aVLimited Edition Alpha
p95
aVLegends
p96
asS'ids'
p97
(lp98
V-2146729976
p99
aV-2146729960
p100
aV228247
p101
aV363
p102
aV270378
p103
aV2109
p104
aV190566
p105
aV129600
p106
aV382976
p107
aV1850
p108
aV1852
p109
aV1851
p110
aV1849
p111
aV1165
p112
aV96840
p113
aV83354
p114
aV271150
p115
aV34952
p116
aV373324
p117
aV113533
p118
aV253655
p119
aV366423
p120
aV665
p121
aV2457
p122
aV2731
p123
aV2508
p124
aV29705
p125
aV29719
p126
aV31831
p127
aV33627
p128
aV383273
p129
aV198294
p130
aV159837
p131
aV159231
p132
aV159838
p133
aV159180
p134
aV373673
p135
aV382286
p136
aV23033
p137
aV380438
p138
aV380439
p139
aV3915
p140
aV380225
p141
aV234433
p142
aV68
p143
aV1578
p144
asS'texts'
p145
(lp146
VProtection from white<br><br>{B}: Knight of Stromgald gains first strike until end of turn.<br><br>{B}{B}: Knight of Stromgald gets +1/+0 until end of turn.
p147
aVDestroy target nonartifact, nonblack creature. It can't be regenerated.
p148
aVWhenever Hydra Omnivore deals combat damage to an opponent, it deals that much damage to each other opponent.
p149
aVU
p150
aV+1: Draw a card. Target player puts the top card of his or her library into his or her graveyard.<br>0: Target player puts the top ten cards of his or her library into his or her graveyard.<br>-7: Any number of target players each draw twenty cards.
p151
aVIf you would draw a card during your draw step, instead you may skip that draw. If you do, until your next turn, you can't be attacked except by creatures with flying and/or islandwalk.
p152
aVJackal Familiar can't attack or block alone.
p153
aVYou have shroud. <i>(You can't be the target of spells or abilities.)</i>
p154
aVAt the beginning of your upkeep, you gain X life, where X is the number of cards in your hand minus 4.
p155
aVTarget player discards two cards at random.
p156
aVTarget player discards two cards at random.
p157
aVTarget player discards two cards at random.
p158
aVTarget player discards two cards at random.
p159
aV{T}: Choose target non-Wall creature the active player has controlled continuously since the beginning of the turn. That creature attacks this turn if able. If it doesn't, destroy it at the beginning of the next end step. Activate this ability only during an opponent's turn, before attackers are declared.
p160
aVVigilance<br>{4}{W}: Lionheart Maverick gets +1/+2 until end of turn.
p161
aVEquipped creature gets +3/+0 and has trample and lifelink. <i>(If the creature would assign enough damage to its blockers to destroy them, you may have it assign the rest of its damage to defending player or planeswalker. Damage dealt by the creature also causes its controller to gain that much life.)</i><br>Equip {3} <i>({3}: Attach to target creature you control. Equip only as a sorcery.)</i>
p162
aVFlying<br>Cast Illusory Angel only if you've cast another spell this turn.
p163
aVTrample<br>Whenever Hystrodon deals combat damage to a player, you may draw a card.<br>Morph {1}{G}{G} <i>(You may cast this face down as a 2/2 creature for {3}. Turn it face up any time for its morph cost.)</i>
p164
aVTarget player discards two cards at random.
p165
aVSuspend 3\u2014{1}{G}{G} <i>(Rather than cast this card from your hand, pay {1}{G}{G} and exile it with three time counters on it. At the beginning of your upkeep, remove a time counter. When the last is removed, cast it without paying its mana cost.)</i><br>Starting with you, each player may put an artifact, creature, enchantment, or land card from his or her hand onto the battlefield. Repeat this process until no one puts a card onto the battlefield.
p166
aVFlying<br>Whenever a creature attacks you or a planeswalker you control, you may draw a card.
p167
aVCreature tokens get -1/-1.
p168
aV{1}: The next time a source of your choice would deal damage to target creature this turn, that source deals that damage to you instead.
p169
aV{0}: Hyalopterous Lemure gets -1/-0 and gains flying until end of turn.
p170
aVMerieke Ri Berit doesn't untap during your untap step.<br>{T}: Gain control of target creature for as long as you control Merieke Ri Berit. When Merieke Ri Berit leaves the battlefield or becomes untapped, destroy that creature. It can't be regenerated.
p171
aVEnchant creature<br>Enchanted creature can't be blocked except by two or more creatures.
p172
aV{W}, Discard a card: Prevent the next 3 damage that would be dealt to target creature or player this turn.<br>{W}, Sacrifice Hypochondria: Prevent the next 3 damage that would be dealt to target creature or player this turn.
p173
aVFlying<br>{U}, Sacrifice Hydromorph Gull: Counter target spell that targets one or more creatures you control.
p174
aVFlying<br>When Hypnox enters the battlefield, if you cast it from your hand, exile all cards from target opponent's hand.<br>When Hypnox leaves the battlefield, return the exiled cards to their owner's hand.
p175
aV{U}, Sacrifice Hydromorph Guardian: Counter target spell that targets one or more creatures you control.
p176
aVEnchant creature you control<br>Enchanted creature gets +2/+0.<br>{R}, Sacrifice Inferno Fist: Inferno Fist deals 2 damage to target creature or player.
p177
aVLevel up {4} <i>({4}: Put a level counter on this. Level up only as a sorcery.)</i><br>LEVEL 1-3<br>2/6<br>Vigilance<br>LEVEL 4+<br>3/10<br>Vigilance
p178
aV{0}: Hyalopterous Lemure gets -1/-0 and gains flying until end of turn.
p179
aVChoose one- Counter target spell if it's red; or destroy target permanent if it's red.
p180
aVPut target creature card from a graveyard onto the battlefield under your control.
p181
aVTarget player discards two cards at random.
p182
ag150
aVWhenever Hydra Omnivore deals combat damage to an opponent, it deals that much damage to each other opponent.
p183
aVKicker {4} <i>(You may pay an additional {4} as you cast this spell.)</i><br>Target player discards a card. If Hypnotic Cloud was kicked, that player discards three cards instead.
p184
aV{X}{X}{G}: Monstrosity X. <i>(If this creature isn't monstrous, put X +1/+1 counters on it and it becomes monstrous.)</i><br>When Hydra Broodmaster becomes monstrous, put X X/X green Hydra creature tokens onto the battlefield.
p185
aVBestow {5}{U}{U} <i>(If you cast this card for its bestow cost, it's an Aura spell with enchant creature. It becomes a creature again if it's not attached to a creature.)</i><br>Flying<br>You control enchanted creature.<br>Enchanted creature gets +1/+1 and has flying.
p186
aVChoose one- Counter target spell if it's red; or destroy target permanent if it's red.
p187
aVKicker {4} <i>(You may pay an additional {4} as you cast this spell.)</i><br>Target player discards a card. If Hypnotic Cloud was kicked, that player discards three cards instead.
p188
aVAs an additional cost to cast Infernal Plunge, sacrifice a creature.<br>Add {R}{R}{R} to your mana pool.
p189
aVEnchant creature<br>Enchanted creature has first strike.
p190
aVFirst strike<br>Other Kobold creatures you control have first strike.
p191
asS'costs'
p192
(lp193
V{1}{B}{B}
p194
aV{B}{B}
p195
aV{5}{G}{G}
p196
aV{1}{B}{B}
p197
aV{4}{U}{U}
p198
aV{1}{B}{B}
p199
aV{6}{G}
p200
aV{1}{B}{B}
p201
aV{1}{R}
p202
aV{B}{B}
p203
aV{B}{B}
p204
aV{B}{B}
p205
aV{B}{B}
p206
aV{1}{B}{B}
p207
aV{2}{R}
p208
aV{1}{B}{B}
p209
aV{W}
p210
aV{4}{G}
p211
aV{B}{B}
p212
aV{0}
p213
aV{3}{U}{R}
p214
aV{2}{R}{R}
p215
aV{1}{B}{B}
p216
aV{4}{B}
p217
aV{3}{G}{W}
p218
aV{U}
p219
aV{1}{W}
p220
aV{3}{U}{U}
p221
aV{8}{B}{B}{B}
p222
aV{2}{U}
p223
aV{3}{G}
p224
aV{5}{R}
p225
aV{4}{B}
p226
aV{U}
p227
aV{3}{G}{W}
p228
aV{B}{B}
p229
aV{2}{W}{W}
p230
aV{G}
p231
aV{1}{B}
p232
aV{4}{G}{G}
p233
aV{4}{G}{G}
p234
aV{U}
p235
aV{1}{B}
p236
aV{3}{G}{G}
p237
aV{1}{B}{B}
p238
aV{1}{R}{R}
p239
asS'names'
p240
(lp241
VHypnotic Specter
p242
aVHymn to Tourach
p243
aVHydra Omnivore
p244
aVHypnotic Specter
p245
aVHydrosurge
p246
aVHypnotic Specter
p247
aVHypnotic Specter
p248
aVHypnotic Specter
p249
aVHymn to Tourach
p250
aVHymn to Tourach
p251
aVHymn to Tourach
p252
aVHymn to Tourach
p253
aVHymn to Tourach
p254
aVHypnotic Specter
p255
aVHypervolt Grasp
p256
aVHypnotic Specter
p257
aVHyena Umbra
p258
aVHystrodon
p259
aVHymn to Tourach
p260
aVHypergenesis
p261
aVHypersonic Dragon
p262
aVHydroform
p263
aVHypnotic Specter
p264
aVHyalopterous Lemure
p265
aVHymn of Rebirth
p266
aVHydroblast
p267
aVHypochondria
p268
aVHydromorph Gull
p269
aVHypnox
p270
aVHydromorph Guardian
p271
aVHydrosurge
p272
aVHyena Umbra
p273
aVHyalopterous Lemure
p274
aVHydroblast
p275
aVHymn of Rebirth
p276
aVHymn to Tourach
p277
aVHythonia the Cruel
p278
aVHydra Omnivore
p279
aVHypnotic Cloud
p280
aVHydra Broodmaster
p281
aVHypnotic Siren
p282
aVHydroblast
p283
aVHypnotic Cloud
p284
aVHysterical Blindness
p285
aVHypnotic Specter
p286
aVHyperion Blacksmith
p287
asS'toughs'
p288
(lp289
V2
p290
aS'N/A'
p291
ag290
ag290
ag291
aV3
p292
ag292
aV1
p293
ag291
ag291
ag291
ag291
ag291
aV6
p294
ag291
ag293
ag291
ag293
ag291
ag291
aV4
p295
ag291
ag290
ag295
ag291
ag291
ag291
ag292
aV8
p296
ag290
ag291
ag291
ag294
ag291
ag291
ag291
ag292
ag290
ag291
ag294
ag291
ag291
ag291
ag291
ag292
ag295
asS'artists'
p297
(lp298
VDouglas Shuler
p299
aVLiz Danforth
p300
aVSvetlin Velinov
p301
aVDouglas Shuler
p302
aVSteve Prescott
p303
aVDouglas Shuler
p304
aVGreg Staples
p305
aVGreg Staples
p306
aVGreg Staples
p307
aVSusan Van Camp
p308
aVScott Kirschner
p309
aVQuinton Hoover
p310
aVLiz Danforth
p311
aVDouglas Shuler
p312
aVMark Romanoski
p313
aVGreg Staples
p314
aS''
p315
aVAnthony S. Waters
p316
aVGreg Staples
p317
aVRon Spears
p318
aVDan Scott
p319
aVHoward Lyon
p320
aVDouglas Schuler
p321
aVRichard Thomas
p322
aVRichard Kane Ferguson
p323
aVKaja Foglio
p324
aVChristopher Moeller
p325
aVArnie Swekel
p326
aVGreg Staples
p327
aVGlen Angus
p328
aVSteve Prescott
p329
aVHoward Lyon
p330
aVRichard Thomas
p331
aVKaja Foglio
p332
aVRichard Kane Ferguson
p333
aVQuinton Hoover
p334
aVChris Rahn
p335
aVSvetlin Velinov
p336
aVRandy Gallegos
p337
aVSteve Prescott
p338
aVJames Ryman
p339
aVKaja Foglio
p340
aVRandy Gallegos
p341
aVWayne England
p342
aVDouglas Schuler
p343
aVDan Frazier
p344
asS'powers'
p345
(lp346
g290
ag291
ag296
ag290
ag291
ag290
ag292
ag293
ag291
ag291
ag291
ag291
ag291
aV0
p347
ag291
ag293
ag291
ag293
ag291
ag291
ag295
ag291
ag290
ag292
ag291
ag291
ag291
ag292
ag296
ag290
ag291
ag291
ag290
ag291
ag291
ag291
ag295
ag292
ag291
ag295
ag291
ag291
ag291
ag291
ag290
ag295
asS'types'
p348
(lp349
VCreature - Specter
p350
aVSorcery
p351
aVCreature - Hydra
p352
aVCreature - Specter
p353
aVInstant
p354
aVCreature - Specter
p355
aVCreature - Specter
p356
aVCreature - Specter
p357
aVSorcery
p358
aVSorcery
p359
aVSorcery
p360
aVSorcery
p361
aVSorcery
p362
aVCreature - Specter
p363
aVEnchantment - Aura
p364
aVCreature - Specter
p365
aVEnchantment - Aura
p366
aVCreature - Beast
p367
aVSorcery
p368
aVSorcery
p369
aVCreature - Dragon
p370
aVInstant
p371
aVCreature - Specter
p372
aVCreature - Spirit
p373
aVSorcery
p374
aVInstant
p375
aVEnchantment
p376
aVCreature - Elemental Bird
p377
aVCreature - Nightmare Horror
p378
aVCreature - Elemental
p379
aVInstant
p380
aVEnchantment - Aura
p381
aVCreature - Spirit
p382
aVInstant
p383
aVSorcery
p384
aVSorcery
p385
aVLegendary Creature - Gorgon
p386
aVCreature - Hydra
p387
aVSorcery
p388
aVCreature - Hydra
p389
aVEnchantment Creature - Siren
p390
aVInstant
p391
aVSorcery
p392
aVInstant
p393
aVCreature - Specter
p394
aVCreature - Human Artificer
p395
asS'numbers'
p396
(lp397
g296
aV24
p398
aV161
p399
aV128
p400
aV54
p401
aV234
p402
aV100
p403
aV151
p404
aV122
p405
aV15
p406
aV125
p407
aV126
p408
aV127
p409
aV19
p410
aV67
p411
aV141
p412
aV99
p413
aV266
p414
ag292
aV201
p415
aV170
p416
aV172
p417
aV132
p418
aV45
p419
aV220
p420
aV293
p421
aV7
p422
aV40
p423
aV64
p424
aV39
p425
aV58
p426
aV26
p427
aV72
p428
aV37
p429
aV146
p430
aV73
p431
aV91
p432
aV169
p433
aV109
p434
aV128
p435
aV42
p436
aV71
p437
aV67
p438
aV59
p439
aV174
p440
aV98
p441
as.