(dp0
S'rares'
p1
(lp2
VRare
p3
asS'editns'
p4
(lp5
VTime Spiral
p6
asS'ids'
p7
(lp8
V114912
p9
asS'texts'
p10
(lp11
VWhenever another Goblin you control becomes blocked, sacrifice it. If you do, it deals 4 damage to each creature blocking it.<br>Sacrifice two Mountains: Put two 1/1 red Goblin creature tokens onto the battlefield.
p12
asS'costs'
p13
(lp14
V{3}{R}
p15
asS'names'
p16
(lp17
VIb Halfheart, Goblin Tactician
p18
asS'toughs'
p19
(lp20
V2
p21
asS'artists'
p22
(lp23
VWayne Reynolds
p24
asS'powers'
p25
(lp26
g21
asS'types'
p27
(lp28
VLegendary Creature - Goblin Advisor
p29
asS'numbers'
p30
(lp31
V163
p32
as.