(dp0
S'rares'
p1
(lp2
VRare
p3
asS'editns'
p4
(lp5
VSaviors of Kamigawa
p6
asS'ids'
p7
(lp8
V79860
p9
asS'texts'
p10
(lp11
VBushido 2 <i>(When this blocks or becomes blocked, it gets +2/+2 until end of turn.)</i><br>{2}{R}, Sacrifice a Samurai: Samurai creatures you control gain double strike until end of turn.
p12
asS'costs'
p13
(lp14
V{3}{R}{R}
p15
asS'names'
p16
(lp17
VIizuka the Ruthless
p18
asS'toughs'
p19
(lp20
V3
p21
asS'artists'
p22
(lp23
VDarrell Riche
p24
asS'powers'
p25
(lp26
g21
asS'types'
p27
(lp28
VLegendary Creature - Human Samurai
p29
asS'numbers'
p30
(lp31
V104
p32
as.