(dp0
S'rares'
p1
(lp2
VRare
p3
asS'editns'
p4
(lp5
VBetrayers of Kamigawa
p6
asS'ids'
p7
(lp8
V74507
p9
asS'texts'
p10
(lp11
VWhen Yukora, the Prisoner leaves the battlefield, sacrifice all non-Ogre creatures you control.
p12
asS'costs'
p13
(lp14
V{2}{G}{G}
p15
asS'names'
p16
(lp17
VIwamori of the Open Fist
p18
asS'toughs'
p19
(lp20
V5
p21
asS'artists'
p22
(lp23
VPaolo Parente
p24
asS'powers'
p25
(lp26
g21
asS'types'
p27
(lp28
VLegendary Creature - Human Monk
p29
asS'numbers'
p30
(lp31
V130
p32
as.