(dp0
S'rares'
p1
(lp2
VMythic Rare
p3
aVMythic Rare
p4
aVUncommon
p5
aVUncommon
p6
aVRare
p7
aVRare
p8
aVRare
p9
aVUncommon
p10
aVUncommon
p11
aVCommon
p12
aVRare
p13
aVCommon
p14
aVUncommon
p15
aVUncommon
p16
aVMythic Rare
p17
aVUncommon
p18
aVRare
p19
aVUncommon
p20
aVMythic Rare
p21
aVCommon
p22
aVRare
p23
aVMythic Rare
p24
aVUncommon
p25
aVRare
p26
aVCommon
p27
aVRare
p28
aVUncommon
p29
aVRare
p30
aVUncommon
p31
aVRare
p32
aVRare
p33
aVRare
p34
aVCommon
p35
aVRare
p36
aVUncommon
p37
aVRare
p38
aVUncommon
p39
aVUncommon
p40
aVRare
p41
aVRare
p42
aVUncommon
p43
aVRare
p44
aVCommon
p45
aVCommon
p46
aVUncommon
p47
aVUncommon
p48
aVUncommon
p49
aVRare
p50
aVRare
p51
aVCommon
p52
aVCommon
p53
aVCommon
p54
aVCommon
p55
aVUncommon
p56
aVUncommon
p57
aVCommon
p58
aVUncommon
p59
aVCommon
p60
aVCommon
p61
aVCommon
p62
aVUncommon
p63
aVCommon
p64
aVUncommon
p65
aVCommon
p66
aVUncommon
p67
aVRare
p68
aVRare
p69
aVUncommon
p70
aVRare
p71
aVCommon
p72
aVRare
p73
aVRare
p74
aVRare
p75
aVCommon
p76
aVRare
p77
aVUncommon
p78
aVMythic Rare
p79
aVUncommon
p80
aVUncommon
p81
aVRare
p82
aVRare
p83
aVCommon
p84
aVCommon
p85
aVRare
p86
aVMythic Rare
p87
aVUncommon
p88
aVUncommon
p89
aVRare
p90
aVRare
p91
aVCommon
p92
aVCommon
p93
aVRare
p94
aVRare
p95
aVUncommon
p96
aVRare
p97
aVUncommon
p98
aVUncommon
p99
aVMythic Rare
p100
aVRare
p101
aVMythic Rare
p102
aVRare
p103
aVUncommon
p104
aVCommon
p105
aVRare
p106
aVUncommon
p107
aVUncommon
p108
aVRare
p109
aVRare
p110
aVCommon
p111
aVUncommon
p112
aVRare
p113
aVRare
p114
aVUncommon
p115
aVRare
p116
aVRare
p117
aVCommon
p118
aVCommon
p119
aVMythic Rare
p120
aVCommon
p121
aVUncommon
p122
aVUncommon
p123
aVRare
p124
aVRare
p125
aVRare
p126
aVUncommon
p127
aVUncommon
p128
aVUncommon
p129
aVCommon
p130
aVUncommon
p131
aVSpecial
p132
aVSpecial
p133
aVUncommon
p134
aVRare
p135
aVRare
p136
aVUncommon
p137
aVUncommon
p138
aVUncommon
p139
aVRare
p140
aVUncommon
p141
aVUncommon
p142
aVCommon
p143
asS'editns'
p144
(lp145
VMagic: The Gathering-Commander
p146
aVMagic: The Gathering-Commander
p147
aVMagic: The Gathering-Commander
p148
aVLimited Edition Beta
p149
aVSaviors of Kamigawa
p150
aVSaviors of Kamigawa
p151
aVSaviors of Kamigawa
p152
aVSaviors of Kamigawa
p153
aVSaviors of Kamigawa
p154
aVSaviors of Kamigawa
p155
aVSaviors of Kamigawa
p156
aVSaviors of Kamigawa
p157
aVFourth Edition
p158
aVPlanar Chaos
p159
aVCommander's Arsenal
p160
aVDuel Decks: Ajani vs. Nicol Bolas
p161
aVAlliances
p162
aVDuel Decks: Knights vs. Dragons
p163
aVBorn of the Gods
p164
aVBorn of the Gods
p165
aVMagic 2010
p166
aVMagic 2014 Core Set
p167
aVMagic 2014 Core Set
p168
aVTenth Edition
p169
aVTenth Edition
p170
aVTenth Edition
p171
aVTenth Edition
p172
aVMercadian Masques
p173
aVVintage Masters
p174
aVVintage Masters
p175
aVVintage Masters
p176
aVModern Masters
p177
aVApocalypse
p178
aVApocalypse
p179
aVApocalypse
p180
aVMasters Edition III
p181
aVRevised Edition
p182
aVMasters Edition II
p183
aVMasters Edition II
p184
aVNinth Edition
p185
aVNinth Edition
p186
aVNinth Edition
p187
aVNinth Edition
p188
aVConflux
p189
aVPlanechase 2012 Edition
p190
aVPlanechase 2012 Edition
p191
aVOnslaught
p192
aVOnslaught
p193
aVOnslaught
p194
aVChampions of Kamigawa
p195
aVChampions of Kamigawa
p196
aVChampions of Kamigawa
p197
aVChampions of Kamigawa
p198
aVChampions of Kamigawa
p199
aVChampions of Kamigawa
p200
aVChampions of Kamigawa
p201
aVChampions of Kamigawa
p202
aVChampions of Kamigawa
p203
aVChampions of Kamigawa
p204
aVChampions of Kamigawa
p205
aVChampions of Kamigawa
p206
aVBetrayers of Kamigawa
p207
aVBetrayers of Kamigawa
p208
aVBetrayers of Kamigawa
p209
aVBetrayers of Kamigawa
p210
aVModern Event Deck 2014
p211
aVCommander 2013 Edition
p212
aVCommander 2013 Edition
p213
aVCommander 2013 Edition
p214
aVOdyssey
p215
aVOdyssey
p216
aVOdyssey
p217
aVTime Spiral
p218
aVColdsnap
p219
aVColdsnap
p220
aVColdsnap
p221
aVFrom the Vault: Relics
p222
aVUnlimited Edition
p223
aVIce Age
p224
aVIce Age
p225
aVIce Age
p226
aVTorment
p227
aVZendikar
p228
aVZendikar
p229
aVZendikar
p230
aVZendikar
p231
aVZendikar
p232
aVZendikar
p233
aVClassic Sixth Edition
p234
aVDuel Decks: Elspeth vs. Tezzeret
p235
aVShards of Alara
p236
aVSeventh Edition
p237
aVMagic 2015 Core Set
p238
aVMagic 2015 Core Set
p239
aVUrza's Legacy
p240
aVDarksteel
p241
aVRise of the Eldrazi
p242
aVRise of the Eldrazi
p243
aVRise of the Eldrazi
p244
aVNew Phyrexia
p245
aVScourge
p246
aVScourge
p247
aVFuture Sight
p248
aVUrza's Saga
p249
aVTheros
p250
aVEighth Edition
p251
aVWorldwake
p252
aVWorldwake
p253
aVInvasion
p254
aVInvasion
p255
aVInvasion
p256
aVInvasion
p257
aVInvasion
p258
aVInvasion
p259
aVInvasion
p260
aVInvasion
p261
aVInvasion
p262
aVAlara Reborn
p263
aVAlara Reborn
p264
aVAlara Reborn
p265
aVFifth Edition
p266
aVFifth Edition
p267
aVArchenemy
p268
aVArchenemy
p269
aVArchenemy
p270
aVMirage
p271
aVMirage
p272
aVMirage
p273
aVMirage
p274
aVVanguard
p275
aVVanguard
p276
aVLimited Edition Alpha
p277
aVVisions
p278
aVVisions
p279
aVVisions
p280
aVLegends
p281
aVLegends
p282
aVDuel Decks: Heroes vs. Monsters
p283
aVDuel Decks: Heroes vs. Monsters
p284
aVDuel Decks: Heroes vs. Monsters
p285
aVPlaneshift
p286
asS'ids'
p287
(lp288
V236473
p289
aV236468
p290
aV247549
p291
aV553
p292
aV74016
p293
aV74055
p294
aV74190
p295
aV74195
p296
aV74217
p297
aV74560
p298
aV84364
p299
aV87335
p300
aV2347
p301
aV126813
p302
aV338444
p303
aV249402
p304
aV3145
p305
aV243433
p306
aV378520
p307
aV378497
p308
aV191394
p309
aV370766
p310
aV370700
p311
aV106398
p312
aV129511
p313
aV129614
p314
aV129911
p315
aV19573
p316
aV382982
p317
aV382983
p318
aV382984
p319
aV370414
p320
aV26809
p321
aV27760
p322
aV28750
p323
aV201198
p324
aV1352
p325
aV184713
p326
aV184553
p327
aV82955
p328
aV83461
p329
aV84559
p330
aV83175
p331
aV189272
p332
aV271189
p333
aV271133
p334
aV34228
p335
aV39559
p336
aV40538
p337
aV50228
p338
aV50311
p339
aV50342
p340
aV50349
p341
aV50367
p342
aV76634
p343
aV77136
p344
aV77921
p345
aV79105
p346
aV79195
p347
aV79198
p348
aV79236
p349
aV74097
p350
aV74443
p351
aV74460
p352
aV81977
p353
aV382190
p354
aV376387
p355
aV376388
p356
aV376389
p357
aV29761
p358
aV31872
p359
aV29963
p360
aV113536
p361
aV121179
p362
aV122070
p363
aV121214
p364
aV212632
p365
aV855
p366
aV2632
p367
aV2755
p368
aV2633
p369
aV32229
p370
aV169963
p371
aV180347
p372
aV185704
p373
aV191356
p374
aV189635
p375
aV190408
p376
aV14730
p377
aV222762
p378
aV174837
p379
aV11366
p380
aV383290
p381
aV383291
p382
aV12955
p383
aV39478
p384
aV193433
p385
aV193482
p386
aV193611
p387
aV214350
p388
aV44263
p389
aV45858
p390
aV132218
p391
aV9847
p392
aV373538
p393
aV49011
p394
aV197118
p395
aV197145
p396
aV23063
p397
aV23079
p398
aV23097
p399
aV23106
p400
aV23125
p401
aV23144
p402
aV23186
p403
aV23323
p404
aV23109
p405
aV180587
p406
aV179602
p407
aV185060
p408
aV4139
p409
aV4186
p410
aV220557
p411
aV220490
p412
aV220470
p413
aV3299
p414
aV3394
p415
aV3456
p416
aV3541
p417
aV4963
p418
aV182265
p419
aV257
p420
aV3620
p421
aV3666
p422
aV3753
p423
aV1663
p424
aV1701
p425
aV373338
p426
aV373377
p427
aV373412
p428
aV26268
p429
asS'texts'
p430
(lp431
VFlying<br>Whenever Kaalia of the Vast attacks an opponent, you may put an Angel, Demon, or Dragon creature card from your hand onto the battlefield tapped and attacking that opponent.
p432
aVKarador, Ghost Chieftain costs {1} less to cast for each creature card in your graveyard.<br>During each of your turns, you may cast one creature card from your graveyard.
p433
aVKazandu Refuge enters the battlefield tapped.<br>When Kazandu Refuge enters the battlefield, you gain 1 life.<br>{T}: Add {R} or {G} to your mana pool.
p434
aVLightning Bolt deals 3 damage to target creature or player.
p435
aVKagemaro, First to Suffer's power and toughness are each equal to the number of cards in your hand.<br>{B}, Sacrifice Kagemaro: All creatures get -X/-X until end of turn, where X is the number of cards in your hand.
p436
aVWhen Kaho, Minamo Historian enters the battlefield, search your library for up to three instant cards and exile them. Then shuffle your library.<br>{X}, {T}: You may cast a card with converted mana cost X exiled with Kaho without paying its mana cost.
p437
aVAll artifacts have "At the beginning of your upkeep, sacrifice this artifact unless you pay {1}."
p438
aVLegendary Snakes you control have shroud. <i>(They can't be the targets of spells or abilities.)</i><br>Whenever Kashi-Tribe Elite deals combat damage to a creature, tap that creature and it doesn't untap during its controller's next untap step.
p439
aVAt the beginning of your upkeep, sacrifice Kami of the Tended Garden unless you pay {G}.<br>Soulshift 3 <i>(When this creature dies, you may return target Spirit card with converted mana cost 3 or less from your graveyard to your hand.)</i>
p440
aVEnchant creature<br>Enchanted creature gets -X/-X, where X is the number of cards in your hand.
p441
aVAt the beginning of each player's draw step, that player draws an additional card.
p442
aVSoulshift 3 <i>(When this creature dies, you may return target Spirit card with converted mana cost 3 or less from your graveyard to your hand.)</i>
p443
aVEnchant artifact<br>Whenever you're dealt damage, put that many vitality counters on Living Artifact.<br>At the beginning of your upkeep, you may remove a vitality counter from Living Artifact. If you do, you gain 1 life.
p444
aVTrample<br>Whenever an opponent gains life, put that many +1/+1 counters on Kavu Predator.
p445
aVFlying<br>Whenever Kaalia of the Vast attacks an opponent, you may put an Angel, Demon, or Dragon creature card from your hand onto the battlefield tapped and attacking that opponent.
p446
aVKazandu Refuge enters the battlefield tapped.<br>When Kazandu Refuge enters the battlefield, you gain 1 life.<br>{T}: Add {R} or {G} to your mana pool.
p447
aVEnchant creature you control<br>{0}: Untap enchanted creature. Activate this ability only during your turn and only once each turn.<br>Tap enchanted creature: Untap target artifact, creature, or land. Activate this ability only if enchanted creature is white and is untapped and only once each turn.
p448
aVLevel up {2}{W} <i>({2}{W}: Put a level counter on this. Level up only as a sorcery.)</i><br>LEVEL 2-4<br>3/6<br>Other creatures you control get +1/+1.<br>LEVEL 5+<br>4/8<br>Other creatures you control get +2/+2.
p449
aV+1: Until your next turn, prevent all damage that would be dealt to and dealt by target permanent an opponent controls.<br>-1: Draw a card. You may play an additional land this turn.<br>-5: You get an emblem with "At the beginning of your end step, put a 9/9 blue Kraken creature token onto the battlefield."
p450
aV{T}: Untap another target permanent.
p451
aVHaste <i>(This creature can attack and {T} as soon as it comes under your control.)</i>
p452
aVIntimidate <i>(This creature can't be blocked except by artifact creatures and/or creatures that share a color with it.)</i><br>When Lifebane Zombie enters the battlefield, target opponent reveals his or her hand. You choose a green or white creature card from it and exile that card.
p453
aVEnchant creature<br>Enchanted creature gets +3/+0 and has first strike. <i>(It deals combat damage before creatures without first strike.)</i>
p454
aVHaste <i>(This creature can attack and {T} as soon as it comes under your control.)</i><br>{T}: Kamahl, Pit Fighter deals 3 damage to target creature or player.
p455
aVWhen Kavu Climber enters the battlefield, draw a card.
p456
aV{T}: Add {G} to your mana pool.
p457
aVDestroy all artifacts. They can't be regenerated.
p458
aVFlash<br>Enchant creature<br>Enchanted creature has flying.
p459
aVWhenever Karn, Silver Golem blocks or becomes blocked, it gets -4/+4 until end of turn.<br>{1}: Target noncreature artifact becomes an artifact creature with power and toughness each equal to its converted mana cost until end of turn.
p460
aVFlying<br>Cycling {2} <i>({2}, Discard this card: Draw a card.)</i>
p461
aV{T}: Add {1} to your mana pool.<br>{4}{R}, {T}, Sacrifice a creature: Keldon Necropolis deals 2 damage to target creature or player.
p462
aVAll artifacts have "At the beginning of your upkeep, sacrifice this artifact unless you pay {1}."
p463
aV{W}: Kavu Glider gets +0/+1 until end of turn.<br>{U}: Kavu Glider gains flying until end of turn.
p464
aVTrample<br>Whenever Kavu Mauler attacks, it gets +1/+1 until end of turn for each other attacking Kavu.
p465
aVWhen Kavu Howler enters the battlefield, reveal the top four cards of your library. Put all Kavu cards revealed this way into your hand and the rest on the bottom of your library in any order.
p466
aVOther Kobold creatures you control get +0/+1 and have trample.
p467
aVEnchant creature<br>All creatures able to block enchanted creature do so.
p468
aVWhen Kjeldoran Dead enters the battlefield, sacrifice a creature.<br>{B}: Regenerate Kjeldoran Dead.
p469
aV{T}: Target creature gets +2/+2 until end of turn. When that creature leaves the battlefield this turn, sacrifice Kjeldoran Elite Guard. Activate this ability only during combat.
p470
aVAll creatures able to block Elvish Bard do so.
p471
aVYou may have Clone enter the battlefield as a copy of any creature on the battlefield.
p472
aVTarget player discards two cards.
p473
aVWhenever an opponent casts a spell, Mogg Sentry gets +2/+2 until end of turn.
p474
aVKnight of the Reliquary gets +1/+1 for each land card in your graveyard.<br>{T}, Sacrifice a Forest or Plains: Search your library for a land card, put it onto the battlefield, then shuffle your library.
p475
aVKazandu Refuge enters the battlefield tapped.<br>When Kazandu Refuge enters the battlefield, you gain 1 life.<br>{T}: Add {R} or {G} to your mana pool.
p476
aVKhalni Garden enters the battlefield tapped.<br>When Khalni Garden enters the battlefield, put a 0/1 green Plant creature token onto the battlefield.<br>{T}: Add {G} to your mana pool.
p477
aVEach player may reveal any number of creature cards from his or her hand. Then each player puts a 2/2 green Bear creature token onto the battlefield for each card he or she revealed this way.
p478
aVChoose any number of target players. For each of those players, reveal cards from the top of your library until you reveal a nonland card. Kaboom deals damage equal to that card's converted mana cost to that player, then you put the revealed cards on the bottom of your library in any order.
p479
aV{G}: Target land becomes a 1/1 creature until end of turn. It's still a land.<br>{2}{G}{G}{G}: Creatures you control get +3/+3 and gain trample until end of turn.
p480
aVSacrifice Kami of Twisted Reflection: Return target creature you control to its owner's hand.
p481
aVFlying<br>Whenever you cast a Spirit or Arcane spell, target creature gains fear until end of turn. <i>(It can't be blocked except by artifact creatures and/or black creatures.)</i>
p482
aVWhenever Kashi-Tribe Warriors deals combat damage to a creature, tap that creature and it doesn't untap during its controller's next untap step.
p483
aVFlying, first strike<br>Soulshift 5 <i>(When this creature dies, you may return target Spirit card with converted mana cost 5 or less from your graveyard to your hand.)</i>
p484
aVUp to three target creatures can't block this turn.
p485
aV{W}, {T}: Tap target creature.<br>Whenever you cast a Spirit or Arcane spell, untap Innocence Kami.
p486
aV{1}{G}, Sacrifice Hana Kami: Return target Arcane card from your graveyard to your hand.
p487
aVSacrifice Scuttling Death: Target creature gets -1/-1 until end of turn.<br>Soulshift 4 <i>(When this creature dies, you may return target Spirit card with converted mana cost 4 or less from your graveyard to your hand.)</i>
p488
aVMyojin of Night's Reach enters the battlefield with a divinity counter on it if you cast it from your hand.<br>Myojin of Night's Reach is indestructible as long as it has a divinity counter on it.<br>Remove a divinity counter from Myojin of Night's Reach: Each opponent discards his or her hand.
p489
aVWhenever you cast a Spirit or Arcane spell, Kami of the Hunt gets +1/+1 until end of turn.
p490
aVBushido 1 <i>(When this blocks or becomes blocked, it gets +1/+1 until end of turn.)</i><br>As long as you control a legendary Samurai, Konda's Hatamoto gets +1/+2 and has vigilance. <i>(Attacking doesn't cause this creature to tap.)</i>
p491
aVR
p492
aVSacrifice Kami of False Hope: Prevent all combat damage that would be dealt this turn.
p493
aVFlying<br>Creatures you control have "Whenever this creature becomes the target of a spell or ability for the first time in a turn, counter that spell or ability."
p494
aVSacrifice Child of Thorns: Target creature gets +1/+1 until end of turn.
p495
aVWhenever equipped creature deals combat damage, put two charge counters on Umezawa's Jitte.<br>Remove a charge counter from Umezawa's Jitte: Choose one-  Equipped creature gets +2/+2 until end of turn; or target creature gets -1/-1 until end of turn; or you gain 2 life.<br>Equip {2}
p496
aVAll artifacts have "At the beginning of your upkeep, sacrifice this artifact unless you pay {1}."
p497
aVFlying, protection from black<br>Echo {3}{W}{W} <i>(At the beginning of your upkeep, if this came under your control since the beginning of your last upkeep, sacrifice it unless you pay its echo cost.)</i><br>When Karmic Guide enters the battlefield, return target creature card from your graveyard to the battlefield.
p498
aVKazandu Refuge enters the battlefield tapped.<br>When Kazandu Refuge enters the battlefield, you gain 1 life.<br>{T}: Add {R} or {G} to your mana pool.
p499
aVLevel up {1}{G} <i>({1}{G}: Put a level counter on this. Level up only as a sorcery.)</i><br>LEVEL 2-5<br>1/1<br>{T}: Put a 3/3 green Elephant creature token onto the battlefield.<br>LEVEL 6+<br>1/1<br>{T}: Put two 3/3 green Elephant creature tokens onto the battlefield.
p500
aVEnchant creature<br>Enchanted creature has first strike.<br>Threshold- Enchanted creature gets +3/+0 as long as seven or more cards are in your graveyard.
p501
aVEnchant creature<br>Enchanted creature gets +1/+1 and has protection from enchantments. This effect doesn't remove Tattoo Ward.<br>Sacrifice Tattoo Ward: Destroy target enchantment.
p502
aVHaste <i>(This creature can attack the turn it comes under your control.)</i><br>Magnivore's power and toughness are each equal to the number of sorcery cards in all graveyards.
p503
aVWhenever an opponent casts a spell, Kaervek the Merciless deals damage to target creature or player equal to that spell's converted mana cost.
p504
aVWhenever Karplusan Wolverine becomes blocked, you may have it deal 1 damage to target creature or player.
p505
aVFlying<br>Cumulative upkeep\u2014Discard a card. <i>(At the beginning of your upkeep, put an age counter on this permanent, then sacrifice it unless you pay its upkeep cost for each age counter on it.)</i><br>When Vexing Sphinx dies, draw a card for each age counter on it.
p506
aVPrevent all damage that black sources and red sources would deal this turn.
p507
aVWhenever Karn, Silver Golem blocks or becomes blocked, it gets -4/+4 until end of turn.<br>{1}: Target noncreature artifact becomes an artifact creature with power and toughness each equal to its converted mana cost until end of turn.
p508
aVDefender <i>(This creature can't attack.)</i><br>{1}: Regenerate Living Wall.
p509
aVLava Burst deals X damage to target creature or player. If Lava Burst would deal damage to a creature, that damage can't be prevented or dealt instead to another creature or player.
p510
aVLava Tubes doesn't untap during your untap step if it has a depletion counter on it.<br>At the beginning of your upkeep, remove a depletion counter from Lava Tubes.<br>{T}: Add {B} or {R} to your mana pool. Put a depletion counter on Lava Tubes.
p511
aVFlying; first strike; banding <i>(Any creatures with banding, and up to one without, can attack in a band. Bands are blocked as a group. If any creatures with banding you control are blocking or being blocked by a creature, you divide that creature's combat damage, not its controller, among any of the creatures it's being blocked by or is blocking.)</i>
p512
aVKamahl's Sledge deals 4 damage to target creature.<br>Threshold- If seven or more cards are in your graveyard, instead Kamahl's Sledge deals 4 damage to that creature and 4 damage to that creature's controller.
p513
aVKabira Crossroads enters the battlefield tapped.<br>When Kabira Crossroads enters the battlefield, you gain 2 life.<br>{T}: Add {W} to your mana pool.
p514
aVWhenever Kabira Evangel or another Ally enters the battlefield under your control, you may choose a color. If you do, Allies you control gain protection from the chosen color until end of turn.
p515
aV{B}{B}{B}, {T}: Destroy target creature. If that creature dies this way, put a black Vampire creature token onto the battlefield. Its power is equal to that creature's power and its toughness is equal to that creature's toughness.
p516
aVFirst strike, vigilance<br>Whenever Kazandu Blademaster or another Ally enters the battlefield under your control, you may put a +1/+1 counter on Kazandu Blademaster.
p517
aVKazandu Refuge enters the battlefield tapped.<br>When Kazandu Refuge enters the battlefield, you gain 1 life.<br>{T}: Add {R} or {G} to your mana pool.
p518
aVWhenever Kazuul Warlord or another Ally enters the battlefield under your control, you may put a +1/+1 counter on each Ally creature you control.
p519
aVCounter target spell. If that spell is countered this way, put it on top of its owner's library instead of into that player's graveyard.
p520
aVKicker {1}{W} <i>(You may pay an additional {1}{W} as you cast this spell.)</i><br>Flying<br>When Kor Aeronaut enters the battlefield, if it was kicked, target creature gains flying until end of turn.
p521
aVFlying<br>Whenever Sedraxis Specter deals combat damage to a player, that player discards a card.<br>Unearth {1}{B} <i>({1}{B}: Return this card from your graveyard to the battlefield. It gains haste. Exile it at the beginning of the next end step or if it would leave the battlefield. Unearth only as a sorcery.)</i>
p522
aVMaro's power and toughness are each equal to the number of cards in your hand.
p523
aVIntimidate <i>(This creature can't be blocked except by artifact creatures and/or creatures that share a color with it.)</i>
p524
aVWhenever you activate an ability of an artifact, if it isn't a mana ability, you may pay {R}. If you do, copy that ability. You may choose new targets for the copy.
p525
aVFlying, protection from black<br>Echo {3}{W}{W} <i>(At the beginning of your upkeep, if this came under your control since the beginning of your last upkeep, sacrifice it unless you pay its echo cost.)</i><br>When Karmic Guide enters the battlefield, return target creature card from your graveyard to the battlefield.
p526
aVKarstoderm enters the battlefield with five +1/+1 counters on it.<br>Whenever an artifact enters the battlefield, remove a +1/+1 counter from Karstoderm.
p527
aVLevel up {1}{G} <i>({1}{G}: Put a level counter on this. Level up only as a sorcery.)</i><br>LEVEL 2-5<br>1/1<br>{T}: Put a 3/3 green Elephant creature token onto the battlefield.<br>LEVEL 6+<br>1/1<br>{T}: Put two 3/3 green Elephant creature tokens onto the battlefield.
p528
aV{5}, {T}: Target player puts the top X cards of his or her library into his or her graveyard, where X is the number of cards in that player's graveyard.
p529
aVKhalni Hydra costs {G} less to cast for each green creature you control.<br>Trample
p530
aVWhenever Kiln Walker attacks, it gets +3/+0 until end of turn.
p531
aVHaste<br>At the beginning of each player's upkeep, that player untaps Karona, False God and gains control of it.<br>Whenever Karona attacks, creatures of the creature type of your choice get +3/+3 until end of turn.
p532
aVMorph {3}{W}{W} <i>(You may cast this face down as a 2/2 creature for {3}. Turn it face up any time for its morph cost.)</i><br>When Karona's Zealot is turned face up, all damage that would be dealt to it this turn is dealt to target creature instead.
p533
aVShadow <i>(This creature can block or be blocked by only creatures with shadow.)</i><br>Forecast- {1}{W}, Reveal Spirit en-Dal from your hand: Target creature gains shadow until end of turn. <i>(Activate this ability only during your upkeep and only once each turn.)</i>
p534
aVEnchant creature<br>Sacrifice a Forest: Regenerate enchanted creature.<br>When Fortitude is put into a graveyard from the battlefield, return Fortitude to its owner's hand.
p535
aVHeroic- Whenever you cast a spell that targets Labyrinth Champion, Labyrinth Champion deals 2 damage to target creature or player.
p536
aV{T}: Draw a card.
p537
aVWhenever a creature an opponent controls attacks, if you're the defending player, put a 3/3 red Ogre creature token onto the battlefield unless that creature's controller pays {3}.
p538
aVKhalni Garden enters the battlefield tapped.<br>When Khalni Garden enters the battlefield, put a 0/1 green Plant creature token onto the battlefield.<br>{T}: Add {G} to your mana pool.
p539
aVKicker {4} <i>(You may pay an additional {4} as you cast this spell.)</i><br>Kavu Aggressor can't block.<br>If Kavu Aggressor was kicked, it enters the battlefield with a +1/+1 counter on it.
p540
aVKavu Runner has haste as long as no opponent controls a white or blue creature.
p541
aVKavu creatures have trample.<br>Whenever another Kavu enters the battlefield, put a +1/+1 counter on Kavu Monarch.
p542
aVKicker {2}{G} <i>(You may pay an additional {2}{G} as you cast this spell.)</i><br>If Kavu Titan was kicked, it enters the battlefield with three +1/+1 counters on it and with trample.
p543
aVKavu Chameleon can't be countered.<br>{G}: Kavu Chameleon becomes the color of your choice until end of turn.
p544
aVWhenever a creature with power 4 or greater enters the battlefield, its controller draws a card.
p545
aVKicker {X}{2} <i>(You may pay an additional {X}{2} as you cast this spell.)</i><br>Flying<br>When Kangee, Aerie Keeper enters the battlefield, if it was kicked, put X feather counters on it.<br>Other Bird creatures get +1/+1 for each feather counter on Kangee, Aerie Keeper.
p546
aVDomain- Kavu Scout gets +1/+0 for each basic land type among lands you control.
p547
aVWhen Kavu Climber enters the battlefield, draw a card.
p548
aVFlying<br>When Kathari Bomber deals combat damage to a player, put two 1/1 red Goblin creature tokens onto the battlefield and sacrifice Kathari Bomber.<br>Unearth {3}{B}{R} <i>({3}{B}{R}: Return this card from your graveyard to the battlefield. It gains haste. Exile it at the beginning of the next end step or if it would leave the battlefield. Unearth only as a sorcery.)</i>
p549
aVFlying<br>{B}: Regenerate Kathari Remnant.<br>Cascade <i>(When you cast this spell, exile cards from the top of your library until you exile a nonland card that costs less. You may cast it without paying its mana cost. Put the exiled cards on the bottom in a random order.)</i>
p550
aVEach other multicolored creature you control gets +1/+1 for each of its colors.
p551
aVYou have no maximum hand size.<br>If an effect causes you to discard a card, discard it, but you may put it on top of your library instead of into your graveyard.
p552
aVWhenever a Forest an opponent controls becomes tapped, you gain 1 life.
p553
aVWhenever an opponent casts a spell, Kaervek the Merciless deals damage to target creature or player equal to that spell's converted mana cost.
p554
aV{G}: Target land becomes a 1/1 creature until end of turn. It's still a land.<br>{2}{G}{G}{G}: Creatures you control get +3/+3 and gain trample until end of turn.
p555
aVKazandu Refuge enters the battlefield tapped.<br>When Kazandu Refuge enters the battlefield, you gain 1 life.<br>{T}: Add {R} or {G} to your mana pool.
p556
aVKaervek's Hex deals 1 damage to each nonblack creature and an additional 1 damage to each green creature.
p557
aVProtection from blue
p558
aVAs long as Kaervek's Torch is on the stack, spells that target it cost {2} more to cast.<br>Kaervek's Torch deals X damage to target creature or player.
p559
aVFlying<br><br>{T}: Leering Gargoyle gets -2/+2 and loses flying until end of turn.
p560
aVEach noncreature artifact you control is an artifact creature with power and toughness each equal to its converted mana cost.
p561
aVAt the beginning of your upkeep, exchange control of a permanent you control chosen at random and a permanent target opponent controls chosen at random.
p562
aVWhenever a player taps a land for mana, Manabarbs deals 1 damage to that player.
p563
aVYou may cast Necromancy as though it had flash. If you cast it any time a sorcery couldn't have been cast, the controller of the permanent it becomes sacrifices it at the beginning of the next cleanup step.<br>When Necromancy enters the battlefield, if it's on the battlefield, it becomes an Aura with "enchant creature put onto the battlefield with Necromancy." Put target creature card from a graveyard onto the battlefield under your control and attach Necromancy to it. When Necromancy leaves the battlefield, that creature's controller sacrifices it.
p564
aVFlying<br>{G}: Kyscu Drake gets +0/+1 until end of turn. Activate this ability only once each turn.<br>Sacrifice Kyscu Drake and a creature named Spitting Drake: Search your library for a card named Viashivan Dragon and put that card onto the battlefield. Then shuffle your library.
p565
aV{T}: Add one mana of any color to your mana pool. During your next untap step, as you untap your permanents, return Undiscovered Paradise to its owner's hand.
p566
aV{T}: Add {U} to your mana pool.
p567
aVCreatures you control get +1/+1 as long as you control no nonartifact, nonwhite creatures.
p568
aVHaste <i>(This creature can attack and {T} as soon as it comes under your control.)</i><br>{T}: Kamahl, Pit Fighter deals 3 damage to target creature or player.
p569
aVTrample<br>Whenever an opponent gains life, put that many +1/+1 counters on Kavu Predator.
p570
aVKazandu Refuge enters the battlefield tapped.<br>When Kazandu Refuge enters the battlefield, you gain 1 life.<br>{T}: Add {R} or {G} to your mana pool.
p571
aV{T}: Target land becomes a Forest until end of turn.
p572
asS'costs'
p573
(lp574
V{1}{W}
p575
aV{1}{W}{B}{R}
p576
aS'0'
p577
aV{2}{W}{W}
p578
aV{3}{B}{B}
p579
aV{2}{U}{U}
p580
aV{1}{W}
p581
aV{1}{G}{G}
p582
aV{3}{G}
p583
aV{3}{B}
p584
aV{U}{U}
p585
aV{3}{B}
p586
aV{2}{W}{W}
p587
aV{1}{G}
p588
aV{1}{W}{B}{R}
p589
ag577
aV{3}{G}{G}
p590
aV{3}{W}
p591
aV{3}{G}{W}
p592
aV{1}{G}
p593
aV{4}{R}{R}
p594
aV{3}{W}
p595
aV{3}{G}
p596
aV{4}{R}{R}
p597
aV{3}{G}{G}
p598
ag577
aV{3}{G}
p599
aV{U}{U}
p600
aV{3}{W}{W}{W}
p601
aV{3}{G}{G}
p602
aV{X}{R}
p603
aV{1}{W}
p604
aV{2}{R}
p605
aV{4}{G}{G}
p606
aV{4}{G}{G}
p607
ag577
aV{2}{W}{W}
p608
aV{6}{R}
p609
aV{3}{G}{G}
p610
aV{3}{R}{R}
p611
aV{3}{W}
p612
ag577
aV{3}{G}{G}
p613
aV{2}
p614
aV{2}{U}{B}
p615
ag577
aV{3}{G}
p616
aV{4}{R}
p617
aV{4}{G}{G}
p618
aV{1}{U}{U}
p619
aV{2}{B}
p620
aV{3}{G}{G}
p621
aV{1}{W}
p622
aV{5}{W}
p623
aV{3}{G}
p624
aV{4}{W}
p625
aV{4}{B}{B}
p626
aV{2}{W}
p627
aV{3}{R}
p628
aV{2}{G}
p629
aV{3}{W}
p630
aV{W}
p631
aV{1}{U}
p632
aV{4}{W}
p633
aV{5}{W}{W}
p634
aV{1}{W}
p635
aV{3}{W}{W}
p636
ag577
aV{1}{G}
p637
aV{1}{R}
p638
aV{2}{W}
p639
aV{4}{R}{R}
p640
aV{5}{B}{R}
p641
aV{R}
p642
aV{2}{R}{R}
p643
aV{3}{G}
p644
aV{5}
p645
aV{2}{W}{W}
p646
aV{6}{R}
p647
ag577
aV{3}{R}{R}
p648
aV{5}{R}{R}
p649
ag577
aV{1}{W}
p650
aV{2}{W}
p651
aV{5}{B}{B}
p652
ag577
aV{W}{W}
p653
ag577
ag577
aV{2}{U}
p654
ag577
aV{3}{U}{U}
p655
aV{3}{U}
p656
aV{3}{W}{W}
p657
aV{2}{G}{G}
p658
aV{2}{U}
p659
aV{3}{W}
p660
aV{R}{R}
p661
ag577
aV{1}{W}{U}{B}{R}{G}
p662
aV{4}{W}
p663
aV{3}{G}
p664
aV{5}
p665
aV{3}{R}
p666
aV{2}{W}{W}
p667
aV{1}{U}
p668
aV{B}{B}
p669
aV{2}{R}
p670
aV{3}{R}
p671
aV{2}{R}{R}
p672
aV{1}{G}
p673
aV{3}{G}{G}
p674
aV{2}{G}
p675
aV{2}{W}{U}
p676
aV{2}{R}
p677
aV{3}{G}{G}
p678
aV{4}{B}{R}{G}
p679
aV{1}{B}{R}
p680
aV{2}{U}{B}
p681
aV{2}{W}{W}
p682
ag577
aV{5}{B}{R}
p683
aV{4}{G}{G}
p684
ag577
aV{3}{B}
p685
aV{1}{G}
p686
aV{X}{R}
p687
aV{X}{B}{R}
p688
ag577
ag577
aV{2}{W}{W}
p689
aV{B}{B}{B}
p690
aV{2}{G}
p691
ag577
aV{4}{W}{U}
p692
ag577
aV{4}{R}{R}
p693
aV{1}{G}
p694
ag577
aV{2}{R}
p695
asS'names'
p696
(lp697
VKaalia of the Vast
p698
aVKarador, Ghost Chieftain
p699
aVKazandu Refuge
p700
aVKarma
p701
aVKagemaro, First to Suffer
p702
aVKaho, Minamo Historian
p703
aVKataki, War's Wage
p704
aVKashi-Tribe Elite
p705
aVKami of the Tended Garden
p706
aVKagemaro's Clutch
p707
aVKami of the Crescent Moon
p708
aVKami of Empty Graves
p709
aVKarma
p710
aVKavu Predator
p711
aVKaalia of the Vast
p712
aVKazandu Refuge
p713
aVKaysa
p714
aVKabira Vindicator
p715
aVKarametra, God of Harvests
p716
aVKarametra's Favor
p717
aVKalonian Behemoth
p718
aVKalonian Hydra
p719
aVKalonian Tusker
p720
aVKamahl, Pit Fighter
p721
aVKavu Climber
p722
aVKarplusan Forest
p723
aVKarplusan Strider
p724
aVKarn's Touch
p725
aVKaervek's Torch
p726
aVKarmic Guide
p727
aVKarn, Silver Golem
p728
aVKataki, War's Wage
p729
aVKavu Glider
p730
aVKavu Mauler
p731
aVKavu Howler
p732
aVKarakas
p733
aVKarma
p734
aVKarplusan Giant
p735
aVKaysa
p736
aVKarplusan Yeti
p737
aVKami of Old Stone
p738
aVKarplusan Forest
p739
aVKavu Climber
p740
aVKaleidostone
p741
aVKathari Remnant
p742
aVKazandu Refuge
p743
aVKamahl's Summons
p744
aVKaboom!
p745
aVKamahl, Fist of Krosa
p746
aVKami of Twisted Reflection
p747
aVKami of the Waning Moon
p748
aVKashi-Tribe Warriors
p749
aVKami of Ancient Law
p750
aVKami of the Palace Fields
p751
aVKashi-Tribe Reaver
p752
aVKami of the Painted Road
p753
aVKami of Lunacy
p754
aVKabuto Moth
p755
aVKami of Fire's Roar
p756
aVKami of the Hunt
p757
aVKami of Old Stone
p758
aVKami of False Hope
p759
aVKaijin of the Vanishing Touch
p760
aVKami of Tattered Shoji
p761
aVKami of the Honored Dead
p762
aVKataki, War's Wage
p763
aVKarmic Guide
p764
aVKazandu Refuge
p765
aVKazandu Tuskcaller
p766
aVKamahl's Desire
p767
aVKarmic Justice
p768
aVKamahl, Pit Fighter
p769
aVKaervek the Merciless
p770
aVKarplusan Wolverine
p771
aVKarplusan Minotaur
p772
aVKarplusan Strider
p773
aVKarn, Silver Golem
p774
aVKarma
p775
aVKarplusan Giant
p776
aVKarplusan Forest
p777
aVKarplusan Yeti
p778
aVKamahl's Sledge
p779
aVKabira Crossroads
p780
aVKabira Evangel
p781
aVKalitas, Bloodchief of Ghet
p782
aVKazandu Blademaster
p783
aVKazandu Refuge
p784
aVKazuul Warlord
p785
aVKarplusan Forest
p786
aVKabira Crossroads
p787
aVKathari Screecher
p788
aVKarplusan Forest
p789
aVKalonian Twingrove
p790
aVKapsho Kitefins
p791
aVKarmic Guide
p792
aVKarstoderm
p793
aVKabira Vindicator
p794
aVKargan Dragonlord
p795
aVKazandu Tuskcaller
p796
aVKarn Liberated
p797
aVKarona, False God
p798
aVKarona's Zealot
p799
aVKavu Primarch
p800
aVKarn, Silver Golem
p801
aVKarametra's Acolyte
p802
aVKarma
p803
aVKalastria Highborn
p804
aVKazuul, Tyrant of the Cliffs
p805
aVKavu Aggressor
p806
aVKavu Runner
p807
aVKavu Monarch
p808
aVKavu Titan
p809
aVKavu Chameleon
p810
aVKavu Lair
p811
aVKangee, Aerie Keeper
p812
aVKavu Scout
p813
aVKavu Climber
p814
aVKarrthus, Tyrant of Jund
p815
aVKathari Bomber
p816
aVKathari Remnant
p817
aVKarma
p818
aVKarplusan Forest
p819
aVKaervek the Merciless
p820
aVKamahl, Fist of Krosa
p821
aVKazandu Refuge
p822
aVKaervek's Hex
p823
aVKaroo Meerkat
p824
aVKaervek's Torch
p825
aVKaervek's Purge
p826
aVKarn
p827
aVKarona, False God Avatar
p828
aVKarma
p829
aVKaervek's Spite
p830
aVKatabatic Winds
p831
aVKaroo
p832
aVKasimir the Lone Wolf
p833
aVKarakas
p834
aVKamahl, Pit Fighter
p835
aVKavu Predator
p836
aVKazandu Refuge
p837
aVKavu Recluse
p838
asS'toughs'
p839
(lp840
V4
p841
aV2
p842
aS'N/A'
p843
ag843
aV*
p844
ag842
aV1
p845
aV3
p846
ag841
ag843
ag846
aV5
p847
ag843
ag842
ag842
ag843
ag845
ag841
ag843
ag843
ag842
ag847
aV7
p848
ag845
ag846
ag843
ag846
ag843
ag843
ag845
ag843
aV0
p849
ag842
ag842
aV6
p850
ag843
ag843
ag846
ag846
ag846
ag844
ag843
ag850
ag843
ag841
ag843
ag843
ag843
ag842
ag842
ag845
ag841
ag842
ag842
ag842
ag846
ag845
ag842
ag846
ag842
ag848
ag845
ag846
ag847
ag847
ag841
ag845
ag843
ag846
ag843
ag843
ag846
ag849
ag843
ag842
ag842
ag843
ag843
ag848
ag843
ag846
ag843
ag843
ag848
ag841
ag846
ag843
ag847
ag843
ag843
ag842
ag843
ag841
ag846
ag845
ag849
ag845
ag846
ag841
ag843
ag847
ag847
ag846
ag843
ag842
ag843
ag845
ag849
ag842
ag846
ag846
ag842
ag841
ag843
ag842
ag841
ag842
ag847
ag845
ag846
ag843
ag843
ag842
ag850
ag843
ag843
ag842
ag843
ag843
ag843
ag843
ag843
ag843
ag843
ag843
ag841
ag843
ag845
ag842
ag843
ag842
asS'artists'
p851
(lp852
VMichael Komarck
p853
aVTodd Lockwood
p854
aVFranz Vohwinkel
p855
aVRichard Thomas
p856
aVAdam Rex
p857
aVGreg Staples
p858
aVMatt Thompson
p859
aVBen Thompson
p860
aVThomas M. Baxa
p861
aVPat Lee
p862
aVDarrell Riche
p863
aVGreg Hildebrandt
p864
aVRichard Thomas
p865
aVDan Scott
p866
aVMichael Komarck
p867
aVFranz Vohwinkel
p868
aVRebecca Guay
p869
aVSteven Belledin
p870
aVEric Deschamps
p871
aVChase Stone
p872
aVDaarken
p873
aVChris Rahn
p874
aVSvetlin Velinov
p875
aVKev Walker
p876
aVRob Alexander
p877
aVJohn Avon
p878
aVDan Scott
p879
aVAlan Pollack
p880
aVJohn Coulthart
p881
aVAllen Williams
p882
aVMark Zug
p883
aS''
p884
aVHeather Hudson
p885
aVDaren Bader
p886
aVWayne England
p887
aVScott Kirschner
p888
aVRichard Thomas
p889
aVDaniel Gelon
p890
aVRebecca Guay
p891
aVWayne England
p892
aVStephen Tappin
p893
aVJohn Avon
p894
aVRob Alexander
p895
aVChippy
p896
ag884
ag884
aVAnthony S. Waters
p897
aVGlen Angus
p898
aVMatthew D. Wilson
p899
aVMark Tedin
p900
aVMatt Thompson
p901
aVStephen Tappin
p902
aVMark Tedin
p903
aVMatt Cavotta
p904
aVAnthony S. Waters
p905
aVRon Spencer
p906
aVDaren Bader
p907
aVTomas Giorello
p908
aVDave Dorman
p909
aVAlex Horley-Orlandelli
p910
aVStephen Tappin
p911
aVDaren Bader
p912
aVRandy Gallegos
p913
aVShishizaru
p914
aVMark Zug
p915
aVMatt Thompson
p916
aVAllen Williams
p917
aVFranz Vohwinkel
p918
aVMike Bierek
p919
aVDave Dorman
p920
aVRay Lago
p921
aVKev Walker
p922
aVrk post
p923
aVGreg Hildebrandt
p924
aVWayne England
p925
aVDan Scott
p926
aVMark Zug
p927
aVRichard Thomas
p928
aVDaniel Gelon
p929
aVNicola Leonard
p930
aVQuinton Hoover
p931
aVDon Hazeltine
p932
aVJames Paick
p933
aVEric Deschamps
p934
aVTodd Lockwood
p935
aVMichael Komarck
p936
aVFranz Vohwinkel
p937
aVKev Walker
p938
aVRandy Gallegos
p939
aVJames Paick
p940
aVPete Venters
p941
aVScott Bailey
p942
aVTodd Lockwood
p943
aVRyan Yee
p944
aVHeather Hudson
p945
aVTony Szczudlo
p946
aVSteven Belledin
p947
aVJason Chan
p948
aVMike Bierek
p949
ag884
aVMatthew D. Wilson
p950
aVAlan Pollack
p951
aVKev Walker
p952
aVMark Zug
p953
aVChase Stone
p954
aVBob Eggleton
p955
aVD. Alexander Gregory
p956
aVPaul Bonner
p957
aVChristopher Moeller
p958
aVDouglas Shuler
p959
aVTerese Nielsen
p960
aVTodd Lockwood
p961
aVJohn Howe
p962
aVChippy
p963
aVMark Romanoski
p964
aVDiTerlizzi
p965
aVRob Alexander
p966
aVDave Kendall
p967
aVCarl Critchlow
p968
aVAnthony S. Waters
p969
aVBob Eggleton
p970
aVRandy Gallegos
p971
aVrk post
p972
aVMatthew D. Wilson
p973
aVFranz Vohwinkel
p974
aVIan Miller
p975
aVJanine Johnston
p976
aVJohn Coulthart
p977
aVRichard Kane Ferguson
p978
aVAnthony S. Waters
p979
aVUDON
p980
aVRichard Thomas
p981
aVBryan Talbot
p982
aVGary Gianni
p983
aVZina Saunders
p984
aVRichard Kane Ferguson
p985
aVNicola Leonard
p986
aVKev Walker
p987
aVDan Scott
p988
aVFranz Vohwinkel
p989
aVAaron Boyd
p990
asS'powers'
p991
(lp992
g842
ag846
ag843
ag843
ag844
ag842
ag842
ag842
ag841
ag843
ag845
ag847
ag843
ag842
ag842
ag843
ag841
ag842
ag843
ag843
ag842
ag841
ag849
ag850
ag846
ag843
ag842
ag843
ag843
ag841
ag843
ag849
ag842
ag842
ag850
ag843
ag843
ag846
ag842
ag846
ag844
ag843
ag850
ag843
ag841
ag843
ag843
ag843
ag842
ag842
ag845
ag842
ag842
ag846
ag846
ag846
ag841
ag845
ag842
ag842
ag845
ag845
ag849
ag842
ag846
ag842
ag842
ag843
ag845
ag843
ag843
ag846
ag849
ag843
ag842
ag842
ag843
ag843
ag848
ag843
ag842
ag843
ag843
ag845
ag842
ag847
ag843
ag845
ag843
ag843
ag842
ag843
ag842
ag845
ag845
ag849
ag842
ag842
ag842
ag843
ag847
ag842
ag845
ag843
ag842
ag843
ag849
ag842
ag846
ag846
ag846
ag842
ag841
ag843
ag842
ag841
ag845
ag847
ag842
ag841
ag843
ag843
ag846
ag850
ag843
ag843
ag846
ag843
ag843
ag843
ag843
ag843
ag843
ag843
ag843
ag847
ag843
ag850
ag842
ag843
ag841
asS'types'
p993
(lp994
VLegendary Creature - Human Cleric
p995
aVLegendary Creature - Centaur Spirit
p996
aVLand
p997
aVEnchantment
p998
aVLegendary Creature - Demon Spirit
p999
aVLegendary Creature - Human Wizard
p1000
aVLegendary Creature - Spirit
p1001
aVCreature - Snake Warrior
p1002
aVCreature - Spirit
p1003
aVEnchantment - Aura
p1004
aVLegendary Creature - Spirit
p1005
aVCreature - Spirit
p1006
aVEnchantment
p1007
aVCreature - Kavu
p1008
aVLegendary Creature - Human Cleric
p1009
aVLand
p1010
aVLegendary Creature - Elf Druid
p1011
aVCreature - Human Knight
p1012
aVLegendary Enchantment Creature - God
p1013
aVEnchantment - Aura
p1014
aVCreature - Beast
p1015
aVCreature - Hydra
p1016
aVCreature - Beast
p1017
aVLegendary Creature - Human Barbarian
p1018
aVCreature - Kavu
p1019
aVLand
p1020
aVCreature - Yeti
p1021
aVInstant
p1022
aVSorcery
p1023
aVCreature - Angel Spirit
p1024
aVLegendary Artifact Creature - Golem
p1025
aVLegendary Creature - Spirit
p1026
aVCreature - Kavu
p1027
aVCreature - Kavu
p1028
aVCreature - Kavu
p1029
aVLegendary Land
p1030
aVEnchantment
p1031
aVCreature - Giant
p1032
aVLegendary Creature - Elf Druid
p1033
aVCreature - Yeti
p1034
aVCreature - Spirit
p1035
aVLand
p1036
aVCreature - Kavu
p1037
aVArtifact
p1038
aVCreature - Bird Skeleton
p1039
aVLand
p1040
aVSorcery
p1041
aVSorcery
p1042
aVLegendary Creature - Human Druid
p1043
aVCreature - Spirit
p1044
aVCreature - Spirit
p1045
aVCreature - Snake Warrior
p1046
aVCreature - Spirit
p1047
aVCreature - Spirit
p1048
aVCreature - Snake Warrior
p1049
aVCreature - Spirit
p1050
aVCreature - Spirit
p1051
aVCreature - Spirit
p1052
aVCreature - Spirit
p1053
aVCreature - Spirit
p1054
aVCreature - Spirit
p1055
aVCreature - Spirit
p1056
aVCreature - Spirit
p1057
aVCreature - Spirit
p1058
aVCreature - Spirit
p1059
aVLegendary Creature - Spirit
p1060
aVCreature - Angel Spirit
p1061
aVLand
p1062
aVCreature - Human Shaman
p1063
aVEnchantment - Aura
p1064
aVEnchantment
p1065
aVLegendary Creature - Human Barbarian
p1066
aVLegendary Creature - Human Shaman
p1067
aVSnow Creature - Wolverine Beast
p1068
aVCreature - Minotaur Warrior
p1069
aVCreature - Yeti
p1070
aVLegendary Artifact Creature - Golem
p1071
aVEnchantment
p1072
aVCreature - Giant
p1073
aVLand
p1074
aVCreature - Yeti
p1075
aVSorcery
p1076
aVLand
p1077
aVCreature - Human Cleric Ally
p1078
aVLegendary Creature - Vampire Warrior
p1079
aVCreature - Human Soldier Ally
p1080
aVLand
p1081
aVCreature - Minotaur Warrior Ally
p1082
aVLand
p1083
aVLand
p1084
aVCreature - Bird Soldier
p1085
aVLand
p1086
aVCreature - Treefolk Warrior
p1087
aVCreature - Fish
p1088
aVCreature - Angel Spirit
p1089
aVCreature - Beast
p1090
aVCreature - Human Knight
p1091
aVCreature - Human Warrior
p1092
aVCreature - Human Shaman
p1093
aVPlaneswalker - Karn
p1094
aVLegendary Creature - Avatar
p1095
aVCreature - Human Cleric
p1096
aVCreature - Kavu
p1097
aVLegendary Artifact Creature - Golem
p1098
aVCreature - Human Druid
p1099
aVEnchantment
p1100
aVCreature - Vampire Shaman
p1101
aVLegendary Creature - Ogre Warrior
p1102
aVCreature - Kavu
p1103
aVCreature - Kavu
p1104
aVCreature - Kavu
p1105
aVCreature - Kavu
p1106
aVCreature - Kavu
p1107
aVEnchantment
p1108
aVLegendary Creature - Bird Wizard
p1109
aVCreature - Kavu Scout
p1110
aVCreature - Kavu
p1111
aVLegendary Creature - Dragon
p1112
aVCreature - Bird Shaman
p1113
aVCreature - Bird Skeleton
p1114
aVEnchantment
p1115
aVLand
p1116
aVLegendary Creature - Human Shaman
p1117
aVLegendary Creature - Human Druid
p1118
aVLand
p1119
aVSorcery
p1120
aVCreature - Mongoose
p1121
aVSorcery
p1122
aVSorcery
p1123
aVVanguard
p1124
aVVanguard
p1125
aVEnchantment
p1126
aVInstant
p1127
aVEnchantment
p1128
aVLand
p1129
aVLegendary Creature - Human Warrior
p1130
aVLegendary Land
p1131
aVLegendary Creature - Human Barbarian
p1132
aVCreature - Kavu
p1133
aVLand
p1134
aVCreature - Kavu
p1135
asS'numbers'
p1136
(lp1137
V206
p1138
aV207
p1139
aV280
p1140
aV147
p1141
aV73
p1142
aV41
p1143
aV14
p1144
aV135
p1145
aV134
p1146
aV74
p1147
aV42
p1148
aV75
p1149
aV247
p1150
aV132
p1151
aV9
p1152
aV35
p1153
aV63
p1154
aV16
p1155
aV148
p1156
aV125
p1157
aV188
p1158
aV181
p1159
aV182
p1160
aV214
p1161
aV273
p1162
aV354
p1163
aV272
p1164
aV86
p1165
aV175
p1166
aV32
p1167
aV270
p1168
ag884
aV64
p1169
aV80
p1170
aV79
p1171
aV208
p1172
aV170
p1173
aV133
p1174
aV170
p1175
aV198
p1176
aV24
p1177
aV321
p1178
aV249
p1179
aV137
p1180
aV106
p1181
aV107
p1182
aV269
p1183
aV214
p1184
aV268
p1185
aV71
p1186
aV120
p1187
aV221
p1188
aV21
p1189
aV24
p1190
aV220
p1191
aV23
p1192
aV119
p1193
aV20
p1194
aV174
p1195
aV219
p1196
aV22
p1197
aV10
p1198
aV39
p1199
aV11
p1200
aV12
p1201
aV24
p1202
aV14
p1203
aV301
p1204
aV152
p1205
aV199
p1206
aV26
p1207
aV198
p1208
aV242
p1209
aV87
p1210
aV86
p1211
aV112
p1212
ag850
aV148
p1213
aV161
p1214
aV234
p1215
aV306
p1216
aV102
p1217
aV216
p1218
aV15
p1219
aV99
p1220
aV16
p1221
aV217
p1222
aV134
p1223
aV326
p1224
aV33
p1225
aV47
p1226
aV336
p1227
aV182
p1228
aV66
p1229
aV11
p1230
aV77
p1231
aV28
p1232
aV152
p1233
aV191
p1234
ag845
aV138
p1235
aV18
p1236
aV128
p1237
aV298
p1238
aV160
p1239
aV28
p1240
aV59
p1241
aV84
p1242
aV148
p1243
aV150
p1244
aV149
p1245
aV194
p1246
aV191
p1247
aV193
p1248
aV253
p1249
aV151
p1250
aV192
p1251
aV117
p1252
aV41
p1253
aV23
p1254
aV315
p1255
aV316
p1256
aV88
p1257
aV61
p1258
aV126
p1259
aV37
p1260
aV109
p1261
aV152
p1262
aV217
p1263
aV46
p1264
aV34
p1265
aV190
p1266
aV24
p1267
aV55
p1268
aV115
p1269
aV141
p1270
aV175
p1271
aV16
p1272
aV46
p1273
aV71
p1274
aV64
p1275
as.