(dp0
S'rares'
p1
(lp2
VUncommon
p3
aVCommon
p4
aVRare
p5
aVUncommon
p6
aVCommon
p7
aVCommon
p8
aVUncommon
p9
aVCommon
p10
aVCommon
p11
aVRare
p12
aVRare
p13
aVCommon
p14
aVUncommon
p15
aVUncommon
p16
aVUncommon
p17
aVMythic Rare
p18
aVUncommon
p19
aVRare
p20
aVRare
p21
aVMythic Rare
p22
aVUncommon
p23
aVCommon
p24
aVCommon
p25
aVCommon
p26
aVCommon
p27
aVMythic Rare
p28
aVRare
p29
aVCommon
p30
aVUncommon
p31
aVMythic Rare
p32
aVUncommon
p33
aVCommon
p34
aVRare
p35
aVUncommon
p36
aVUncommon
p37
aVCommon
p38
aVCommon
p39
aVRare
p40
aVCommon
p41
aVRare
p42
aVCommon
p43
aVCommon
p44
aVCommon
p45
aVCommon
p46
aVRare
p47
aVRare
p48
aVRare
p49
aVUncommon
p50
aVCommon
p51
aVRare
p52
aVCommon
p53
aVRare
p54
aVUncommon
p55
aVCommon
p56
aVUncommon
p57
aVUncommon
p58
aVUncommon
p59
aVCommon
p60
aVUncommon
p61
aVUncommon
p62
aVCommon
p63
aVUncommon
p64
aVCommon
p65
aVCommon
p66
aVUncommon
p67
aVUncommon
p68
aVUncommon
p69
aVRare
p70
aVCommon
p71
aVRare
p72
aVCommon
p73
aVCommon
p74
aVRare
p75
aVUncommon
p76
aVUncommon
p77
aVUncommon
p78
aVRare
p79
aVCommon
p80
aVUncommon
p81
aVCommon
p82
aVCommon
p83
aVCommon
p84
aVUncommon
p85
aVCommon
p86
aVRare
p87
aVRare
p88
aVUncommon
p89
aVUncommon
p90
aVCommon
p91
aVCommon
p92
aVUncommon
p93
aVCommon
p94
aVUncommon
p95
aVCommon
p96
aVCommon
p97
aVCommon
p98
aVCommon
p99
aVRare
p100
aVCommon
p101
aVRare
p102
asS'editns'
p103
(lp104
VMagic 2012
p105
aVSaviors of Kamigawa
p106
aVSaviors of Kamigawa
p107
aVSaviors of Kamigawa
p108
aVSaviors of Kamigawa
p109
aVSaviors of Kamigawa
p110
aVSaviors of Kamigawa
p111
aVMorningtide
p112
aVMorningtide
p113
aVMorningtide
p114
aVMorningtide
p115
aVMagic 2013
p116
aVMagic 2013
p117
aVFourth Edition
p118
aVFourth Edition
p119
aVFrom the Vault: Legends
p120
aVDuel Decks: Ajani vs. Nicol Bolas
p121
aVDuel Decks: Knights vs. Dragons
p122
aVDuel Decks: Knights vs. Dragons
p123
aVBorn of the Gods
p124
aVBorn of the Gods
p125
aVMagic 2010
p126
aVTempest
p127
aVVintage Masters
p128
aVVintage Masters
p129
aVModern Masters
p130
aVModern Masters
p131
aVModern Masters
p132
aVModern Masters
p133
aVFrom the Vault: Exiled
p134
aVMasters Edition III
p135
aVRevised Edition
p136
aVGuildpact
p137
aVNinth Edition
p138
aVNinth Edition
p139
aVEventide
p140
aVEventide
p141
aVAvacyn Restored
p142
aVPlanechase 2012 Edition
p143
aVChampions of Kamigawa
p144
aVChampions of Kamigawa
p145
aVChampions of Kamigawa
p146
aVChampions of Kamigawa
p147
aVChampions of Kamigawa
p148
aVChampions of Kamigawa
p149
aVChampions of Kamigawa
p150
aVBetrayers of Kamigawa
p151
aVBetrayers of Kamigawa
p152
aVUrza's Destiny
p153
aVCommander 2013 Edition
p154
aVOdyssey
p155
aVOdyssey
p156
aVGatecrash
p157
aVGatecrash
p158
aVExodus
p159
aVClassic Sixth Edition
p160
aVShards of Alara
p161
aVMagic 2015 Core Set
p162
aVMagic 2015 Core Set
p163
aVUrza's Legacy
p164
aVRise of the Eldrazi
p165
aVShadowmoor
p166
aVShadowmoor
p167
aVShadowmoor
p168
aVShadowmoor
p169
aVNew Phyrexia
p170
aVPortal Second Age
p171
aVLegions
p172
aVWeatherlight
p173
aVNemesis
p174
aVWorldwake
p175
aVWorldwake
p176
aVJourney into Nyx
p177
aVJourney into Nyx
p178
aVFifth Edition
p179
aVFifth Edition
p180
aVArchenemy
p181
aVKhans of Tarkir
p182
aVKhans of Tarkir
p183
aVKhans of Tarkir
p184
aVInnistrad
p185
aVVisions
p186
aVBeatdown Box Set
p187
aVBeatdown Box Set
p188
aVMasters Edition IV
p189
aVLegends
p190
aVLegends
p191
aVDissension
p192
aVDissension
p193
aVDuel Decks: Izzet vs. Golgari
p194
aVLorwyn
p195
aVLorwyn
p196
aVLorwyn
p197
aVLorwyn
p198
aVLorwyn
p199
aVLorwyn
p200
aVLorwyn
p201
aVArabian Nights
p202
aVArabian Nights
p203
aVPortal
p204
asS'ids'
p205
(lp206
V244250
p207
aV74046
p208
aV74054
p209
aV74157
p210
aV74213
p211
aV80530
p212
aV84704
p213
aV152563
p214
aV152858
p215
aV152977
p216
aV153279
p217
aV280221
p218
aV278075
p219
aV2348
p220
aV2221
p221
aV244666
p222
aV249382
p223
aV243477
p224
aV243434
p225
aV378521
p226
aV378522
p227
aV193741
p228
aV4826
p229
aV382988
p230
aV382989
p231
aV370534
p232
aV370349
p233
aV370422
p234
aV370458
p235
aV194974
p236
aV201201
p237
aV1302
p238
aV97207
p239
aV83440
p240
aV83346
p241
aV152096
p242
aV154346
p243
aV240180
p244
aV226523
p245
aV50321
p246
aV50412
p247
aV50437
p248
aV50441
p249
aV76652
p250
aV78695
p251
aV78962
p252
aV74445
p253
aV74603
p254
aV15147
p255
aV376392
p256
aV29707
p257
aV29921
p258
aV366466
p259
aV366361
p260
aV6065
p261
aV14483
p262
aV174976
p263
aV383292
p264
aV383293
p265
aV12382
p266
aV194912
p267
aV141976
p268
aV157876
p269
aV158238
p270
aV158695
p271
aV214380
p272
aV6572
p273
aV39653
p274
aV4581
p275
aV22318
p276
aV197152
p277
aV194018
p278
aV380443
p279
aV380444
p280
aV3990
p281
aV4140
p282
aV220465
p283
aV386582
p284
aV386583
p285
aV386584
p286
aV227088
p287
aV3667
p288
aV26638
p289
aV26605
p290
aV202434
p291
aV1532
p292
aV1623
p293
aV107446
p294
aV107493
p295
aV292742
p296
aV139399
p297
aV139403
p298
aV139497
p299
aV139498
p300
aV143018
p301
aV145986
p302
aV146444
p303
aV974
p304
aV962
p305
aV4227
p306
asS'texts'
p307
(lp308
V{T}: Add {G} to your mana pool.
p309
aV{T}: Prevent the next 3 damage that would be dealt to target creature this turn. Activate this ability only if you have more cards in hand than each opponent.
p310
aVKiyomaro, First to Stand's power and toughness are each equal to the number of cards in your hand.<br>As long as you have four or more cards in hand, Kiyomaro has vigilance.<br>Whenever Kiyomaro deals damage, if you have seven or more cards in hand, you gain 7 life.
p311
aVTarget creature deals damage to itself equal to its power.
p312
aV{1}{W}: Kitsune Loreweaver gets +0/+X until end of turn, where X is the number of cards in your hand.
p313
aVBushido 1 <i>(When this blocks or becomes blocked, it gets +1/+1 until end of turn.)</i><br>When Kitsune Dawnblade enters the battlefield, you may tap target creature.
p314
aVWhen Kiri-Onna enters the battlefield, return target creature to its owner's hand.<br>Whenever you cast a Spirit or Arcane spell, you may return Kiri-Onna to its owner's hand.
p315
aVTarget creature gets +1/+0 and gains first strike until end of turn. <i>(It deals combat damage before creatures without first strike.)</i>
p316
aVKinship- At the beginning of your upkeep, you may look at the top card of your library. If it shares a creature type with Kithkin Zephyrnaut, you may reveal it. If you do, Kithkin Zephyrnaut gets +2/+2 and gains flying and vigilance until end of turn.
p317
aVAt the beginning of your upkeep, reveal the top card of your library. If it's a land card, put it into your graveyard and repeat this process.<br>Whenever a land card is put into your graveyard from anywhere, put a +1/+1 counter on Countryside Crusher.
p318
aVChangeling <i>(This card is every creature type at all times.)</i><br>Protection from black<br>{2}{G}{G}: Chameleon Colossus gets +X/+X until end of turn, where X is its power.
p319
aVCopy target instant or sorcery spell. You may choose new targets for the copy.
p320
aV{T}, Sacrifice Tormod's Crypt: Exile all cards from target player's graveyard.
p321
aVAttacking creatures get +1/+1 until end of turn.
p322
aV{T}: Add {G} to your mana pool.
p323
aVHaste<br>{T}: Put a token that's a copy of target nonlegendary creature you control onto the battlefield. That token has haste. Sacrifice it at the beginning of the next end step.
p324
aVKird Ape gets +1/+2 as long as you control a Forest.
p325
aVAmplify 3 <i>(As this creature enters the battlefield, put three +1/+1 counters on it for each Dragon card you reveal in your hand.)</i><br>Flying<br>{T}: Kilnmouth Dragon deals damage equal to the number of +1/+1 counters on it to target creature or player.
p326
aVKnight creatures you control have double strike.
p327
aVInspired- Whenever Kragma Butcher becomes untapped, it gets +2/+0 until end of turn.
p328
aVCreatures with power less than the number of Islands you control can't block Kraken of the Straits.
p329
aV+1: Target player discards a card.<br>-2: Search your library for a card, then shuffle your library and put that card on top of it.<br>-8: Put all creature cards from all graveyards onto the battlefield under your control.
p330
aVMagmasaur enters the battlefield with five +1/+1 counters on it.<br>At the beginning of your upkeep, you may remove a +1/+1 counter from Magmasaur. If you don't, sacrifice Magmasaur and it deals damage equal to the number of +1/+1 counters on it to each creature without flying and each player.
p331
aVIf Kjeldoran Outpost would enter the battlefield, sacrifice a Plains instead. If you do, put Kjeldoran Outpost onto the battlefield. If you don't, put it into its owner's graveyard.<br>{T}: Add {W} to your mana pool.<br>{1}{W}, {T}: Put a 1/1 white Soldier creature token onto the battlefield.
p332
aVOther creatures you control get +1/+1.
p333
aVHaste<br>{T}: Put a token that's a copy of target nonlegendary creature you control onto the battlefield. That token has haste. Sacrifice it at the beginning of the next end step.
p334
aVFlying<br>Creatures you control have "Whenever this creature becomes the target of a spell or ability for the first time in a turn, counter that spell or ability."
p335
aVAs long as you control a Giant, Kithkin Greatheart gets +1/+1 and has first strike.
p336
aVWhen Kitchen Finks enters the battlefield, you gain 2 life.<br>Persist <i>(When this creature dies, if it had no -1/-1 counters on it, return it to the battlefield under its owner's control with a -1/-1 counter on it.)</i>
p337
aVKird Ape gets +1/+2 as long as you control a Forest.
p338
aVOther Kobold creatures you control get +1/+0.
p339
aVEnchant creature<br>{W}: Enchanted creature gets +1/+1 until end of turn.
p340
aVWhenever you cast a blue spell, target creature gains flying until end of turn.<br>Whenever you cast a red spell, Tibor and Lumia deals 1 damage to each creature without flying.
p341
aVWhenever a player casts a black spell, you may gain 1 life.
p342
aVMortivore's power and toughness are each equal to the number of creature cards in all graveyards.<br>{B}: Regenerate Mortivore.
p343
aVFlying<br>{1}{W}, Sacrifice Kithkin Spellduster: Destroy target enchantment.<br>Persist <i>(When this creature dies, if it had no -1/-1 counters on it, return it to the battlefield under its owner's control with a -1/-1 counter on it.)</i>
p344
aVWhen Kithkin Zealot enters the battlefield, you gain 1 life for each black and/or red permanent target opponent controls.
p345
aVWhenever another creature enters the battlefield under your control, Kruin Striker gets +1/+0 and gains trample until end of turn.
p346
aVWhen you planeswalk to Kilnspire District or at the beginning of your precombat main phase, put a charge counter on Kilnspire District, then add {R} to your mana pool for each charge counter on it.<br>Whenever you roll chaos, you may pay {X}. If you do, Kilnspire District deals X damage to target creature or player.
p347
aVHaste<br>{T}: Put a token that's a copy of target nonlegendary creature you control onto the battlefield. That token has haste. Sacrifice it at the beginning of the next end step.
p348
aV{T}: Nine-Ringed Bo deals 1 damage to target Spirit creature. If that creature would die this turn, exile it instead.
p349
aVSoulshift 7 <i>(When this creature dies, you may return target Spirit card with converted mana cost 7 or less from your graveyard to your hand.)</i>
p350
aVFlying<br>Whenever you cast a Spirit or Arcane spell, you may draw a card.
p351
aVWhenever you cast a Spirit or Arcane spell, Kami of the Painted Road gains protection from the color of your choice until end of turn.
p352
aVAt the beginning of your upkeep, sacrifice a Snake.<br>Whenever Shisato, Whispering Hunter deals combat damage to a player, that player skips his or her next untap step.
p353
aV{1}{R}: Kumano, Master Yamabushi deals 1 damage to target creature or player.<br>If a creature dealt damage by Kumano this turn would die, exile it instead.
p354
aVIf you would draw a card, look at the top three cards of your library instead. Put one of those cards into your hand and the rest on the bottom of your library in any order.
p355
aVIre of Kaminari deals damage to target creature or player equal to the number of Arcane cards in your graveyard.
p356
aVFlying<br>When Kingfisher dies, draw a card.
p357
aVDestroy all creatures. They can't be regenerated.<br>Threshold- If seven or more cards are in your graveyard, instead destroy all creatures, then put two 1/1 white Spirit creature tokens with flying onto the battlefield. Creatures destroyed this way can't be regenerated.
p358
aVEnchant creature<br>Enchanted creature can't attack.<br>Threshold- Enchanted creature can't block as long as seven or more cards are in your graveyard.
p359
aV{1}: The next time an instant or sorcery spell would deal damage to you this turn, that spell deals that damage to its controller instead.
p360
aVFlying<br>Extort <i>(Whenever you cast a spell, you may pay {W/B}. If you do, each opponent loses 1 life and you gain that much life.)</i>
p361
aVVigilance<br>Extort <i>(Whenever you cast a spell, you may pay {W/B}. If you do, each opponent loses 1 life and you gain that much life.)</i>
p362
aV{U}: Killer Whale gains flying until end of turn.
p363
aV{2}, {T}: Target player puts the top two cards of his or her library into his or her graveyard.
p364
aVExile target attacking creature.<br>Cycling {5}{G}{W}{U} <i>({5}{G}{W}{U}, Discard this card: Draw a card.)</i><br>When you cycle Resounding Silence, exile up to two target attacking creatures.
p365
aVLava Axe deals 5 damage to target player.
p366
aVWhenever a Sliver you control attacks, defending player loses 1 life.
p367
aV{1}{U}, {T}: Put target green creature on top of its owner's library.
p368
aV{T}: Tap target creature with power 3 or less.
p369
aVWhen Kitchen Finks enters the battlefield, you gain 2 life.<br>Persist <i>(When this creature dies, if it had no -1/-1 counters on it, return it to the battlefield under its owner's control with a -1/-1 counter on it.)</i>
p370
aVFear <i>(This creature can't be blocked except by artifact creatures and/or black creatures.)</i><br>{2}{U}{B}: Each unblocked creature becomes 4/1 until end of turn.
p371
aVDestroy target artifact or enchantment.<br>Conspire <i>(As you cast this spell, you may tap two untapped creatures you control that share a color with it. When you do, copy it and you may choose a new target for the copy.)</i>
p372
aVTap target untapped creature. It deals damage equal to its power to its controller.<br>Conspire <i>(As you cast this spell, you may tap two untapped creatures you control that share a color with it. When you do, copy it and you may choose a new target for the copy.)</i>
p373
aVLiving weapon <i>(When this Equipment enters the battlefield, put a 0/0 black Germ creature token onto the battlefield, then attach this to it.)</i><br>Equipped creature gets +1/+1 for each Swamp you control.<br>Equip {BP}{BP} <i>({BP} can be paid with either {B} or 2 life.)</i>
p374
aVHaste
p375
aVAmplify 3 <i>(As this creature enters the battlefield, put three +1/+1 counters on it for each Dragon card you reveal in your hand.)</i><br>Flying<br>{T}: Kilnmouth Dragon deals damage equal to the number of +1/+1 counters on it to target creature or player.
p376
aVEnchant creature<br>Enchanted creature can't be blocked by creatures with power 3 or greater.<br>Sacrifice Kithkin Armor: The next time a source of your choice would deal damage to enchanted creature this turn, prevent that damage.
p377
aV{2}, {T}: Tap all other artifacts. They don't untap during their controllers' untap steps for as long as Kill Switch remains tapped.
p378
aVAs long as Kitesail Apprentice is equipped, it gets +1/+1 and has flying.
p379
aVProtection from red<br>Whenever a player casts a red spell, you may gain 1 life.
p380
aVInspired- Whenever King Macar, the Gold-Cursed becomes untapped, you may exile target creature. If you do, put a colorless artifact token named Gold onto the battlefield. It has "Sacrifice this artifact: Add one mana of any color to your mana pool."
p381
aVStrive- Kiora's Dismissal costs {U} more to cast for each target beyond the first.<br>Return any number of target enchantments to their owners' hands.
p382
aVSearch your library for a Forest card and put that card onto the battlefield. Then shuffle your library.
p383
aVAll Forests are 1/1 creatures that are still lands.
p384
aVAmplify 3 <i>(As this creature enters the battlefield, put three +1/+1 counters on it for each Dragon card you reveal in your hand.)</i><br>Flying<br>{T}: Kilnmouth Dragon deals damage equal to the number of +1/+1 counters on it to target creature or player.
p385
aVPut an X/X black and green Spirit Warrior creature token onto the battlefield, where X is the greatest toughness among creatures you control.
p386
aV{2}: Regenerate Kin-Tree Warden.<br>Morph {G} <i>(You may cast this card face down as a 2/2 creature for {3}. Turn it face up any time for its morph cost.)</i>
p387
aVMorph {4}{B} <i>(You may cast this card face down as a 2/2 creature for {3}. Turn it face up any time for its morph cost.)</i>
p388
aVFirst strike<br>At the beginning of each upkeep, if no spells were cast last turn, transform Kruin Outlaw.
p389
aVFirst strike; reach <i>(This creature can block creatures with flying.)</i>
p390
aV{U}: Killer Whale gains flying until end of turn.
p391
aVLava Axe deals 5 damage to target player.
p392
aVTarget player loses all poison counters. Leeches deals that much damage to that player.
p393
aV{T}: Psionic Entity deals 2 damage to target creature or player and 3 damage to itself.
p394
aVEnchant creature<br>When enchanted creature dies, return that card to its owner's hand. If that card is returned to its owner's hand this way, you may pay {U}{U}{U}. If you do, return Puppet Master to its owner's hand.
p395
aVDiscard a card at random. If you do, Kindle the Carnage deals damage equal to that card's converted mana cost to each creature. You may repeat this process any number of times.
p396
aVKill-Suit Cultist attacks each turn if able.<br>{B}, Sacrifice Kill-Suit Cultist: The next time damage would be dealt to target creature this turn, destroy that creature instead.
p397
aVWhenever you cast an instant or sorcery spell, Kiln Fiend gets +3/+0 until end of turn.
p398
aVWhen Kithkin Harbinger enters the battlefield, you may search your library for a Kithkin card, reveal it, then shuffle your library and put that card on top of it.
p399
aVFlying<br>Whenever Kinsbaile Balloonist attacks, you may have target creature gain flying until end of turn.
p400
aVWhenever an attacking Kithkin or Elf is put into your graveyard from the battlefield, you may draw a card.
p401
aV{G}, {T}: Target attacking creature gets +2/+2 until end of turn.
p402
aVWhen Kinsbaile Skirmisher enters the battlefield, target creature gets +1/+1 until end of turn.
p403
aVLash Out deals 3 damage to target creature. Clash with an opponent. If you win, Lash Out deals 3 damage to that creature's controller. <i>(Each clashing player reveals the top card of his or her library, then puts that card on the top or bottom. A player wins if his or her card had a higher converted mana cost.)</i>
p404
aVWhen Spiderwig Boggart enters the battlefield, target creature gains fear until end of turn. <i>(It can't be blocked except by artifact creatures and/or black creatures.)</i>
p405
aV{T}: Destroy target Djinn or Efreet.
p406
aVKird Ape gets +1/+2 as long as you control a Forest.
p407
aV{T}: Destroy target tapped creature. Activate this ability only during your turn, before attackers are declared.
p408
asS'costs'
p409
(lp410
V{3}{U}{U}
p411
aV{2}{W}
p412
aV{3}{W}{W}
p413
aV{B}{B}
p414
aV{1}{W}
p415
aV{4}{W}
p416
aV{4}{U}
p417
aV{R}
p418
aV{2}{W}
p419
aV{1}{W}{W}
p420
aV{3}{W}
p421
aV{2}{R}{R}
p422
aV{4}
p423
aV{3}{W}
p424
aV{1}{G}{G}
p425
aV{2}{R}{R}{R}
p426
aV{4}{U}{B}
p427
aV{5}{R}{R}
p428
aV{3}{W}
p429
aS'0'
p430
aV{2}{G}{U}
p431
aV{R}
p432
aV{1}{R}
p433
aV{3}{U}
p434
aV{2}{B}{B}
p435
aV{2}{R}{R}{R}
p436
aV{1}{U}{U}
p437
aV{1}{W}
p438
aV{1}{G/W}{G/W}
p439
aV{R}
p440
aV{1}{G}{G}
p441
aV{R}
p442
aV{4}{R}{G}
p443
aV{3}{G}
p444
aV{R}
p445
aV{4}{W}
p446
aV{1}{W}
p447
aV{G}
p448
ag430
aV{2}{R}{R}{R}
p449
aV{1}{W}{W}
p450
aV{3}{W}
p451
aV{2}{W}
p452
aV{W}
p453
aV{3}{W}
p454
aV{B}{B}
p455
aV{1}{U}{U}
p456
aV{2}{W}
p457
aV{3}{U}
p458
aV{4}{W}{W}
p459
aV{W}
p460
aV{4}{W}{W}
p461
aV{3}{G}
p462
aV{3}{U}
p463
aV{3}{U}{U}
p464
aV{3}{W}
p465
aV{3}{R}{R}{R}
p466
aV{2}{U}
p467
aV{4}
p468
aV{4}{U}{U}
p469
aV{G}{G}{G}{G}{G}{G}{G}{G}
p470
aV{1}{G/W}{G/W}
p471
aV{3}{U}
p472
aV{1}{W}
p473
aV{3}{W}
p474
aV{7}
p475
aV{4}{B}{B}
p476
aV{5}{R}{R}
p477
aV{W}
p478
aV{3}
p479
aV{3}{R}{R}
p480
aV{2}
p481
aV{3}{U}{R}
p482
aV{2}{B}{B}
p483
aV{1}{G}{G}
p484
aV{3}{W}
p485
aV{5}{R}{R}
p486
aV{2}{W}
p487
aV{B}{G}
p488
aV{G}
p489
aV{2}{R}
p490
aV{3}{G}
p491
aV{3}{U}{U}
p492
aV{R}
p493
aV{3}{W}
p494
aV{1}{G}{G}
p495
aV{3}{W}
p496
aV{1}{R}{R}
p497
aV{R}
p498
aV{1}{R}
p499
aV{2}{W}
p500
aV{3}{W}
p501
aV{2}{G}
p502
aV{1}{G}
p503
aV{U}
p504
aV{1}{U}
p505
aV{2}{U}
p506
aV{1}{W}
p507
aV{R}
p508
aV{1}{B}{B}
p509
asS'names'
p510
(lp511
VKite Shield
p512
aVKitsune Bonesetter
p513
aVKiyomaro, First to Stand
p514
aVKiku's Shadow
p515
aVKitsune Loreweaver
p516
aVKitsune Dawnblade
p517
aVKiri-Onna
p518
aVKindled Fury
p519
aVKithkin Zephyrnaut
p520
aVKinsbaile Borderguard
p521
aVKinsbaile Cavalier
p522
aVKindled Fury
p523
aVKitesail
p524
aVKismet
p525
aVKiller Bees
p526
aVKiki-Jiki, Mirror Breaker
p527
aVKird Ape
p528
aVKilnmouth Dragon
p529
aVKinsbaile Cavalier
p530
aVKiora, the Crashing Wave
p531
aVKiora's Follower
p532
aVKindled Fury
p533
aVKindle
p534
aVKiller Whale
p535
aVKindle
p536
aVKiki-Jiki, Mirror Breaker
p537
aVKira, Great Glass-Spinner
p538
aVKithkin Greatheart
p539
aVKitchen Finks
p540
aVKird Ape
p541
aVKiller Bees
p542
aVKird Ape
p543
aVKiller Instinct
p544
aVKing Cheetah
p545
aVKird Ape
p546
aVKithkin Spellduster
p547
aVKithkin Zealot
p548
aVKilling Wave
p549
aVKilnspire District
p550
aVKiki-Jiki, Mirror Breaker
p551
aVKitsune Riftwalker
p552
aVKitsune Healer
p553
aVKitsune Blademaster
p554
aVKitsune Diviner
p555
aVKitsune Mystic
p556
aVKiku, Night's Flower
p557
aVKira, Great Glass-Spinner
p558
aVKitsune Palliator
p559
aVKingfisher
p560
aVKirtar's Wrath
p561
aVKirtar's Desire
p562
aVKirtar's Wrath
p563
aVKilling Glare
p564
aVKingpin's Pet
p565
aVKiller Whale
p566
aVKismet
p567
aVKiss of the Amesha
p568
aVKinsbaile Skirmisher
p569
aVKird Chieftain
p570
aVKing Crab
p571
aVKiln Fiend
p572
aVKitchen Finks
p573
aVKinscaer Harpoonist
p574
aVKithkin Shielddare
p575
aVKithkin Rabble
p576
aVKiln Walker
p577
aVKiss of Death
p578
aVKilnmouth Dragon
p579
aVKithkin Armor
p580
aVKill Switch
p581
aVKitesail
p582
aVKitesail Apprentice
p583
aVKing Macar, the Gold-Cursed
p584
aVKiora's Dismissal
p585
aVKiller Bees
p586
aVKismet
p587
aVKilnmouth Dragon
p588
aVKill Shot
p589
aVKin-Tree Invocation
p590
aVKin-Tree Warden
p591
aVKindercatch
p592
aVKing Cheetah
p593
aVKiller Whale
p594
aVKird Ape
p595
aVKismet
p596
aVKiller Bees
p597
aVKismet
p598
aVKindle the Carnage
p599
aVKill-Suit Cultist
p600
aVKiln Fiend
p601
aVKithkin Harbinger
p602
aVKinsbaile Balloonist
p603
aVKithkin Mourncaller
p604
aVKithkin Daggerdare
p605
aVKinsbaile Skirmisher
p606
aVKithkin Healer
p607
aVKithkin Greatheart
p608
aVKing Suleiman
p609
aVKird Ape
p610
aVKing's Assassin
p611
asS'toughs'
p612
(lp613
S'N/A'
p614
aV1
p615
aV*
p616
ag614
ag615
aV3
p617
aV2
p618
ag614
ag618
ag615
ag618
ag614
ag614
ag614
ag617
ag618
aV4
p619
ag619
aV5
p620
ag614
ag615
ag614
ag614
ag620
ag614
ag615
ag620
ag619
ag617
ag615
ag618
ag620
ag614
ag615
ag618
ag617
ag617
ag614
ag614
ag618
ag615
ag618
ag618
ag615
ag617
ag615
ag618
ag618
ag615
ag614
ag614
ag614
ag614
ag617
aV0
p621
ag614
ag614
ag617
ag620
ag620
ag615
ag618
ag617
ag615
ag615
ag614
ag614
ag620
ag614
ag614
ag614
ag618
ag618
ag614
ag618
ag614
ag618
ag614
ag614
ag615
ag620
ag617
ag620
ag617
ag614
ag617
ag614
ag614
ag621
ag618
ag617
ag618
ag618
ag615
ag615
ag617
ag618
ag615
aV8
p622
ag615
asS'artists'
p623
(lp624
S''
p625
aVHeather Hudson
p626
aVKev Walker
p627
aVPete Venters
p628
aVEric Polak
p629
aVCarl Critchlow
p630
aVKensuke Okabayashi
p631
aVShelly Wan
p632
aVQuinton Hoover & Val Mayerik
p633
aVChristopher Moeller
p634
aVWayne Reynolds
p635
aVWayne Reynolds
p636
aVSteven Belledin
p637
aVKaja Foglio
p638
aVPhil Foglio
p639
aVSteven Belledin
p640
aVTerese Nielsen
p641
aVCarl Critchlow
p642
aVWayne Reynolds
p643
aVScott M. Fischer
p644
aVEric Deschamps
p645
aVWayne Reynolds
p646
aVDonato Giancola
p647
aVStephen Daniele
p648
aVDonato Giancola
p649
ag625
ag625
ag625
ag625
aVTerese Nielsen
p650
aVMark Poole
p651
aVKen Meyer, Jr.
p652
aVChristopher Moeller
p653
aVTerese Nielsen
p654
aVTerese Nielsen
p655
aVTrevor Hairsine
p656
aVScott Altmann
p657
aVChristopher Moeller
p658
aVAleksi Briclot
p659
aVPete Venters
p660
aVPete Venters
p661
aVMichael Sutfin
p662
aVKeith Garletts
p663
aVPete Venters
p664
aVJim Murray
p665
aVJim Murray
p666
aVKev Walker
p667
aVDave Dorman
p668
aVEdward P. Beard, Jr.
p669
aVKev Walker
p670
aVPete Venters
p671
aVKev Walker
p672
aVPeter Mohrbacher
p673
aVMark Zug
p674
aVStephen Daniele
p675
aVKaja Foglio
p676
aVTodd Lockwood
p677
aVThomas Denmark
p678
aVLars Grant-West
p679
aVDaniel Gelon
p680
aVAdi Granov
p681
aVKev Walker
p682
aVThomas M. Baxa
p683
aVChristopher Moeller
p684
aVOmar Rayyan
p685
ag625
aVMelissa A. Benson
p686
aVCarl Critchlow
p687
aVCharles Gillespie
p688
aVBrian Snoddy
p689
aVCyril Van Der Haegen
p690
aVAustin Hsu
p691
aVGreg Staples
p692
aVMathias Kollros
p693
aVPhil Foglio
p694
aVKaja Foglio
p695
aVCarl Critchlow
p696
aVMichael C. Hayes
p697
aVRyan Alexander Lee
p698
aVVolkan Baga
p699
aVTerese Nielsen
p700
aVTerese Nielsen
p701
aVStephen Daniele
p702
aVKen Meyer, Jr.
p703
aVKaja Foglio
p704
aVPhil Foglio
p705
aVKaja Foglio
p706
aVDany Orizio
p707
aVAlex Horley-Orlandelli
p708
aVAdi Granov
p709
aVSteve Prescott
p710
aVZoltan Boros & Gabor Szikszai
p711
aVDominick Domingo
p712
aVChristopher Moeller
p713
aVThomas Denmark
p714
aVRebecca Guay
p715
aVGreg Staples
p716
aVMark Poole
p717
aVKen Meyer Jr.
p718
aVZina Saunders
p719
asS'powers'
p720
(lp721
g614
ag621
ag616
ag614
ag618
ag618
ag618
ag614
ag618
ag615
ag618
ag614
ag614
ag614
ag617
ag618
ag615
ag618
ag620
ag614
ag615
ag614
ag614
ag619
ag614
ag615
ag620
ag619
ag620
ag615
ag618
ag621
ag614
ag618
ag618
ag618
ag615
ag614
ag614
ag618
ag618
ag618
ag618
ag621
ag618
ag615
ag618
ag621
ag615
ag614
ag614
ag614
ag614
ag617
ag621
ag614
ag614
ag620
ag616
ag619
ag622
ag617
ag615
ag618
ag618
ag614
ag614
ag620
ag614
ag614
ag614
ag620
ag618
ag614
aV6
p722
ag614
ag618
ag614
ag614
ag615
ag619
ag618
ag617
ag617
ag614
ag618
ag614
ag614
ag621
ag615
ag615
ag618
ag618
ag615
ag618
ag618
ag618
ag615
ag722
ag615
asS'types'
p723
(lp724
VArtifact - Equipment
p725
aVCreature - Fox Cleric
p726
aVLegendary Creature - Spirit
p727
aVSorcery
p728
aVCreature - Fox Cleric
p729
aVCreature - Fox Samurai
p730
aVCreature - Spirit
p731
aVInstant
p732
aVCreature - Kithkin Soldier
p733
aVCreature - Kithkin Soldier
p734
aVCreature - Kithkin Knight
p735
aVInstant
p736
aVArtifact - Equipment
p737
aVEnchantment
p738
aVCreature - Insect
p739
aVLegendary Creature - Goblin Shaman
p740
aVCreature - Ape
p741
aVCreature - Dragon
p742
aVCreature - Kithkin Knight
p743
aVPlaneswalker - Kiora
p744
aVCreature - Merfolk
p745
aVInstant
p746
aVInstant
p747
aVCreature - Whale
p748
aVInstant
p749
aVLegendary Creature - Goblin Shaman
p750
aVLegendary Creature - Spirit
p751
aVCreature - Kithkin Soldier
p752
aVCreature - Ouphe
p753
aVCreature - Ape
p754
aVCreature - Insect
p755
aVCreature - Ape
p756
aVEnchantment
p757
aVCreature - Cat
p758
aVCreature - Ape
p759
aVCreature - Kithkin Wizard
p760
aVCreature - Kithkin Cleric
p761
aVSorcery
p762
aVPlane - Ravnica
p763
aVLegendary Creature - Goblin Shaman
p764
aVCreature - Fox Wizard
p765
aVCreature - Fox Cleric
p766
aVCreature - Fox Samurai
p767
aVCreature - Fox Cleric
p768
aVCreature - Fox Wizard
p769
aVLegendary Creature - Human Assassin
p770
aVLegendary Creature - Spirit
p771
aVCreature - Fox Cleric
p772
aVCreature - Bird
p773
aVSorcery
p774
aVEnchantment - Aura
p775
aVSorcery
p776
aVInstant
p777
aVCreature - Thrull
p778
aVCreature - Whale
p779
aVEnchantment
p780
aVSorcery
p781
aVCreature - Kithkin Soldier
p782
aVCreature - Ape
p783
aVCreature - Crab
p784
aVCreature - Elemental Beast
p785
aVCreature - Ouphe
p786
aVCreature - Kithkin Soldier
p787
aVCreature - Kithkin Soldier
p788
aVCreature - Kithkin
p789
aVArtifact Creature - Construct
p790
aVSorcery
p791
aVCreature - Dragon
p792
aVEnchantment - Aura
p793
aVArtifact
p794
aVArtifact - Equipment
p795
aVCreature - Kor Soldier
p796
aVLegendary Creature - Human
p797
aVInstant
p798
aVCreature - Insect
p799
aVEnchantment
p800
aVCreature - Dragon
p801
aVInstant
p802
aVSorcery
p803
aVCreature - Human Warrior
p804
aVCreature - Spirit
p805
aVCreature - Cat
p806
aVCreature - Whale
p807
aVCreature - Ape
p808
aVEnchantment
p809
aVCreature - Insect
p810
aVEnchantment
p811
aVSorcery
p812
aVCreature - Goblin Berserker
p813
aVCreature - Elemental Beast
p814
aVCreature - Kithkin Wizard
p815
aVCreature - Kithkin Soldier
p816
aVCreature - Kithkin Scout
p817
aVCreature - Kithkin Soldier
p818
aVCreature - Kithkin Soldier
p819
aVCreature - Kithkin Cleric
p820
aVCreature - Kithkin Soldier
p821
aVCreature - Human
p822
aVCreature - Ape
p823
aVCreature - Human Assassin
p824
asS'numbers'
p825
(lp826
V210
p827
aV15
p828
aV18
p829
aV77
p830
aV17
p831
aV16
p832
aV43
p833
aV92
p834
aV16
p835
aV14
p836
aV15
p837
aV137
p838
aV208
p839
aV131
p840
aV249
p841
ag619
ag618
aV59
p842
aV17
p843
aV149
p844
aV150
p845
aV144
p846
aV156
p847
aV76
p848
aV176
p849
ag625
ag625
ag625
ag625
ag722
aV126
p850
aV42
p851
aV120
p852
aV250
p853
aV199
p854
ag622
aV9
p855
aV111
p856
aV17
p857
aV175
p858
aV29
p859
aV27
p860
aV25
p861
aV26
p862
aV28a
p863
aV121
p864
aV40
p865
aV14
p866
aV36
p867
aV15
p868
aV27
p869
aV28
p870
aV70
p871
aV173
p872
aV37
p873
aV27
p874
aV177
p875
aV16
p876
aV151
p877
aV34
p878
aV153
p879
aV229
p880
aV41
p881
aV10
p882
ag855
aV142
p883
aV51
p884
aV104
p885
aV107
p886
aV133
p887
aV126
p888
aV10
p889
aV74
p890
aV44
p891
aV107
p892
aV318
p893
aV44
p894
aV15
p895
aV183
p896
aV139
p897
aV190
p898
aV134
p899
aV12
p900
aV58
p901
aV17
p902
aV244
p903
aV245
p904
aV66
p905
aV65
p906
ag618
aV26
p907
aV23
p908
aV224
p909
aV223
p910
aV24
p911
aV27
p912
aV25
p913
aV30
p914
aV69
p915
aV11
p916
as.