(dp0
S'rares'
p1
(lp2
VCommon
p3
aVRare
p4
aVRare
p5
aVRare
p6
aVUncommon
p7
aVRare
p8
aVRare
p9
aVCommon
p10
aVUncommon
p11
aVUncommon
p12
aVRare
p13
aVRare
p14
aVRare
p15
aVRare
p16
aVCommon
p17
aVCommon
p18
aVCommon
p19
aVCommon
p20
aVUncommon
p21
aVCommon
p22
aVCommon
p23
aVRare
p24
aVRare
p25
aVCommon
p26
aVRare
p27
aVRare
p28
aVCommon
p29
aVRare
p30
aVCommon
p31
aVCommon
p32
aVMythic Rare
p33
aVUncommon
p34
aVRare
p35
aVRare
p36
aVRare
p37
aVRare
p38
aVCommon
p39
aVRare
p40
aVRare
p41
aVUncommon
p42
aVRare
p43
aVCommon
p44
aVRare
p45
aVUncommon
p46
aVRare
p47
aVRare
p48
aVUncommon
p49
aVCommon
p50
aVUncommon
p51
aVRare
p52
aVCommon
p53
aVCommon
p54
aVRare
p55
aVRare
p56
aVMythic Rare
p57
aVRare
p58
aVRare
p59
aVRare
p60
aVRare
p61
aVCommon
p62
aVMythic Rare
p63
aVMythic Rare
p64
aVUncommon
p65
aVCommon
p66
aVRare
p67
aVCommon
p68
aVRare
p69
aVRare
p70
aVUncommon
p71
aVRare
p72
aVUncommon
p73
aVRare
p74
aVCommon
p75
aVUncommon
p76
aVCommon
p77
aVRare
p78
aVUncommon
p79
aVCommon
p80
aVCommon
p81
aVRare
p82
aVCommon
p83
aVCommon
p84
aVCommon
p85
aVUncommon
p86
aVCommon
p87
aVCommon
p88
aVCommon
p89
aVRare
p90
aVCommon
p91
aVCommon
p92
aVUncommon
p93
aVUncommon
p94
aVUncommon
p95
aVCommon
p96
aVCommon
p97
aVUncommon
p98
aVRare
p99
aVRare
p100
aVCommon
p101
aVRare
p102
aVCommon
p103
aVRare
p104
aVCommon
p105
aVCommon
p106
aVRare
p107
aVRare
p108
aVCommon
p109
aVCommon
p110
aVRare
p111
aVUncommon
p112
aVRare
p113
aVRare
p114
aVUncommon
p115
aVRare
p116
aVMythic Rare
p117
aVUncommon
p118
aVRare
p119
aVRare
p120
aVCommon
p121
aVRare
p122
aVCommon
p123
aVCommon
p124
aVUncommon
p125
aVSpecial
p126
aVRare
p127
aVCommon
p128
aVRare
p129
aVRare
p130
aVUncommon
p131
aVCommon
p132
aVCommon
p133
aVUncommon
p134
aVCommon
p135
aVRare
p136
aVCommon
p137
aVCommon
p138
aVUncommon
p139
aVUncommon
p140
aVSpecial
p141
aVRare
p142
aVRare
p143
aVCommon
p144
asS'editns'
p145
(lp146
VMagic: The Gathering-Commander
p147
aVMagic 2012
p148
aVLimited Edition Beta
p149
aVLimited Edition Beta
p150
aVSaviors of Kamigawa
p151
aVFourth Edition
p152
aVFourth Edition
p153
aVFourth Edition
p154
aVCommander's Arsenal
p155
aVDuel Decks: Ajani vs. Nicol Bolas
p156
aVDuel Decks: Ajani vs. Nicol Bolas
p157
aVAlliances
p158
aVAlliances
p159
aVDuel Decks: Knights vs. Dragons
p160
aVScars of Mirrodin
p161
aVBorn of the Gods
p162
aVMagic 2010
p163
aVTempest
p164
aVTempest
p165
aVTempest
p166
aVTenth Edition
p167
aVTenth Edition
p168
aVTenth Edition
p169
aVTenth Edition
p170
aVTenth Edition
p171
aVTenth Edition
p172
aVVintage Masters
p173
aVModern Masters
p174
aVModern Masters
p175
aVMirrodin Besieged
p176
aVFrom the Vault: Exiled
p177
aVMasters Edition III
p178
aVRevised Edition
p179
aVRevised Edition
p180
aVMasters Edition II
p181
aVMasters Edition II
p182
aVNinth Edition
p183
aVNinth Edition
p184
aVNinth Edition
p185
aVEventide
p186
aVAvacyn Restored
p187
aVOnslaught
p188
aVChampions of Kamigawa
p189
aVBetrayers of Kamigawa
p190
aVRavnica: City of Guilds
p191
aVRavnica: City of Guilds
p192
aVRavnica: City of Guilds
p193
aVCommander 2013 Edition
p194
aVTime Spiral
p195
aVTime Spiral
p196
aVTime Spiral
p197
aVReturn to Ravnica
p198
aVReturn to Ravnica
p199
aVReturn to Ravnica
p200
aVGatecrash
p201
aVColdsnap
p202
aVUnlimited Edition
p203
aVUnlimited Edition
p204
aVIce Age
p205
aVTorment
p206
aVZendikar
p207
aVZendikar
p208
aVClassic Sixth Edition
p209
aVClassic Sixth Edition
p210
aVClassic Sixth Edition
p211
aVMirrodin
p212
aVMirrodin
p213
aVMirrodin
p214
aVMirrodin
p215
aVMirrodin
p216
aVMirrodin
p217
aVDuel Decks: Elspeth vs. Tezzeret
p218
aVSeventh Edition
p219
aVSeventh Edition
p220
aVSeventh Edition
p221
aVSeventh Edition
p222
aVUrza's Legacy
p223
aVDarksteel
p224
aVRise of the Eldrazi
p225
aVRise of the Eldrazi
p226
aVJudgment
p227
aVShadowmoor
p228
aVShadowmoor
p229
aVShadowmoor
p230
aVNew Phyrexia
p231
aVNew Phyrexia
p232
aVStarter 1999
p233
aVStarter 1999
p234
aVFifth Dawn
p235
aVFifth Dawn
p236
aVFifth Dawn
p237
aVScourge
p238
aVFuture Sight
p239
aVFuture Sight
p240
aVFuture Sight
p241
aVPortal Second Age
p242
aVPlanechase
p243
aVPlanechase
p244
aVLegions
p245
aVUrza's Saga
p246
aVUrza's Saga
p247
aVMasters Edition
p248
aVTheros
p249
aVTheros
p250
aVWeatherlight
p251
aVMagic: The Gathering\u2014Conspiracy
p252
aVEighth Edition
p253
aVEighth Edition
p254
aVEighth Edition
p255
aVWorldwake
p256
aVWorldwake
p257
aVInvasion
p258
aVInvasion
p259
aVInvasion
p260
aVAlara Reborn
p261
aVAlara Reborn
p262
aVFifth Edition
p263
aVFifth Edition
p264
aVFifth Edition
p265
aVArchenemy
p266
aVArchenemy
p267
aVKhans of Tarkir
p268
aVMirage
p269
aVVanguard
p270
aVInnistrad
p271
aVInnistrad
p272
aVLimited Edition Alpha
p273
aVLimited Edition Alpha
p274
aVVisions
p275
aVBeatdown Box Set
p276
aVStronghold
p277
aVLegends
p278
aVLegends
p279
aVDissension
p280
aVDuel Decks: Izzet vs. Golgari
p281
aVLorwyn
p282
aVPortal Three Kingdoms
p283
aVPortal Three Kingdoms
p284
aVTime Spiral "Timeshifted"
p285
aVPlaneshift
p286
aVDark Ascension
p287
aVDark Ascension
p288
asS'ids'
p289
(lp290
V247349
p291
aV220131
p292
aV405
p293
aV365
p294
aV74394
p295
aV2165
p296
aV2111
p297
aV2112
p298
aV338450
p299
aV249377
p300
aV249414
p301
aV3048
p302
aV3224
p303
aV243448
p304
aV207885
p305
aV378391
p306
aV190550
p307
aV4614
p308
aV4913
p309
aV4829
p310
aV129628
p311
aV129629
p312
aV129630
p313
aV129638
p314
aV129798
p315
aV135271
p316
aV383002
p317
aV370562
p318
aV370529
p319
aV213761
p320
aV194975
p321
aV201136
p322
aV1206
p323
aV1166
p324
aV184559
p325
aV184649
p326
aV83154
p327
aV83155
p328
aV83435
p329
aV151059
p330
aV275706
p331
aV41138
p332
aV80532
p333
aV74584
p334
aV83651
p335
aV83738
p336
aV87941
p337
aV376401
p338
aV113513
p339
aV114904
p340
aV118918
p341
aV289218
p342
aV253518
p343
aV290543
p344
aV366412
p345
aV113542
p346
aV707
p347
aV667
p348
aV2703
p349
aV29770
p350
aV191369
p351
aV185749
p352
aV14475
p353
aV20178
p354
aV14551
p355
aV46071
p356
aV46105
p357
aV46128
p358
aV48114
p359
aV48180
p360
aV49759
p361
aV222706
p362
aV13161
p363
aV25549
p364
aV13104
p365
aV11387
p366
aV12436
p367
aV39562
p368
aV193426
p369
aV198164
p370
aV34775
p371
aV142001
p372
aV147414
p373
aV154411
p374
aV218053
p375
aV218013
p376
aV20225
p377
aV20390
p378
aV50137
p379
aV50207
p380
aV73567
p381
aV43605
p382
aV126146
p383
aV126151
p384
aV130332
p385
aV6614
p386
aV205291
p387
aV205270
p388
aV45131
p389
aV5717
p390
aV5591
p391
aV159096
p392
aV373731
p393
aV373629
p394
aV4593
p395
aV382298
p396
aV45405
p397
aV45289
p398
aV45324
p399
aV197873
p400
aV191557
p401
aV23092
p402
aV23170
p403
aV23233
p404
aV177922
p405
aV179633
p406
aV3921
p407
aV3857
p408
aV3858
p409
aV220536
p410
aV212579
p411
aV386588
p412
aV3395
p413
aV182266
p414
aV227072
p415
aV241982
p416
aV110
p417
aV70
p418
aV3719
p419
aV27257
p420
aV5181
p421
aV1669
p422
aV1451
p423
aV107568
p424
aV292762
p425
aV140183
p426
aV10491
p427
aV10556
p428
aV106642
p429
aV10742
p430
aV242539
p431
aV244724
p432
asS'texts'
p433
(lp434
VLonely Sandbar enters the battlefield tapped.<br>{T}: Add {U} to your mana pool.<br>Cycling {U} <i>({U}, Discard this card: Draw a card.)</i>
p435
aVWhen Manic Vandal enters the battlefield, destroy target artifact.
p436
aVOther Merfolk creatures get +1/+1 and have islandwalk.
p437
aVR
p438
aVEach opponent's maximum hand size is reduced by two.
p439
aVMana Vault doesn't untap during your untap step.<br>At the beginning of your upkeep, you may pay {4}. If you do, untap Mana Vault.<br>At the beginning of your draw step, if Mana Vault is tapped, it deals 1 damage to you.<br>{T}: Add {3} to your mana pool.
p440
aVWhenever a player taps a land for mana, Manabarbs deals 1 damage to that player.
p441
aVCreatures with power 3 or greater don't untap during their controllers' untap steps.
p442
aVSacrifice Loyal Retainers: Return target legendary creature card from your graveyard to the battlefield. Activate this ability only during your turn, before attackers are declared.
p443
aVLoam Lion gets +1/+2 as long as you control a Forest.
p444
aVWhen Loxodon Hierarch enters the battlefield, you gain 4 life.<br>{G}{W}, Sacrifice Loxodon Hierarch: Regenerate each creature you control.
p445
aV{1}, {T}, Sacrifice Lodestone Bauble: Put up to four target basic land cards from a player's graveyard on top of his or her library in any order. That player draws a card at the beginning of the next turn's upkeep.
p446
aVAn opponent chooses one- You put a +1/+1 counter on each creature you control and gain 4 life; or you put a -1/-1 counter on each creature that player controls and Misfortune deals 4 damage to him or her.
p447
aVEquipped creature gets +3/+0 and has trample and lifelink. <i>(If the creature would assign enough damage to its blockers to destroy them, you may have it assign the rest of its damage to defending player or planeswalker. Damage dealt by the creature also causes its controller to gain that much life.)</i><br>Equip {3} <i>({3}: Attach to target creature you control. Equip only as a sorcery.)</i>
p448
aV{T}: Put a charge counter on Lux Cannon.<br>{T}, Remove three charge counters from Lux Cannon: Destroy target permanent.
p449
aVHeroic- Whenever you cast a spell that targets Meletis Astronomer, look at the top three cards of your library. You may reveal an enchantment card from among them and put it into your hand. Put the rest on the bottom of your library in any order.
p450
aVOther Merfolk creatures you control get +1/+1.<br>{T}: Target Merfolk creature is unblockable this turn.
p451
aV{T}, Sacrifice Lotus Petal: Add one mana of any color to your mana pool.
p452
aVCreatures with power 3 or greater don't untap during their controllers' untap steps.
p453
aV{W}, {T}: Tap target creature.
p454
aV{W}, {T}: Tap target creature.
p455
aVWhenever an opponent discards a card, Megrim deals 2 damage to that player.
p456
aVTarget creature gets +7/+7 until end of turn.
p457
aVTarget player discards two cards.
p458
aV{B}, {T}, Sacrifice Doomed Necromancer: Return target creature card from your graveyard to the battlefield.
p459
aVReturn target creature to its owner's hand.
p460
aVFlying<br>Will of the council- When Magister of Worth enters the battlefield, starting with you, each player votes for grace or condemnation. If grace gets more votes, each player returns each creature card from his or her graveyard to the battlefield. If condemnation gets more votes or the vote is tied, destroy all creatures other than Magister of Worth.
p461
aVSuspend 3\u2014{0} <i>(Rather than cast this card from your hand, pay {0} and exile it with three time counters on it. At the beginning of your upkeep, remove a time counter. When the last is removed, cast it without paying its mana cost.)</i><br>{T}, Sacrifice Lotus Bloom: Add three mana of any one color to your mana pool.
p462
aVDelve <i>(You may exile any number of cards from your graveyard as you cast this spell. It costs {1} less to cast for each card exiled this way.)</i><br>Counter target spell unless its controller pays {X}.
p463
aVFlying
p464
aV{T}, Sacrifice Lotus Petal: Add one mana of any color to your mana pool.
p465
aVRampage 1 <i>(Whenever this creature becomes blocked, it gets +1/+1 until end of turn for each creature blocking it beyond the first.)</i>
p466
ag438
ag438
aV{1}{U}, {T}: Untap target artifact an opponent controls and gain control of it until end of turn. It gains haste until end of turn. When you lose control of the artifact, tap it.
p467
aVAt the beginning of your upkeep, flip a coin. If you lose the flip, Mana Crypt deals 3 damage to you.<br>{T}: Add {2} to your mana pool.
p468
aVAll lands become 2/2 creatures until end of turn. They're still lands.
p469
aVTarget player gains 8 life.
p470
aVFirst strike <i>(This creature deals combat damage before creatures without first strike.)</i><br>When Nekrataal enters the battlefield, destroy target nonartifact, nonblack creature. That creature can't be regenerated.
p471
aVDefender, flying<br>Whenever you cast a white spell, Loyal Gyrfalcon loses defender until end of turn.
p472
aVWhenever you cast an instant spell, you may pay {1}. If you do, draw a card.
p473
aVLonely Sandbar enters the battlefield tapped.<br>{T}: Add {U} to your mana pool.<br>Cycling {U} <i>({U}, Discard this card: Draw a card.)</i>
p474
aVVine Kami can't be blocked except by two or more creatures.<br>Soulshift 6 <i>(When this creature dies, you may return target Spirit card with converted mana cost 6 or less from your graveyard to your hand.)</i>
p475
aVDestroy target artifact or enchantment. You gain life equal to its converted mana cost.
p476
aVEnchant creature<br>When Fists of Ironwood enters the battlefield, put two 1/1 green Saproling creature tokens onto the battlefield.<br>Enchanted creature has trample.
p477
aVWhen Sadistic Augermage dies, each player puts a card from his or her hand on top of his or her library.
p478
aVRain of Embers deals 1 damage to each creature and each player.
p479
aVLonely Sandbar enters the battlefield tapped.<br>{T}: Add {U} to your mana pool.<br>Cycling {U} <i>({U}, Discard this card: Draw a card.)</i>
p480
aVSpells you cast cost {1} less to cast for each card with the same name as that spell in your graveyard.
p481
aVSuspend 3\u2014{0} <i>(Rather than cast this card from your hand, pay {0} and exile it with three time counters on it. At the beginning of your upkeep, remove a time counter. When the last is removed, cast it without paying its mana cost.)</i><br>{T}, Sacrifice Lotus Bloom: Add three mana of any one color to your mana pool.
p482
aVShadow <i>(This creature can block or be blocked by only creatures with shadow.)</i><br>Whenever Looter il-Kor deals damage to an opponent, draw a card, then discard a card.
p483
aVMana Bloom enters the battlefield with X charge counters on it.<br>Remove a charge counter from Mana Bloom: Add one mana of any color to your mana pool. Activate this ability only once each turn.<br>At the beginning of your upkeep, if Mana Bloom has no charge counters on it, return it to its owner's hand.
p484
aVAt the beginning of your upkeep, detain target creature an opponent controls. <i>(Until your next turn, that creature can't attack or block and its activated abilities can't be activated.)</i>
p485
aV{U}, {T}: Draw two cards.<br>{R}, {T}, Discard a card: Mercurial Chemister deals damage to target creature equal to the discarded card's converted mana cost.
p486
aVVigilance<br>When Luminate Primordial enters the battlefield, for each opponent, exile up to one target creature that player controls and that player gains life equal to its power.
p487
aVWarrior, Berserker, and/or other Barbarian creatures get +2/+2 and have haste.
p488
ag438
ag438
aVBlocking creatures get +1/+1 until end of turn.
p489
aVWhen Longhorn Firebeast enters the battlefield, any opponent may have it deal 5 damage to him or her. If a player does, sacrifice Longhorn Firebeast.
p490
aVLandfall- Whenever a land enters the battlefield under your control, you may add one mana of any color to your mana pool.
p491
aVWhenever a spell or ability you control counters a spell, you may put a 1/1 blue Merfolk creature token onto the battlefield.<br>Tap seven untapped Merfolk you control: Counter target spell.
p492
aVBlack creatures can't attack or block.
p493
aVLook at the top seven cards of your library. Put two of them into your hand and the rest into your graveyard.
p494
ag438
aV{W}, {T}: Regenerate target artifact.
p495
aVLoxodon Punisher gets +2/+2 for each Equipment attached to it.
p496
aVTrample<br>Tap an untapped artifact you control: Lodestone Myr gets +1/+1 until end of turn.
p497
aVFlying<br>When Looming Hoverguard enters the battlefield, put target artifact on top of its owner's library.
p498
aVAt the beginning of your upkeep, the player with the lowest life total gains control of Loxodon Peacekeeper. If two or more players are tied for lowest life total, you choose one of them, and that player gains control of Loxodon Peacekeeper.
p499
ag438
aVTarget creature gets +2/+2 and gains flying until end of turn.
p500
aVFlying <i>(This creature can't be blocked except by creatures with flying or reach.)</i>
p501
ag438
ag438
ag438
aVTarget creature gets +7/+7 until end of turn.
p502
aV{W}, {T}: Tap target creature.
p503
aVEnchant creature<br>Whenever enchanted creature becomes tapped, Lust for War deals 3 damage to that creature's controller.<br>Enchanted creature attacks each turn if able.
p504
aV{1}, Sacrifice a nonland permanent: Magmaw deals 1 damage to target creature or player.
p505
aVEnchant creature<br>Enchanted creature can't attack or block, and its activated abilities can't be activated. Its controller may exile three cards from his or her graveyard for that player to ignore this effect until end of turn.
p506
aVFlying<br>{G/W}{G/W}: Rune-Cervin Rider gets +1/+1 until end of turn.
p507
aV{2}, {T}: Tap target creature.
p508
aVFlying<br>Whenever Kinscaer Harpoonist attacks, you may have target creature lose flying until end of turn.
p509
aV<i>({WP} can be paid with either {W} or 2 life.)</i><br>Marrow Shards deals 1 damage to each attacking creature.
p510
aVWhen Master Splicer enters the battlefield, put a 3/3 colorless Golem artifact creature token onto the battlefield.<br>Golem creatures you control get +1/+1.
p511
aVW
p512
ag512
aV{T}: Prevent the next 2 damage that would be dealt to target creature or player this turn.
p513
aVTarget creature gets -1/-1 until end of turn.<br>Scry 2. <i>(To scry 2, look at the top two cards of your library, then put any number of them on the bottom of your library and the rest on top in any order.)</i>
p514
aVVigilance<br>As long as Raksha Golden Cub is equipped, Cat creatures you control get +2/+2 and have double strike.
p515
aVSearch your library for a card, shuffle your library, then put that card third from the top.
p516
aVWhen Llanowar Empath enters the battlefield, scry 2, then reveal the top card of your library. If it's a creature card, put it into your hand. <i>(To scry 2, look at the top two cards of your library, then put any number of them on the bottom of your library and the rest on top in any order.)</i>
p517
aVBuyback {2} <i>(You may pay an additional {2} as you cast this spell. If you do, put this card into your hand as it resolves.)</i><br>Scry 3. <i>(To scry 3, look at the top three cards of your library, then put any number of them on the bottom of your library and the rest on top in any order.)</i>
p518
aVThunderblade Charge deals 3 damage to target creature or player.<br>Whenever one or more creatures you control deal combat damage to a player, if Thunderblade Charge is in your graveyard, you may pay {2}{R}{R}{R}. If you do, you may cast it without paying its mana cost.
p519
ag512
aVTrample<br>Tap an untapped artifact you control: Lodestone Myr gets +1/+1 until end of turn.
p520
aVEquipped creature gets +3/+0 and has trample and lifelink. <i>(If the creature would assign enough damage to its blockers to destroy them, you may have it assign the rest of its damage to defending player or planeswalker. Damage dealt by the creature also causes its controller to gain that much life.)</i><br>Equip {3} <i>({3}: Attach to target creature you control. Equip only as a sorcery.)</i>
p521
aVFirst strike<br>Provoke <i>(When this attacks, you may have target creature defending player controls untap and block it if able.)</i>
p522
aVAt the beginning of your upkeep, you may put a petal counter on Lotus Blossom.<br>{T}, Sacrifice Lotus Blossom: Add X mana of any one color to your mana pool, where X is the number of petal counters on Lotus Blossom.
p523
ag438
aVWhen Lord of Tresserhorn enters the battlefield, you lose 2 life, you sacrifice two creatures, and target opponent draws two cards.<br>{B}: Regenerate Lord of Tresserhorn.
p524
aVReturn up to two target creature cards from your graveyard to your hand.
p525
aVProtection from red<br>Elemental creatures you control get +1/+1.<br>When Master of Waves enters the battlefield, put a number of 1/0 blue Elemental creature tokens onto the battlefield equal to your devotion to blue. <i>(Each {U} in the mana costs of permanents you control counts toward your devotion to blue.)</i>
p526
aVIf Lotus Vale would enter the battlefield, sacrifice two untapped lands instead. If you do, put Lotus Vale onto the battlefield. If you don't, put it into its owner's graveyard.<br>{T}: Add three mana of any one color to your mana pool.
p527
aVReveal Lurking Automaton as you draft it and note how many cards you've drafted this draft round, including Lurking Automaton.<br>Lurking Automaton enters the battlefield with X +1/+1 counters on it, where X is the highest number you noted for cards named Lurking Automaton.
p528
aVDestroy target artifact or enchantment.
p529
aVFlying<br>Nightmare's power and toughness are each equal to the number of Swamps you control.
p530
aVOkk can't attack unless a creature with greater power also attacks.<br>Okk can't block unless a creature with greater power also blocks.
p531
aVSwampwalk
p532
aVMultikicker {1}{W} <i>(You may pay an additional {1}{W} any number of times as you cast this spell.)</i><br>Creatures you control get +1/+1.<br>When Marshal's Anthem enters the battlefield, return up to X target creature cards from your graveyard to the battlefield, where X is the number of times Marshal's Anthem was kicked.
p533
aVWhenever Loafing Giant attacks or blocks, put the top card of your library into your graveyard. If that card is a land card, prevent all combat damage Loafing Giant would deal this turn.
p534
aVTarget player reveals his or her hand, then you choose a card other than a basic land card from it. Search that player's graveyard, hand, and library for all cards with the same name as the chosen card and exile them. Then that player shuffles his or her library.
p535
aVFlying<br>{T}: Add one mana of any color to your mana pool.
p536
aVWhenever you draw a card, you may put a +1/+1 counter on Lorescale Coatl.
p537
aVCreatures you control have haste.
p538
aVWhenever Marsh Viper deals damage to a player, that player gets two poison counters. <i>(A player with ten or more poison counters loses the game.)</i>
p539
aVCreatures with power 3 or greater don't untap during their controllers' untap steps.
p540
aVCounter target spell. If that spell is countered this way, put it on top of its owner's library instead of into that player's graveyard.
p541
aVNonartifact spells cost {1} more to cast.
p542
aVWhen you set this scheme in motion, put a 5/5 red Dragon creature token with flying onto the battlefield.
p543
aVFlying, vigilance, haste
p544
aVFlying<br>{G}: Regenerate Locust Swarm.<br>{G}: Untap Locust Swarm. Activate this ability only once each turn.
p545
aVSacrifice a permanent: Regenerate target creature you control.
p546
aVTrample
p547
aVDefender<br>{1}{U}: Put a hatchling counter on Ludevic's Test Subject. Then if there are five or more hatchling counters on it, remove all of them and transform it.
p548
aVAt the beginning of the end step, if no creatures are on the battlefield, sacrifice Pestilence.<br>{B}: Pestilence deals 1 damage to each creature and each player.
p549
aVEnchant land<br>As Phantasmal Terrain enters the battlefield, choose a basic land type.<br>Enchanted land is the chosen type.
p550
aVWhen Man-o'-War enters the battlefield, return target creature to its owner's hand.
p551
aVFlying<br>When you cast a creature spell, sacrifice Skittering Skirge.
p552
aVWhenever Lowland Basilisk deals damage to a creature, destroy that creature at end of combat.
p553
aVAt the beginning of your upkeep, you may pay {R}{R}{R}. If you don't, tap Rohgahh of Kher Keep and all creatures named Kobolds of Kher Keep, then an opponent gains control of them.<br>Creatures you control named Kobolds of Kher Keep get +2/+2.
p554
aV{T}: Target creature loses flying until end of turn.
p555
aVWhen Loaming Shaman enters the battlefield, target player shuffles any number of target cards from his or her graveyard into his or her library.
p556
aVLonely Sandbar enters the battlefield tapped.<br>{T}: Add {U} to your mana pool.<br>Cycling {U} <i>({U}, Discard this card: Draw a card.)</i>
p557
aV{T}: Target Goblin creature you control gets +1/+0 and gains flying until end of turn. Sacrifice that creature at the beginning of the next end step.
p558
aVAll creatures able to block target creature this turn do so.
p559
aVStalking Tiger can't be blocked by more than one creature.
p560
aVOther Merfolk creatures get +1/+1 and have islandwalk.
p561
aVOther Zombie creatures get +1/+1.<br>{1}{B}, {T}: Return target Zombie card from your graveyard to your hand.
p562
aVVigilance<br>When Loyal Cathar dies, return it to the battlefield transformed under your control at the beginning of the next end step.
p563
aVDouble strike<br>Whenever Markov Blademaster deals combat damage to a player, put a +1/+1 counter on it.
p564
asS'costs'
p565
(lp566
S'0'
p567
aV{2}{U}{U}
p568
aV{U}{U}
p569
aV{4}{B}{B}{B}
p570
aV{2}{B}{B}
p571
aV{U}{U}
p572
aV{4}{B}{B}{B}
p573
aV{1}{B}{B}
p574
aV{2}{W}
p575
aV{R}{W}
p576
aV{W}
p577
aV{0}
p578
aV{1}{U}{B}{R}
p579
aV{3}
p580
aV{2}
p581
aV{3}{R}
p582
aV{R}
p583
aV{0}
p584
aV{2}{U}{B}
p585
aV{2}{R}{R}
p586
aV{2}{B}
p587
aV{1}{B}{B}
p588
aV{3}
p589
aV{3}{W}{W}
p590
aV{W}
p591
aV{4}{B}{B}{B}
p592
ag567
aV{0}
p593
aV{X}{U}{U}
p594
aV{4}{W}
p595
aV{0}
p596
aV{2}{W}
p597
aV{U}{U}
p598
aV{4}{B}{B}{B}
p599
aV{0}
p600
aV{2}{W}{W}
p601
aV{2}{B}
p602
aV{1}{B}{B}
p603
aV{3}
p604
aV{3}{W}
p605
aV{1}{R}
p606
ag567
aV{3}
p607
aV{1}{G}
p608
aV{2}{W}{W}
p609
aV{2}{G}{W}
p610
aV{1}{U}
p611
ag567
aV{1}
p612
aV{0}
p613
aV{1}{U}
p614
aV{3}{B}
p615
aV{2}{R}
p616
aV{B}{G}
p617
aV{R}
p618
aV{3}{R}{R}
p619
aV{U}{U}
p620
aV{4}{B}{B}{B}
p621
aV{2}{W}{W}
p622
aV{2}{R}
p623
aV{2}{U}{U}
p624
aV{5}{U}{U}{U}
p625
aV{W}{W}
p626
aV{1}{B}{B}
p627
aV{U}{U}
p628
aV{5}{W}
p629
aV{3}{W}
p630
aV{4}
p631
aV{4}{U}{U}
p632
aV{1}{W}
p633
aV{3}
p634
aV{1}{W}
p635
aV{2}{G}
p636
aV{W}{W}
p637
aV{2}{B}
p638
aV{U}{U}
p639
aV{2}{G}
p640
aV{3}{W}{W}
p641
aV{3}{G}
p642
aV{1}{W}
p643
aV{1}{U}
p644
aV{4}{R/G}{R/G}{R/G}
p645
aV{3}{B}
p646
aV{4}
p647
aV{4}{B}{B}
p648
aV{1}{W}
p649
aV{2}{G}
p650
aV{W}
p651
aV{2}{W}{W}
p652
aV{B}
p653
aV{3}{W}{W}
p654
aV{2}{U}
p655
aV{2}{W}{W}
p656
aV{X}{U}{U}
p657
aV{1}{B}
p658
aV{2}{G}
p659
aV{4}
p660
aV{3}
p661
aV{4}{W}
p662
aV{2}
p663
aV{2}{B}
p664
aV{1}{U}{B}{R}
p665
aV{1}{W}
p666
aV{1}{R}
p667
ag567
aV{3}{R}
p668
aV{2}{G}
p669
aV{2}{B}
p670
aV{1}{B}{B}
p671
aV{3}{W}
p672
aV{W}
p673
aV{4}{R}
p674
aV{2}{U}{B}
p675
aV{7}
p676
aV{3}{B}{G}
p677
aV{1}{G}{U}
p678
aV{U}{U}
p679
aV{4}{B}{B}{B}
p680
aV{1}{B}{B}
p681
aV{4}
p682
ag567
aV{3}{G}
p683
aV{3}{G}
p684
ag567
ag567
aV{2}{U}
p685
aV{U}{U}
p686
aV{4}{B}{B}{B}
p687
aV{W}{W}
p688
aV{2}{R}{R}
p689
aV{2}{G}
p690
aV{3}{G}{W}{W}
p691
aV{1}{B}{B}
p692
aV{2}{G}
p693
ag567
aV{4}{U}{U}
p694
aV{2}{W}
p695
aV{2}{G}
p696
aV{U}{U}
p697
aV{1}{B}{B}
p698
aV{3}{G}{G}
p699
aV{W}{W}
p700
asS'names'
p701
(lp702
VLonely Sandbar
p703
aVLord of the Unreal
p704
aVLord of Atlantis
p705
aVLord of the Pit
p706
aVLocust Miser
p707
aVLord of Atlantis
p708
aVLord of the Pit
p709
aVLost Soul
p710
aVLoyal Retainers
p711
aVLoam Lion
p712
aVLoxodon Hierarch
p713
aVLodestone Bauble
p714
aVLord of Tresserhorn
p715
aVLoxodon Warhammer
p716
aVLoxodon Wayfarer
p717
aVLoyal Pegasus
p718
aVLooming Shade
p719
aVLotus Petal
p720
aVLobotomy
p721
aVLowland Giant
p722
aVLooming Shade
p723
aVLord of the Undead
p724
aVLoxodon Warhammer
p725
aVLoxodon Mystic
p726
aVLoyal Sentry
p727
aVLord of the Pit
p728
aVLonely Sandbar
p729
aVLotus Bloom
p730
aVLogic Knot
p731
aVLoxodon Partisan
p732
aVLotus Petal
p733
aVLoyal Retainers
p734
aVLord of Atlantis
p735
aVLord of the Pit
p736
aVLodestone Bauble
p737
aVLost Order of Jarkeld
p738
aVLooming Shade
p739
aVLord of the Undead
p740
aVLoxodon Warhammer
p741
aVLoyal Gyrfalcon
p742
aVLone Revenant
p743
aVLonely Sandbar
p744
aVLong-Forgotten Gohei
p745
aVLoam Dweller
p746
aVLoxodon Gatekeeper
p747
aVLoxodon Hierarch
p748
aVLore Broker
p749
aVLonely Sandbar
p750
aVLocket of Yesterdays
p751
aVLotus Bloom
p752
aVLooter il-Kor
p753
aVLobber Crew
p754
aVLotleth Troll
p755
aVLoxodon Smiter
p756
aVLord of the Void
p757
aVLovisa Coldeyes
p758
aVLord of Atlantis
p759
aVLord of the Pit
p760
aVLost Order of Jarkeld
p761
aVLonghorn Firebeast
p762
aVLorthos, the Tidemaker
p763
aVLotus Cobra
p764
aVLongbow Archer
p765
aVLost Soul
p766
aVLord of Atlantis
p767
aVLoxodon Mender
p768
aVLoxodon Punisher
p769
aVLodestone Myr
p770
aVLooming Hoverguard
p771
aVLoxodon Peacekeeper
p772
aVLoxodon Warhammer
p773
aVLoyal Sentry
p774
aVLone Wolf
p775
aVLongbow Archer
p776
aVLooming Shade
p777
aVLord of Atlantis
p778
aVLone Wolf
p779
aVLoxodon Mystic
p780
aVLone Missionary
p781
aVLord of Shatterskull Pass
p782
aVLost in Thought
p783
aVLoamdragger Giant
p784
aVLoch Korrigan
p785
aVLockjaw Snapper
p786
aVLost Leonin
p787
aVLoxodon Convert
p788
aVLone Wolf
p789
aVLoyal Sentry
p790
aVLoxodon Anchorite
p791
aVLose Hope
p792
aVLoxodon Stalwart
p793
aVLong-Term Plans
p794
aVLost Auramancers
p795
aVLogic Knot
p796
aVLost Hours
p797
aVLone Wolf
p798
aVLodestone Myr
p799
aVLoxodon Warhammer
p800
aVLowland Tracker
p801
aVLotus Blossom
p802
aVLooming Shade
p803
aVLord of Tresserhorn
p804
aVLoathsome Catoblepas
p805
aVLost in a Labyrinth
p806
aVLotus Vale
p807
aVLore Seeker
p808
aVLone Wolf
p809
aVLooming Shade
p810
aVLord of the Undead
p811
aVLoam Lion
p812
aVLodestone Golem
p813
aVLoafing Giant
p814
aVLobotomy
p815
aVLotus Guardian
p816
aVLord of Extinction
p817
aVLorescale Coatl
p818
aVLord of Atlantis
p819
aVLord of the Pit
p820
aVLost Soul
p821
aVLodestone Golem
p822
aVLook Skyward and Despair
p823
aVLongshot Squad
p824
aVLocust Swarm
p825
aVLoxodon Hierarch Avatar
p826
aVLord of Lineage
p827
aVLost in the Mist
p828
aVLord of Atlantis
p829
aVLord of the Pit
p830
aVLongbow Archer
p831
aVLowland Giant
p832
aVLowland Basilisk
p833
aVLord Magnus
p834
aVLost Soul
p835
aVLoaming Shaman
p836
aVLonely Sandbar
p837
aVLowland Oaf
p838
aVLoyal Retainers
p839
aVLone Wolf
p840
aVLord of Atlantis
p841
aVLord of the Undead
p842
aVLost in the Woods
p843
aVLoyal Cathar
p844
asS'toughs'
p845
(lp846
S'N/A'
p847
aV4
p848
aV2
p849
aV1
p850
ag849
ag850
ag849
ag848
ag849
ag850
ag850
ag847
aV3
p851
ag847
ag851
ag850
aV9
p852
ag847
ag847
ag848
ag849
ag850
ag847
ag849
aV7
p853
ag851
ag847
ag847
ag847
ag853
ag847
ag848
ag851
ag851
ag847
ag850
ag850
ag850
ag847
ag851
ag850
ag847
ag847
ag849
ag851
ag849
ag849
ag847
ag847
ag847
ag850
ag851
ag848
ag850
ag851
ag851
ag850
ag849
ag849
ag849
ag848
ag848
ag849
ag849
aV5
p854
ag849
ag849
ag847
aV6
p855
ag850
ag847
ag849
ag849
ag850
ag850
ag849
ag848
ag850
ag851
ag848
ag847
ag855
ag854
ag847
ag849
ag850
ag849
ag850
ag851
ag847
ag850
ag847
ag851
ag847
ag847
ag849
ag847
ag847
ag849
ag847
ag849
ag849
ag848
ag847
ag847
ag847
ag851
ag850
ag855
ag854
ag847
ag855
ag847
ag847
ag850
ag849
ag850
ag849
ag851
ag847
ag847
ag851
ag848
ag847
ag847
ag847
ag850
ag855
ag850
ag851
ag851
ag848
ag850
ag850
ag847
ag848
ag850
ag849
ag849
ag848
ag847
ag851
asS'artists'
p856
(lp857
VHeather Hudson
p858
aS''
p859
aVMelissa Benson
p860
aVMark Tedin
p861
aVAlan Pollack
p862
aVMelissa A. Benson
p863
aVMark Tedin
p864
aVRandy Asplund-Faith
p865
aVSolomon Au Yeung
p866
aVDaniel Ljunggren
p867
aVKev Walker
p868
aVDouglas Shuler
p869
aVAnson Maddocks
p870
aVTerese Nielsen
p871
aVSteven Belledin
p872
aVJohn Severin Brassell
p873
aVKev Walker
p874
aVApril Lee
p875
aVThomas M. Baxa
p876
aVPaolo Parente
p877
aVKev Walker
p878
aVBrom
p879
aVJeremy Jarvis
p880
aVRandy Gallegos
p881
aVMichael Sutfin
p882
aVMichael Sutfin
p883
aVHeather Hudson
p884
ag859
ag859
ag859
aVApril Lee
p885
aVGao Jianzhang
p886
aVMelissa Benson
p887
aVMark Tedin
p888
aVDouglas Shuler
p889
aVAndi Rusu
p890
aVKev Walker
p891
aVBrom
p892
aVJeremy Jarvis
p893
aVDarrell Riche
p894
aVWesley Burt
p895
aVHeather Hudson
p896
aVAlan Pollack
p897
aVPaolo Parente
p898
aVCarl Critchlow
p899
aVKev Walker
p900
aVAlan Pollack
p901
aVHeather Hudson
p902
aVDany Orizio
p903
aVMark Zug
p904
aVMike Dringenberg
p905
aVGreg Staples
p906
aVVincent Proce
p907
aVRyan Barger
p908
aVChris Rahn
p909
aVBrian Snoddy
p910
aVMelissa Benson
p911
aVMark Tedin
p912
aVAndi Rusu
p913
aVGlen Angus
p914
aVKekai Kotaki
p915
aVChippy
p916
aVEric Peterson
p917
aVRandy Asplund
p918
aVMelissa A. Benson
p919
aVHeather Hudson
p920
aVTerese Nielsen
p921
aVGreg Staples
p922
aVScott M. Fischer
p923
aVMichael Sutfin
p924
aVJeremy Jarvis
p925
aVMichael Sutfin
p926
aVDouglas Shuler
p927
aVRay Lago
p928
aVKev Walker
p929
aVGreg Staples
p930
aVUna Fricker
p931
aVEdward P. Beard, Jr.
p932
aVSvetlin Velinov
p933
aVKekai Kotaki
p934
aVBen Thompson
p935
aVPete Venters
p936
aVDaarken
p937
aVDaren Bader
p938
ag859
ag859
aVUna Fricker
p939
aVRon Spears
p940
aVJim Nelson
p941
aVMatt Cavotta
p942
aVPaolo Parente
p943
aVBen Thompson
p944
aVBrandon Kitkouski
p945
aVGlen Angus
p946
aVJon Foster
p947
aVMichael Weaver
p948
aVGreg Staples
p949
aVJeremy Jarvis
p950
aVBrian Snoddy
p951
aVRandy Gallegos
p952
aVVincent Evans
p953
aVAnson Maddocks
p954
aVChristopher Burdett
p955
aVWinona Nelson
p956
aVJohn Avon
p957
aVJason Felix
p958
aVUna Fricker
p959
aVKev Walker
p960
aVBrom
p961
aVDaniel Ljunggren
p962
aVChris Rahn
p963
aVGreg & Tim Hildebrandt
p964
aVD. Alexander Gregory
p965
aVDana Knutson
p966
aVIzzy
p967
aVGreg Staples
p968
aVMelissa A. Benson
p969
aVMark Tedin
p970
aVRandy Asplund
p971
aVChris Rahn
p972
aVTodd Lockwood
p973
aVWesley Burt
p974
aVWilliam Donohoe
p975
aVUDON
p976
aVJason Chan
p977
aVDavid Palumbo
p978
aVMelissa Benson
p979
aVMark Tedin
p980
aVEric Peterson
p981
aVPaolo Parente
p982
aVRandy Gallegos
p983
aVMark Tedin
p984
aVRandy Asplund-Faith
p985
aVCarl Critchlow
p986
aVHeather Hudson
p987
aVJeff Easley
p988
aVSolomon Au Yeung
p989
aVYang Jun Kwon
p990
aVMelissa A. Benson
p991
aVBrom
p992
aVJana Schirmer & Johannes Voss
p993
aVCynthia Sheppard
p994
asS'powers'
p995
(lp996
g847
ag850
ag849
ag850
ag849
aV0
p997
ag849
ag849
ag849
ag850
ag848
ag847
ag850
ag847
ag851
ag849
ag850
ag847
ag847
ag851
ag849
ag848
ag847
ag849
ag853
ag851
ag847
ag847
ag847
ag854
ag847
ag848
ag851
ag849
ag847
ag850
ag850
ag848
ag847
ag851
ag849
ag847
ag847
ag849
ag849
ag855
ag850
ag847
ag847
ag847
ag850
ag997
ag849
ag848
ag854
ag851
ag850
ag849
ag849
ag851
ag848
aV8
p998
ag849
ag851
ag854
ag849
ag849
ag847
ag854
ag850
ag847
ag849
ag849
ag848
ag850
ag849
ag854
ag849
ag851
ag849
ag847
ag853
ag853
ag847
ag850
ag850
ag849
ag850
ag851
ag847
ag854
ag847
ag851
ag847
ag847
ag849
ag847
ag847
ag849
ag847
ag849
ag849
ag854
ag847
ag847
ag847
ag851
ag850
ag855
ag849
ag847
ag848
ag847
ag847
ag849
ag851
ag850
ag849
ag849
ag847
ag847
ag851
ag848
ag847
ag847
ag847
ag850
ag997
ag850
ag848
ag850
ag848
ag997
ag849
ag847
ag851
ag850
ag849
ag849
ag851
ag847
ag849
asS'types'
p999
(lp1000
VLand
p1001
aVCreature - Human Wizard
p1002
aVCreature - Merfolk
p1003
aVCreature - Demon
p1004
aVCreature - Rat Shaman
p1005
aVCreature - Merfolk
p1006
aVCreature - Demon
p1007
aVCreature - Spirit Minion
p1008
aVCreature - Human Advisor
p1009
aVCreature - Cat
p1010
aVCreature - Elephant Cleric
p1011
aVArtifact
p1012
aVLegendary Creature - Zombie
p1013
aVArtifact - Equipment
p1014
aVCreature - Elephant Monk
p1015
aVCreature - Pegasus
p1016
aVCreature - Shade
p1017
aVArtifact
p1018
aVSorcery
p1019
aVCreature - Giant
p1020
aVCreature - Shade
p1021
aVCreature - Zombie
p1022
aVArtifact - Equipment
p1023
aVCreature - Elephant Cleric
p1024
aVCreature - Human Soldier
p1025
aVCreature - Demon
p1026
aVLand
p1027
aVArtifact
p1028
aVInstant
p1029
aVCreature - Elephant Soldier
p1030
aVArtifact
p1031
aVCreature - Human Advisor
p1032
aVCreature - Merfolk
p1033
aVCreature - Demon
p1034
aVArtifact
p1035
aVCreature - Human Knight
p1036
aVCreature - Shade
p1037
aVCreature - Zombie
p1038
aVArtifact - Equipment
p1039
aVCreature - Bird
p1040
aVCreature - Spirit
p1041
aVLand
p1042
aVArtifact
p1043
aVCreature - Spirit
p1044
aVCreature - Elephant Soldier
p1045
aVCreature - Elephant Cleric
p1046
aVCreature - Human Rogue
p1047
aVLand
p1048
aVArtifact
p1049
aVArtifact
p1050
aVCreature - Kor Rogue
p1051
aVCreature - Goblin Warrior
p1052
aVCreature - Zombie Troll
p1053
aVCreature - Elephant Soldier
p1054
aVCreature - Demon
p1055
aVLegendary Creature - Human Barbarian
p1056
aVCreature - Merfolk
p1057
aVCreature - Demon
p1058
aVCreature - Human Knight
p1059
aVCreature - Elemental Ox Beast
p1060
aVLegendary Creature - Octopus
p1061
aVCreature - Snake
p1062
aVCreature - Human Soldier Archer
p1063
aVCreature - Spirit Minion
p1064
aVCreature - Merfolk
p1065
aVCreature - Elephant Cleric
p1066
aVCreature - Elephant Soldier
p1067
aVArtifact Creature - Myr
p1068
aVCreature - Drone
p1069
aVCreature - Elephant Soldier
p1070
aVArtifact - Equipment
p1071
aVCreature - Human Soldier
p1072
aVCreature - Wolf
p1073
aVCreature - Human Soldier Archer
p1074
aVCreature - Shade
p1075
aVCreature - Merfolk
p1076
aVCreature - Wolf
p1077
aVCreature - Elephant Cleric
p1078
aVCreature - Kor Monk
p1079
aVCreature - Minotaur Shaman
p1080
aVEnchantment - Aura
p1081
aVCreature - Giant Warrior
p1082
aVCreature - Spirit
p1083
aVArtifact Creature - Scarecrow
p1084
aVCreature - Cat Soldier
p1085
aVCreature - Elephant Soldier
p1086
aVCreature - Wolf
p1087
aVCreature - Human Soldier
p1088
aVCreature - Elephant Cleric
p1089
aVInstant
p1090
aVCreature - Elephant Soldier
p1091
aVInstant
p1092
aVCreature - Human Wizard
p1093
aVInstant
p1094
aVSorcery
p1095
aVCreature - Wolf
p1096
aVArtifact Creature - Myr
p1097
aVArtifact - Equipment
p1098
aVCreature - Human Soldier
p1099
aVArtifact
p1100
aVCreature - Shade
p1101
aVLegendary Creature - Zombie
p1102
aVCreature - Beast
p1103
aVInstant
p1104
aVLand
p1105
aVArtifact Creature - Construct
p1106
aVCreature - Wolf
p1107
aVCreature - Shade
p1108
aVCreature - Zombie
p1109
aVCreature - Cat
p1110
aVArtifact Creature - Golem
p1111
aVCreature - Giant
p1112
aVSorcery
p1113
aVArtifact Creature - Dragon
p1114
aVCreature - Elemental
p1115
aVCreature - Snake
p1116
aVCreature - Merfolk
p1117
aVCreature - Demon
p1118
aVCreature - Spirit Minion
p1119
aVArtifact Creature - Golem
p1120
aVScheme
p1121
aVCreature - Hound Archer
p1122
aVCreature - Insect
p1123
aVVanguard
p1124
aVTransform Creature - Vampire
p1125
aVInstant
p1126
aVCreature - Merfolk
p1127
aVCreature - Demon
p1128
aVCreature - Human Soldier Archer
p1129
aVCreature - Giant
p1130
aVCreature - Basilisk
p1131
aVLegendary Creature - Human Druid
p1132
aVCreature - Spirit Minion
p1133
aVCreature - Centaur Shaman
p1134
aVLand
p1135
aVCreature - Giant Warrior
p1136
aVCreature - Human Advisor
p1137
aVCreature - Wolf
p1138
aVCreature - Merfolk
p1139
aVCreature - Zombie
p1140
aVEnchantment
p1141
aVCreature - Human Soldier
p1142
asS'numbers'
p1143
(lp1144
V281
p1145
aV62
p1146
ag998
aV163
p1147
aV80
p1148
aV259
p1149
aV260
p1150
aV261
p1151
aV10
p1152
ag854
aV15
p1153
ag853
aV111
p1154
aV31
p1155
aV15
p1156
aV19
p1157
aV103
p1158
aV17
p1159
aV282
p1160
aV283
p1161
aV153
p1162
aV155
p1163
aV332
p1164
aV26
p1165
aV27
p1166
aV154
p1167
aV304
p1168
ag859
ag859
aV12
p1169
ag853
aV20
p1170
aV181
p1171
aV182
p1172
aV213
p1173
aV24
p1174
aV142
p1175
aV143
p1176
aV303
p1177
aV11
p1178
aV64
p1179
aV320
p1180
aV261
p1181
aV134
p1182
aV25
p1183
aV214
p1184
aV57
p1185
aV305
p1186
aV258
p1187
aV259
p1188
aV66
p1189
aV99
p1190
aV177
p1191
aV178
p1192
aV71
p1193
aV90
p1194
aV162
p1195
aV163
p1196
aV201
p1197
aV103
p1198
aV53
p1199
aV168
p1200
aV30
p1201
aV142
p1202
aV79
p1203
aV12
p1204
aV14
p1205
aV200
p1206
aV38
p1207
aV13
p1208
aV201
p1209
ag854
aV254
p1210
aV26
p1211
aV145
p1212
aV83
p1213
aV105
p1214
ag853
aV34
p1215
aV156
p1216
aV45
p1217
aV210
p1218
aV71
p1219
aV255
p1220
aV13
p1221
aV14
p1222
aV130
p1223
aV20
p1224
aV10
p1225
aV52
p1226
aV11
p1227
aV38
p1228
aV11
p1229
aV52
p1230
aV69
p1231
aV122
p1232
aV117
p1233
aV118
p1234
aV17
p1235
aV300
p1236
aV139
p1237
aV149
p1238
aV95
p1239
aV52
p1240
aV114
p1241
aV62
p1242
aV262
p1243
aV140
p1244
aV141
p1245
aV13
p1246
aV127
p1247
aV153
p1248
aV255
p1249
aV305
p1250
aV91
p1251
aV101
p1252
aV328
p1253
aV329
p1254
aV330
p1255
aV111
p1256
aV24
p1257
aV140
p1258
aV110
p1259
aV54
p1260
aV90
p1261
aV63
p1262
aV201
p1263
aV202
p1264
aV135
p1265
aV23
p1266
aV54
p1267
aV147
p1268
aV248
p1269
aV87
p1270
aV35
p1271
aV184
p1272
aV12
p1273
aV140
p1274
aV24
p1275
aV44
p1276
aV123
p1277
aV13
p1278
as.