(dp0
S'rares'
p1
(lp2
VRare
p3
aVRare
p4
aVMythic Rare
p5
aVRare
p6
aVRare
p7
aVRare
p8
aVCommon
p9
aVRare
p10
aVCommon
p11
aVCommon
p12
aVUncommon
p13
aVRare
p14
aVRare
p15
aVRare
p16
aVRare
p17
aVRare
p18
aVRare
p19
aVCommon
p20
aVUncommon
p21
aVRare
p22
aVRare
p23
aVCommon
p24
aVCommon
p25
aVCommon
p26
aVCommon
p27
aVCommon
p28
aVRare
p29
aVRare
p30
aVCommon
p31
aVRare
p32
aVUncommon
p33
aVCommon
p34
aVCommon
p35
aVRare
p36
aVRare
p37
aVRare
p38
aVRare
p39
aVRare
p40
aVRare
p41
aVRare
p42
aVRare
p43
aVCommon
p44
aVUncommon
p45
aVUncommon
p46
aVRare
p47
aVRare
p48
aVRare
p49
aVRare
p50
aVRare
p51
aVMythic Rare
p52
aVUncommon
p53
aVUncommon
p54
aVCommon
p55
aVCommon
p56
aVCommon
p57
aVRare
p58
aVRare
p59
aVRare
p60
aVMythic Rare
p61
aVUncommon
p62
aVCommon
p63
aVCommon
p64
aVCommon
p65
aVRare
p66
aVCommon
p67
aVRare
p68
aVCommon
p69
aVRare
p70
aVRare
p71
aVUncommon
p72
aVCommon
p73
aVRare
p74
aVCommon
p75
aVRare
p76
aVRare
p77
aVRare
p78
aVRare
p79
aVCommon
p80
aVUncommon
p81
aVCommon
p82
aVRare
p83
aVUncommon
p84
aVRare
p85
aVMythic Rare
p86
aVMythic Rare
p87
aVCommon
p88
aVRare
p89
aVCommon
p90
aVMythic Rare
p91
aVRare
p92
aVUncommon
p93
aVUncommon
p94
aVUncommon
p95
aVUncommon
p96
aVRare
p97
aVRare
p98
aVRare
p99
aVCommon
p100
aVUncommon
p101
aVRare
p102
aVCommon
p103
aVCommon
p104
aVRare
p105
aVMythic Rare
p106
aVCommon
p107
aVUncommon
p108
aVCommon
p109
aVRare
p110
aVRare
p111
aVRare
p112
aVUncommon
p113
aVRare
p114
aVRare
p115
aVRare
p116
aVRare
p117
aVRare
p118
aVRare
p119
aVRare
p120
aVRare
p121
aVRare
p122
aVRare
p123
aVUncommon
p124
aVRare
p125
aVCommon
p126
aVRare
p127
aVRare
p128
aVRare
p129
aVCommon
p130
aVRare
p131
aVRare
p132
aVUncommon
p133
aVMythic Rare
p134
aVRare
p135
aVMythic Rare
p136
aVCommon
p137
aVUncommon
p138
aVCommon
p139
aVRare
p140
aVRare
p141
aVRare
p142
aVCommon
p143
aVUncommon
p144
aVCommon
p145
aVCommon
p146
aVMythic Rare
p147
aVUncommon
p148
aVUncommon
p149
aVMythic Rare
p150
aVUncommon
p151
aVUncommon
p152
aVRare
p153
aVCommon
p154
aVCommon
p155
aVUncommon
p156
aVRare
p157
aVCommon
p158
aVMythic Rare
p159
aVRare
p160
aVCommon
p161
aVUncommon
p162
aVRare
p163
aVUncommon
p164
aVUncommon
p165
aVRare
p166
aVCommon
p167
aVRare
p168
aVCommon
p169
aVCommon
p170
aVCommon
p171
aVCommon
p172
aVUncommon
p173
aVRare
p174
aVMythic Rare
p175
aVRare
p176
aVUncommon
p177
aVUncommon
p178
aVRare
p179
aVMythic Rare
p180
aVUncommon
p181
aVRare
p182
aVMythic Rare
p183
aVUncommon
p184
aVRare
p185
aVUncommon
p186
aVCommon
p187
aVRare
p188
aVCommon
p189
aVRare
p190
aVRare
p191
aVRare
p192
aVRare
p193
aVRare
p194
aVRare
p195
aVRare
p196
aVRare
p197
aVCommon
p198
aVUncommon
p199
aVCommon
p200
aVCommon
p201
aVMythic Rare
p202
aVCommon
p203
aVRare
p204
aVUncommon
p205
aVCommon
p206
aVCommon
p207
aVCommon
p208
aVUncommon
p209
aVCommon
p210
aVCommon
p211
aVCommon
p212
aVMythic Rare
p213
aVRare
p214
aVRare
p215
aVRare
p216
aVRare
p217
aVRare
p218
aVRare
p219
aVUncommon
p220
aVUncommon
p221
aVRare
p222
aVRare
p223
aVCommon
p224
aVRare
p225
aVCommon
p226
aVRare
p227
aVUncommon
p228
aVUncommon
p229
aVRare
p230
aVRare
p231
aVRare
p232
aVUncommon
p233
aVUncommon
p234
aVRare
p235
aVUncommon
p236
aVCommon
p237
aVRare
p238
aVRare
p239
aVRare
p240
aVRare
p241
aVMythic Rare
p242
aVRare
p243
aVCommon
p244
aVCommon
p245
aVRare
p246
aVUncommon
p247
aVRare
p248
aVRare
p249
aVRare
p250
aVUncommon
p251
aVRare
p252
aVRare
p253
aVCommon
p254
aVRare
p255
aVUncommon
p256
aVCommon
p257
aVRare
p258
aVCommon
p259
aVRare
p260
aVRare
p261
aVUncommon
p262
aVCommon
p263
aVCommon
p264
aVRare
p265
aVCommon
p266
aVUncommon
p267
aVRare
p268
aVSpecial
p269
aVUncommon
p270
aVCommon
p271
aVRare
p272
aVRare
p273
aVCommon
p274
aVUncommon
p275
aVUncommon
p276
aVCommon
p277
aVUncommon
p278
aVUncommon
p279
aVRare
p280
aVUncommon
p281
aVCommon
p282
aVCommon
p283
aVRare
p284
aVRare
p285
aVRare
p286
aVRare
p287
aVRare
p288
aVRare
p289
aVCommon
p290
aVRare
p291
aVUncommon
p292
aVUncommon
p293
aVRare
p294
aVRare
p295
aVUncommon
p296
aVCommon
p297
aVUncommon
p298
aVRare
p299
aVUncommon
p300
aVCommon
p301
aVMythic Rare
p302
aVRare
p303
aVCommon
p304
aVCommon
p305
aVRare
p306
aVUncommon
p307
aVRare
p308
aVRare
p309
aVCommon
p310
aVMythic Rare
p311
aVCommon
p312
aVUncommon
p313
aVUncommon
p314
aVRare
p315
aVCommon
p316
aVCommon
p317
aVRare
p318
aVRare
p319
aVRare
p320
aVCommon
p321
aVUncommon
p322
aVRare
p323
aVCommon
p324
aVRare
p325
aVUncommon
p326
aVUncommon
p327
aVRare
p328
aVRare
p329
aVRare
p330
aVCommon
p331
aVCommon
p332
aVRare
p333
aVCommon
p334
aVRare
p335
aVRare
p336
aVMythic Rare
p337
aVRare
p338
aVUncommon
p339
aVCommon
p340
aVUncommon
p341
aVUncommon
p342
aVUncommon
p343
aVRare
p344
aVRare
p345
aVRare
p346
aVRare
p347
aVRare
p348
aVRare
p349
aVRare
p350
aVCommon
p351
aVRare
p352
aVUncommon
p353
aVRare
p354
aVRare
p355
aVCommon
p356
aVRare
p357
aVRare
p358
aVCommon
p359
aVUncommon
p360
aVUncommon
p361
aVCommon
p362
aVUncommon
p363
aVCommon
p364
aVUncommon
p365
aVCommon
p366
aVCommon
p367
aVRare
p368
aVUncommon
p369
aVUncommon
p370
aVRare
p371
aVUncommon
p372
aVUncommon
p373
aVRare
p374
aVUncommon
p375
aVUncommon
p376
aVRare
p377
aVSpecial
p378
aVSpecial
p379
aVSpecial
p380
aVSpecial
p381
aVSpecial
p382
aVSpecial
p383
aVSpecial
p384
aVUncommon
p385
aVCommon
p386
aVRare
p387
aVCommon
p388
aVCommon
p389
aVUncommon
p390
aVUncommon
p391
aVCommon
p392
aVRare
p393
aVRare
p394
aVRare
p395
aVRare
p396
aVRare
p397
aVRare
p398
aVRare
p399
aVUncommon
p400
aVUncommon
p401
aVCommon
p402
aVRare
p403
aVRare
p404
aVRare
p405
aVRare
p406
aVRare
p407
aVUncommon
p408
aVRare
p409
aVMythic Rare
p410
aVUncommon
p411
aVCommon
p412
aVCommon
p413
aVCommon
p414
aVCommon
p415
aVCommon
p416
aVMythic Rare
p417
aVUncommon
p418
aVCommon
p419
aVRare
p420
aVUncommon
p421
aVUncommon
p422
aVRare
p423
aVUncommon
p424
aVUncommon
p425
aVCommon
p426
aVCommon
p427
aVUncommon
p428
aVUncommon
p429
aVRare
p430
aVRare
p431
aVUncommon
p432
aVRare
p433
aVCommon
p434
aVCommon
p435
aVCommon
p436
aVRare
p437
aVRare
p438
aVRare
p439
aVRare
p440
aVRare
p441
aVUncommon
p442
aVUncommon
p443
aVCommon
p444
aVUncommon
p445
aVCommon
p446
aVRare
p447
aVUncommon
p448
aVRare
p449
aVCommon
p450
aVRare
p451
aVUncommon
p452
aVCommon
p453
asS'editns'
p454
(lp455
VMagic: The Gathering-Commander
p456
aVMagic: The Gathering-Commander
p457
aVMagic: The Gathering-Commander
p458
aVMagic: The Gathering-Commander
p459
aVMagic: The Gathering-Commander
p460
aVMagic: The Gathering-Commander
p461
aVMagic 2012
p462
aVMagic 2012
p463
aVMagic 2012
p464
aVMagic 2012
p465
aVMagic 2012
p466
aVLimited Edition Beta
p467
aVLimited Edition Beta
p468
aVLimited Edition Beta
p469
aVLimited Edition Beta
p470
aVLimited Edition Beta
p471
aVLimited Edition Beta
p472
aVSaviors of Kamigawa
p473
aVSaviors of Kamigawa
p474
aVSaviors of Kamigawa
p475
aVSaviors of Kamigawa
p476
aVBattle Royale Box Set
p477
aVBattle Royale Box Set
p478
aVBattle Royale Box Set
p479
aVBattle Royale Box Set
p480
aVBattle Royale Box Set
p481
aVMorningtide
p482
aVMagic 2013
p483
aVMagic 2013
p484
aVMagic 2013
p485
aVMagic 2013
p486
aVFourth Edition
p487
aVFourth Edition
p488
aVFourth Edition
p489
aVFourth Edition
p490
aVFourth Edition
p491
aVFourth Edition
p492
aVFourth Edition
p493
aVFourth Edition
p494
aVFourth Edition
p495
aVFourth Edition
p496
aVPlanar Chaos
p497
aVPlanar Chaos
p498
aVPlanar Chaos
p499
aVPlanar Chaos
p500
aVPlanar Chaos
p501
aVPlanar Chaos
p502
aVPlanar Chaos
p503
aVPlanar Chaos
p504
aVCommander's Arsenal
p505
aVDuel Decks: Ajani vs. Nicol Bolas
p506
aVAntiquities
p507
aVAlliances
p508
aVAlliances
p509
aVBorn of the Gods
p510
aVMagic 2010
p511
aVMagic 2010
p512
aVMagic 2010
p513
aVMagic 2010
p514
aVMagic 2014 Core Set
p515
aVMagic 2014 Core Set
p516
aVMagic 2014 Core Set
p517
aVMagic 2014 Core Set
p518
aVTempest
p519
aVTempest
p520
aVTempest
p521
aVTempest
p522
aVTempest
p523
aVTempest
p524
aVTempest
p525
aVTempest
p526
aVTempest
p527
aVTempest
p528
aVTempest
p529
aVTenth Edition
p530
aVTenth Edition
p531
aVTenth Edition
p532
aVTenth Edition
p533
aVTenth Edition
p534
aVMercadian Masques
p535
aVMercadian Masques
p536
aVMercadian Masques
p537
aVVintage Masters
p538
aVVintage Masters
p539
aVVintage Masters
p540
aVVintage Masters
p541
aVVintage Masters
p542
aVVintage Masters
p543
aVVintage Masters
p544
aVVintage Masters
p545
aVModern Masters
p546
aVModern Masters
p547
aVModern Masters
p548
aVModern Masters
p549
aVModern Masters
p550
aVThe Dark
p551
aVThe Dark
p552
aVThe Dark
p553
aVThe Dark
p554
aVThe Dark
p555
aVThe Dark
p556
aVThe Dark
p557
aVMirrodin Besieged
p558
aVMirrodin Besieged
p559
aVMirrodin Besieged
p560
aVApocalypse
p561
aVApocalypse
p562
aVApocalypse
p563
aVMasters Edition III
p564
aVMasters Edition III
p565
aVMasters Edition III
p566
aVRevised Edition
p567
aVRevised Edition
p568
aVRevised Edition
p569
aVRevised Edition
p570
aVRevised Edition
p571
aVRevised Edition
p572
aVRevised Edition
p573
aVMasters Edition II
p574
aVMasters Edition II
p575
aVMasters Edition II
p576
aVGuildpact
p577
aVNinth Edition
p578
aVNinth Edition
p579
aVNinth Edition
p580
aVNinth Edition
p581
aVNinth Edition
p582
aVNinth Edition
p583
aVNinth Edition
p584
aVNinth Edition
p585
aVEventide
p586
aVConflux
p587
aVConflux
p588
aVConflux
p589
aVConflux
p590
aVConflux
p591
aVConflux
p592
aVConflux
p593
aVConflux
p594
aVConflux
p595
aVConflux
p596
aVAvacyn Restored
p597
aVAvacyn Restored
p598
aVAvacyn Restored
p599
aVAvacyn Restored
p600
aVAvacyn Restored
p601
aVAvacyn Restored
p602
aVPlanechase 2012 Edition
p603
aVPlanechase 2012 Edition
p604
aVPlanechase 2012 Edition
p605
aVPlanechase 2012 Edition
p606
aVDuel Decks: Sorin vs. Tibalt
p607
aVDuel Decks: Sorin vs. Tibalt
p608
aVDuel Decks: Sorin vs. Tibalt
p609
aVOnslaught
p610
aVOnslaught
p611
aVFrom the Vault: Realms
p612
aVChampions of Kamigawa
p613
aVChampions of Kamigawa
p614
aVChampions of Kamigawa
p615
aVChampions of Kamigawa
p616
aVBetrayers of Kamigawa
p617
aVBetrayers of Kamigawa
p618
aVBetrayers of Kamigawa
p619
aVBetrayers of Kamigawa
p620
aVUrza's Destiny
p621
aVUrza's Destiny
p622
aVUrza's Destiny
p623
aVUrza's Destiny
p624
aVUrza's Destiny
p625
aVUrza's Destiny
p626
aVUrza's Destiny
p627
aVFrom the Vault: Annihilation (2014)
p628
aVRavnica: City of Guilds
p629
aVRavnica: City of Guilds
p630
aVRavnica: City of Guilds
p631
aVCommander 2013 Edition
p632
aVCommander 2013 Edition
p633
aVCommander 2013 Edition
p634
aVCommander 2013 Edition
p635
aVCommander 2013 Edition
p636
aVOdyssey
p637
aVOdyssey
p638
aVOdyssey
p639
aVOdyssey
p640
aVOdyssey
p641
aVTime Spiral
p642
aVTime Spiral
p643
aVTime Spiral
p644
aVTime Spiral
p645
aVTime Spiral
p646
aVTime Spiral
p647
aVTime Spiral
p648
aVReturn to Ravnica
p649
aVReturn to Ravnica
p650
aVGatecrash
p651
aVGatecrash
p652
aVGatecrash
p653
aVGatecrash
p654
aVGatecrash
p655
aVExodus
p656
aVExodus
p657
aVExodus
p658
aVExodus
p659
aVColdsnap
p660
aVColdsnap
p661
aVColdsnap
p662
aVColdsnap
p663
aVColdsnap
p664
aVColdsnap
p665
aVFrom the Vault: Relics
p666
aVUnlimited Edition
p667
aVUnlimited Edition
p668
aVUnlimited Edition
p669
aVUnlimited Edition
p670
aVUnlimited Edition
p671
aVUnlimited Edition
p672
aVIce Age
p673
aVIce Age
p674
aVIce Age
p675
aVTorment
p676
aVZendikar
p677
aVZendikar
p678
aVZendikar
p679
aVZendikar
p680
aVZendikar
p681
aVZendikar
p682
aVZendikar
p683
aVClassic Sixth Edition
p684
aVClassic Sixth Edition
p685
aVClassic Sixth Edition
p686
aVClassic Sixth Edition
p687
aVClassic Sixth Edition
p688
aVMirrodin
p689
aVMirrodin
p690
aVMirrodin
p691
aVMirrodin
p692
aVDuel Decks: Elspeth vs. Tezzeret
p693
aVShards of Alara
p694
aVShards of Alara
p695
aVShards of Alara
p696
aVShards of Alara
p697
aVShards of Alara
p698
aVSeventh Edition
p699
aVSeventh Edition
p700
aVSeventh Edition
p701
aVSeventh Edition
p702
aVSeventh Edition
p703
aVSeventh Edition
p704
aVSeventh Edition
p705
aVSeventh Edition
p706
aVProphecy
p707
aVProphecy
p708
aVProphecy
p709
aVProphecy
p710
aVMagic 2015 Core Set
p711
aVMagic 2015 Core Set
p712
aVMagic 2015 Core Set
p713
aVMagic 2015 Core Set
p714
aVUrza's Legacy
p715
aVDarksteel
p716
aVDarksteel
p717
aVRise of the Eldrazi
p718
aVRise of the Eldrazi
p719
aVRise of the Eldrazi
p720
aVJudgment
p721
aVPromo set for Gatherer
p722
aVShadowmoor
p723
aVShadowmoor
p724
aVShadowmoor
p725
aVShadowmoor
p726
aVShadowmoor
p727
aVNew Phyrexia
p728
aVNew Phyrexia
p729
aVNew Phyrexia
p730
aVStarter 1999
p731
aVFifth Dawn
p732
aVFifth Dawn
p733
aVFifth Dawn
p734
aVFifth Dawn
p735
aVFuture Sight
p736
aVFuture Sight
p737
aVFuture Sight
p738
aVFuture Sight
p739
aVFuture Sight
p740
aVFuture Sight
p741
aVFuture Sight
p742
aVFuture Sight
p743
aVPortal Second Age
p744
aVPlanechase
p745
aVPlanechase
p746
aVPlanechase
p747
aVLegions
p748
aVLegions
p749
aVLegions
p750
aVUrza's Saga
p751
aVMasters Edition
p752
aVTheros
p753
aVTheros
p754
aVTheros
p755
aVWeatherlight
p756
aVWeatherlight
p757
aVWeatherlight
p758
aVWeatherlight
p759
aVWeatherlight
p760
aVMagic: The Gathering\u2014Conspiracy
p761
aVMagic: The Gathering\u2014Conspiracy
p762
aVMagic: The Gathering\u2014Conspiracy
p763
aVMagic: The Gathering\u2014Conspiracy
p764
aVMagic: The Gathering\u2014Conspiracy
p765
aVMagic: The Gathering\u2014Conspiracy
p766
aVMagic: The Gathering\u2014Conspiracy
p767
aVEighth Edition
p768
aVEighth Edition
p769
aVEighth Edition
p770
aVEighth Edition
p771
aVEighth Edition
p772
aVEighth Edition
p773
aVEighth Edition
p774
aVNemesis
p775
aVNemesis
p776
aVWorldwake
p777
aVWorldwake
p778
aVChronicles
p779
aVInvasion
p780
aVInvasion
p781
aVInvasion
p782
aVInvasion
p783
aVInvasion
p784
aVJourney into Nyx
p785
aVJourney into Nyx
p786
aVJourney into Nyx
p787
aVJourney into Nyx
p788
aVAlara Reborn
p789
aVAlara Reborn
p790
aVAlara Reborn
p791
aVAlara Reborn
p792
aVAlara Reborn
p793
aVAlara Reborn
p794
aVAlara Reborn
p795
aVAlara Reborn
p796
aVAlara Reborn
p797
aVFifth Edition
p798
aVFifth Edition
p799
aVFifth Edition
p800
aVFifth Edition
p801
aVFifth Edition
p802
aVFifth Edition
p803
aVFifth Edition
p804
aVArchenemy
p805
aVArchenemy
p806
aVArchenemy
p807
aVArchenemy
p808
aVArchenemy
p809
aVKhans of Tarkir
p810
aVKhans of Tarkir
p811
aVKhans of Tarkir
p812
aVKhans of Tarkir
p813
aVKhans of Tarkir
p814
aVKhans of Tarkir
p815
aVKhans of Tarkir
p816
aVKhans of Tarkir
p817
aVKhans of Tarkir
p818
aVKhans of Tarkir
p819
aVKhans of Tarkir
p820
aVKhans of Tarkir
p821
aVKhans of Tarkir
p822
aVDuel Decks: Jace vs. Vraska
p823
aVMirage
p824
aVMirage
p825
aVMirage
p826
aVMirage
p827
aVMirage
p828
aVMirage
p829
aVMirage
p830
aVVanguard
p831
aVVanguard
p832
aVVanguard
p833
aVVanguard
p834
aVVanguard
p835
aVVanguard
p836
aVVanguard
p837
aVInnistrad
p838
aVInnistrad
p839
aVInnistrad
p840
aVInnistrad
p841
aVInnistrad
p842
aVInnistrad
p843
aVInnistrad
p844
aVInnistrad
p845
aVInnistrad
p846
aVLimited Edition Alpha
p847
aVLimited Edition Alpha
p848
aVLimited Edition Alpha
p849
aVLimited Edition Alpha
p850
aVLimited Edition Alpha
p851
aVLimited Edition Alpha
p852
aVVisions
p853
aVVisions
p854
aVVisions
p855
aVBeatdown Box Set
p856
aVMasters Edition IV
p857
aVMasters Edition IV
p858
aVMasters Edition IV
p859
aVMasters Edition IV
p860
aVMasters Edition IV
p861
aVMasters Edition IV
p862
aVDragon's Maze
p863
aVDragon's Maze
p864
aVDragon's Maze
p865
aVDragon's Maze
p866
aVDragon's Maze
p867
aVDragon's Maze
p868
aVDragon's Maze
p869
aVDragon's Maze
p870
aVStronghold
p871
aVStronghold
p872
aVLegends
p873
aVLegends
p874
aVLegends
p875
aVLegends
p876
aVLegends
p877
aVDissension
p878
aVDissension
p879
aVDuel Decks: Izzet vs. Golgari
p880
aVLorwyn
p881
aVLorwyn
p882
aVLorwyn
p883
aVLorwyn
p884
aVArabian Nights
p885
aVMagic 2011
p886
aVMagic 2011
p887
aVMagic 2011
p888
aVMagic 2011
p889
aVMagic 2011
p890
aVHomelands
p891
aVHomelands
p892
aVPortal Three Kingdoms
p893
aVPortal Three Kingdoms
p894
aVDuel Decks: Heroes vs. Monsters
p895
aVPortal
p896
aVPlaneshift
p897
aVPlaneshift
p898
aVPlaneshift
p899
aVPlaneshift
p900
aVPlaneshift
p901
aVPlaneshift
p902
aVPlaneshift
p903
aVDark Ascension
p904
aVDark Ascension
p905
aVDark Ascension
p906
asS'ids'
p907
(lp908
V228241
p909
aV247273
p910
aV247179
p911
aV236465
p912
aV236481
p913
aV247384
p914
aV241831
p915
aV235193
p916
aV220162
p917
aV230764
p918
aV228119
p919
aV406
p920
aV407
p921
aV505
p922
aV408
p923
aV325
p924
aV506
p925
aV73991
p926
aV74158
p927
aV74184
p928
aV88802
p929
aV21097
p930
aV21125
p931
aV21138
p932
aV21126
p933
aV21176
p934
aV152546
p935
aV279901
p936
aV253723
p937
aV276205
p938
aV282537
p939
aV2113
p940
aV2230
p941
aV2292
p942
aV2166
p943
aV2167
p944
aV2293
p945
aV2294
p946
aV2168
p947
aV2057
p948
aV2295
p949
aV122324
p950
aV122349
p951
aV122481
p952
aV124507
p953
aV130719
p954
aV131008
p955
aV134741
p956
aV134746
p957
aV338447
p958
aV249375
p959
aV1069
p960
aV3204
p961
aV3203
p962
aV378448
p963
aV191591
p964
aV191397
p965
aV193748
p966
aV191064
p967
aV370599
p968
aV370648
p969
aV370787
p970
aV370708
p971
aV4615
p972
aV4616
p973
aV4672
p974
aV4673
p975
aV4710
p976
aV4830
p977
aV4933
p978
aV4711
p979
aV4886
p980
aV4887
p981
aV4712
p982
aV106555
p983
aV129633
p984
aV130367
p985
aV135218
p986
aV136289
p987
aV19594
p988
aV19748
p989
aV19854
p990
aV383004
p991
aV383005
p992
aV383006
p993
aV383007
p994
aV383008
p995
aV383009
p996
aV383010
p997
aV383011
p998
aV370496
p999
aV370374
p1000
aV370416
p1001
aV370568
p1002
aV370521
p1003
aV1757
p1004
aV1812
p1005
aV1821
p1006
aV1824
p1007
aV1798
p1008
aV1737
p1009
aV1771
p1010
aV213740
p1011
aV214044
p1012
aV221554
p1013
aV25825
p1014
aV26788
p1015
aV29677
p1016
aV201156
p1017
aV201260
p1018
aV201222
p1019
aV1124
p1020
aV1208
p1021
aV1207
p1022
aV1304
p1023
aV1305
p1024
aV1209
p1025
aV1306
p1026
aV184732
p1027
aV184773
p1028
aV184593
p1029
aV107696
p1030
aV83159
p1031
aV83162
p1032
aV83448
p1033
aV84533
p1034
aV83158
p1035
aV83160
p1036
aV83161
p1037
aV83163
p1038
aV142015
p1039
aV185136
p1040
aV179892
p1041
aV185812
p1042
aV189269
p1043
aV180159
p1044
aV182609
p1045
aV186615
p1046
aV178560
p1047
aV179252
p1048
aV179248
p1049
aV240012
p1050
aV240107
p1051
aV279615
p1052
aV240062
p1053
aV240163
p1054
aV240095
p1055
aV265154
p1056
aV271152
p1057
aV271135
p1058
aV270743
p1059
aV368474
p1060
aV368499
p1061
aV368547
p1062
aV39571
p1063
aV41155
p1064
aV287329
p1065
aV50253
p1066
aV75247
p1067
aV79133
p1068
aV79215
p1069
aV74006
p1070
aV74430
p1071
aV74490
p1072
aV74619
p1073
aV13087
p1074
aV15129
p1075
aV15203
p1076
aV15222
p1077
aV15819
p1078
aV15247
p1079
aV15874
p1080
aV386292
p1081
aV83572
p1082
aV83893
p1083
aV83921
p1084
aV376403
p1085
aV376404
p1086
aV376405
p1087
aV376406
p1088
aV376407
p1089
aV29859
p1090
aV29911
p1091
aV30560
p1092
aV31818
p1093
aV30550
p1094
aV106658
p1095
aV113563
p1096
aV126273
p1097
aV126278
p1098
aV126279
p1099
aV126287
p1100
aV126298
p1101
aV253592
p1102
aV253598
p1103
aV366377
p1104
aV366286
p1105
aV366358
p1106
aV366320
p1107
aV366352
p1108
aV6111
p1109
aV6154
p1110
aV6078
p1111
aV6109
p1112
aV121131
p1113
aV121145
p1114
aV121163
p1115
aV121164
p1116
aV121170
p1117
aV121263
p1118
aV212629
p1119
aV708
p1120
aV709
p1121
aV807
p1122
aV710
p1123
aV627
p1124
aV808
p1125
aV2414
p1126
aV2578
p1127
aV2518
p1128
aV29912
p1129
aV180352
p1130
aV190412
p1131
aV195628
p1132
aV190398
p1133
aV186324
p1134
aV177543
p1135
aV191371
p1136
aV14654
p1137
aV14718
p1138
aV15439
p1139
aV15441
p1140
aV16439
p1141
aV46153
p1142
aV48056
p1143
aV48191
p1144
aV46699
p1145
aV222744
p1146
aV175006
p1147
aV175058
p1148
aV175114
p1149
aV175245
p1150
aV175249
p1151
aV13035
p1152
aV25563
p1153
aV25567
p1154
aV25566
p1155
aV25682
p1156
aV15850
p1157
aV12965
p1158
aV15790
p1159
aV24550
p1160
aV24565
p1161
aV24578
p1162
aV24664
p1163
aV383167
p1164
aV383303
p1165
aV383304
p1166
aV383305
p1167
aV9712
p1168
aV43559
p1169
aV49829
p1170
aV193453
p1171
aV193514
p1172
aV193541
p1173
aV34480
p1174
aV97048
p1175
aV141959
p1176
aV141978
p1177
aV146053
p1178
aV146750
p1179
aV153968
p1180
aV230072
p1181
aV233062
p1182
aV233040
p1183
aV21038
p1184
aV51101
p1185
aV51102
p1186
aV51180
p1187
aV72727
p1188
aV130689
p1189
aV136033
p1190
aV136051
p1191
aV136148
p1192
aV136152
p1193
aV136159
p1194
aV136195
p1195
aV126158
p1196
aV6607
p1197
aV205319
p1198
aV205316
p1199
aV205325
p1200
aV42041
p1201
aV42068
p1202
aV42440
p1203
aV8804
p1204
aV159264
p1205
aV373704
p1206
aV373579
p1207
aV373536
p1208
aV4435
p1209
aV4487
p1210
aV4488
p1211
aV4557
p1212
aV4582
p1213
aV382300
p1214
aV382301
p1215
aV382302
p1216
aV382303
p1217
aV382304
p1218
aV382305
p1219
aV382306
p1220
aV45213
p1221
aV45242
p1222
aV45283
p1223
aV45270
p1224
aV45391
p1225
aV45445
p1226
aV45169
p1227
aV21324
p1228
aV21356
p1229
aV194718
p1230
aV198393
p1231
aV2874
p1232
aV23003
p1233
aV23009
p1234
aV23053
p1235
aV23102
p1236
aV23072
p1237
aV380452
p1238
aV380453
p1239
aV380454
p1240
aV380455
p1241
aV180625
p1242
aV179540
p1243
aV180613
p1244
aV179567
p1245
aV179591
p1246
aV179585
p1247
aV183014
p1248
aV179584
p1249
aV180620
p1250
aV3923
p1251
aV4070
p1252
aV3922
p1253
aV4069
p1254
aV3800
p1255
aV4071
p1256
aV3998
p1257
aV220509
p1258
aV220569
p1259
aV220529
p1260
aV220510
p1261
aV212606
p1262
aV386589
p1263
aV386590
p1264
aV386591
p1265
aV386592
p1266
aV386593
p1267
aV386594
p1268
aV386595
p1269
aV386596
p1270
aV386597
p1271
aV386598
p1272
aV386599
p1273
aV386600
p1274
aV386601
p1275
aV380238
p1276
aV3257
p1277
aV3500
p1278
aV3501
p1279
aV3543
p1280
aV3256
p1281
aV3258
p1282
aV3397
p1283
aV198628
p1284
aV198627
p1285
aV182262
p1286
aV4964
p1287
aV182297
p1288
aV205956
p1289
aV193853
p1290
aV222193
p1291
aV222916
p1292
aV227083
p1293
aV249976
p1294
aV226754
p1295
aV221193
p1296
aV237356
p1297
aV246952
p1298
aV222189
p1299
aV111
p1300
aV112
p1301
aV210
p1302
aV113
p1303
aV30
p1304
aV211
p1305
aV3597
p1306
aV3598
p1307
aV3644
p1308
aV26608
p1309
aV228263
p1310
aV228271
p1311
aV202538
p1312
aV233297
p1313
aV220946
p1314
aV201263
p1315
aV368981
p1316
aV368994
p1317
aV369050
p1318
aV369091
p1319
aV369014
p1320
aV369076
p1321
aV368976
p1322
aV369038
p1323
aV5183
p1324
aV5182
p1325
aV1412
p1326
aV1413
p1327
aV1491
p1328
aV1534
p1329
aV1670
p1330
aV111259
p1331
aV97116
p1332
aV338470
p1333
aV139670
p1334
aV139705
p1335
aV139708
p1336
aV140184
p1337
aV963
p1338
aV208003
p1339
aV204981
p1340
aV208007
p1341
aV205040
p1342
aV204977
p1343
aV2948
p1344
aV2973
p1345
aV10547
p1346
aV10729
p1347
aV373400
p1348
aV4266
p1349
aV25870
p1350
aV25934
p1351
aV25944
p1352
aV26277
p1353
aV26381
p1354
aV26397
p1355
aV26266
p1356
aV249419
p1357
aV262693
p1358
aV244712
p1359
asS'texts'
p1360
(lp1361
VAt the beginning of each upkeep, Magmatic Force deals 3 damage to target creature or player.
p1362
aVAt the beginning of each player's precombat main phase, add {G}{G} to that player's mana pool.
p1363
aVFlying<br>When Malfegor enters the battlefield, discard your hand. Each opponent sacrifices a creature for each card discarded this way.
p1364
aVFlying, trample<br>Join forces- Whenever Mana-Charged Dragon attacks or blocks, each player starting with you may pay any amount of mana. Mana-Charged Dragon gets +X/+0 until end of turn, where X is the total amount of mana paid this way.
p1365
aVWhenever Martyr's Bond or another nonland permanent you control is put into a graveyard from the battlefield, each opponent sacrifices a permanent that shares a card type with it.
p1366
aVCast Master Warcraft only before attackers are declared.<br>You choose which creatures attack this turn.<br>You choose which creatures block this turn and how those creatures block.
p1367
aV{U}, {T}: Target player puts the top two cards of his or her library into his or her graveyard.
p1368
aVWhenever you cast an enchantment spell, you may draw a card.
p1369
aVTarget creature gets +2/+2 and gains flying until end of turn.
p1370
aVEnchant creature<br>You control enchanted creature.
p1371
aVTarget player discards two cards.
p1372
aVR
p1373
aV{T}: Add {G} to your mana pool.
p1374
aV{T}: Add {W} to your mana pool.
p1375
aV{T}: Add {U} to your mana pool.
p1376
aVLook at the top three cards of target player's library, then put them back in any order. You may have that player shuffle his or her library.
p1377
aVHaste<br>At the beginning of your upkeep, if Nether Shadow is in your graveyard with three or more creature cards above it, you may put Nether Shadow onto the battlefield.
p1378
aVWhenever Matsu-Tribe Birdstalker deals combat damage to a creature, tap that creature and it doesn't untap during its controller's next untap step.<br>{G}: Matsu-Tribe Birdstalker gains reach until end of turn. <i>(It can block creatures with flying.)</i>
p1379
aVEquipped creature gets +1/+2 and has "{T}: Destroy target Equipment."<br>Equip {1} <i>({1}: Attach to target creature you control. Equip only as a sorcery.)</i>
p1380
aVMasumaro, First to Live's power and toughness are each equal to twice the number of cards in your hand.
p1381
aVMaga, Traitor to Mortals enters the battlefield with X +1/+1 counters on it.<br>When Maga enters the battlefield, target player loses life equal to the number of +1/+1 counters on it.
p1382
aVEnchant creature<br>Enchanted creature gets +2/+2 and can't block.
p1383
aV{U}: Manta Riders gains flying until end of turn.
p1384
aVWhen Man-o'-War enters the battlefield, return target creature to its owner's hand.
p1385
aV{W}, {T}: Tap target creature.
p1386
ag1373
aVPlayers can't draw cards.<br>At the beginning of each player's draw step, that player loses 3 life, searches his or her library for a card, puts it into his or her hand, then shuffles his or her library.
p1387
aVYou may cast nonland cards from your hand without paying their mana costs.
p1388
aVFlying<br>Exalted <i>(Whenever a creature you control attacks alone, that creature gets +1/+1 until end of turn.)</i><br>Whenever Nefarox, Overlord of Grixis attacks alone, defending player sacrifices a creature.
p1389
aVFlying<br>Slumbering Dragon can't attack or block unless it has five or more +1/+1 counters on it.<br>Whenever a creature attacks you or a planeswalker you control, put a +1/+1 counter on Slumbering Dragon.
p1390
aVDestroy target artifact.
p1391
aVAll creatures get -2/-0 until end of turn.
p1392
aVWhenever Nafs Asp deals damage to a player, that player loses 1 life at the beginning of his or her next draw step unless he or she pays {1} before that draw step.
p1393
aV{T}: Add {R} to your mana pool.
p1394
aVTarget player discards X cards at random.
p1395
aV{T}: Add {1} to your mana pool.<br>{1}: Mishra's Factory becomes a 2/2 Assembly-Worker artifact creature until end of turn. It's still a land.<br>{T}: Target Assembly-Worker creature gets +1/+1 until end of turn.
p1396
ag1373
ag1373
ag1373
aVWhenever Murk Dwellers attacks and isn't blocked, it gets +2/+0 until end of combat.
p1397
aVHaste<br>At the beginning of your upkeep, if Nether Shadow is in your graveyard with three or more creature cards above it, you may put Nether Shadow onto the battlefield.
p1398
aVCounter target spell unless its controller pays {1}.
p1399
aVFlash <i>(You may cast this spell any time you could cast an instant.)</i><br>Enchant creature<br>Whenever a creature enters the battlefield, enchanted creature gets +2/+2 until end of turn.
p1400
aVFlying<br>{W}{W}{W}: Regenerate Malach of the Dawn.
p1401
aV{2}, {T}: Add {B} to your mana pool for each Swamp you control.
p1402
aVAll creatures have "At the beginning of your upkeep, sacrifice this creature unless you pay {1}."
p1403
aV{T}: Draw two cards, then discard three cards.
p1404
aV{T}: Add {1} to your mana pool.<br>{T}: Draw a card. Activate this ability only if you have exactly seven cards in hand.
p1405
aV{3}, {T}: Tap target creature you control and target creature of an opponent's choice he or she controls. Those creatures fight each other. <i>(Each deals damage equal to its power to the other.)</i>
p1406
aVCreatures you control have haste.<br>Cascade, cascade <i>(When you cast this spell, exile cards from the top of your library until you exile a nonland card that costs less. You may cast it without paying its mana cost. Put the exiled cards on the bottom in a random order. Then do it again.)</i>
p1407
aVDouble strike
p1408
aVAs long as Martyrs of Korlis is untapped, all damage that would be dealt to you by artifacts is dealt to Martyrs of Korlis instead.
p1409
aV{1}{W}: Target creature gains first strike until end of turn.
p1410
aV{1}{W}: Target creature gains first strike until end of turn.
p1411
aVHeroic- Whenever you cast a spell that targets Mindreaver, exile the top three cards of target player's library.<br>{U}{U}, Sacrifice Mindreaver: Counter target spell with the same name as a card exiled with Mindreaver.
p1412
aVTarget creature gets +7/+7 until end of turn.
p1413
aVEnchant creature<br>You control enchanted creature.
p1414
aVTarget player discards two cards.
p1415
aVTarget player discards X cards at random.
p1416
aVSliver creatures you control get +3/+3.
p1417
aVIslandwalk <i>(This creature can't be blocked as long as defending player controls an Island.)</i><br>Whenever Merfolk Spy deals combat damage to a player, that player reveals a card at random from his or her hand.
p1418
aVFlying<br>When Messenger Drake dies, draw a card.
p1419
aV{2}, {T}: Target player puts the top two cards of his or her library into his or her graveyard.
p1420
aVIf a creature with a magnet counter on it attacks, all creatures with magnet counters on them attack if able.<br>Whenever a creature with a magnet counter on it attacks, all creatures with magnet counters on them block that creature this turn if able.<br>{1}, {T}: Put a magnet counter on target creature.
p1421
aV{T}: Add {1} to your mana pool.
p1422
aVSacrifice a Swamp: Marsh Lurker gains fear until end of turn. <i>(It can't be blocked except by artifact creatures and/or black creatures.)</i>
p1423
aVAll Slivers have "{2}, Sacrifice this permanent: Target player discards a card at random. Activate this ability only any time you could cast a sorcery."
p1424
aVDraw four cards. You skip your next turn.
p1425
aVMogg Conscripts can't attack unless you've cast a creature spell this turn.
p1426
aVPine Barrens enters the battlefield tapped.<br>{T}: Add {1} to your mana pool.<br>{T}: Add {B} or {G} to your mana pool. Pine Barrens deals 1 damage to you.
p1427
aVFlying<br><br>{T}: Mawcor deals 1 damage to target creature or player.
p1428
aVSacrifice Mogg Fanatic: Mogg Fanatic deals 1 damage to target creature or player.
p1429
aV{T}: Add {1} to your mana pool.<br>{T}: Add {R} or {G} to your mana pool. Mogg Hollows doesn't untap during your next untap step.
p1430
ag1373
aVEach noncreature artifact is an artifact creature with power and toughness each equal to its converted mana cost. <i>(Equipment that's a creature can't equip a creature.)</i>
p1431
aVChange the text of target permanent by replacing all instances of one color word with another or one basic land type with another. <i>(For example, you may change "nonblack creature" to "nongreen creature" or "forestwalk" to "islandwalk." This effect lasts indefinitely.)</i>
p1432
aVWhenever Goblin Elite Infantry blocks or becomes blocked, it gets -1/-1 until end of turn.
p1433
aVRelentless Rats gets +1/+1 for each other creature on the battlefield named Relentless Rats.<br>A deck can have any number of cards named Relentless Rats.
p1434
ag1373
aVIf you control a Swamp, you may pay 4 life rather than pay Snuff Out's mana cost.<br><br>Destroy target nonblack creature. It can't be regenerated.
p1435
aV{4}, {T}: Flip a coin. If you win the flip, destroy target creature an opponent controls. If you lose the flip, destroy target creature you control unless you pay {3} and repeat this process.
p1436
aV{2}: Squallmonger deals 1 damage to each creature with flying and each player. Any player may activate this ability.
p1437
aVCounter target spell. At the beginning of your next main phase, add {X} to your mana pool, where X is that spell's converted mana cost.
p1438
aV{T}: Add {1} to your mana pool.<br><br>{1}, {T}: Add one mana of any color to your mana pool.
p1439
aVMana Vault doesn't untap during your untap step.<br>At the beginning of your upkeep, you may pay {4}. If you do, untap Mana Vault.<br>At the beginning of your draw step, if Mana Vault is tapped, it deals 1 damage to you.<br>{T}: Add {3} to your mana pool.
p1440
aVWhen Man-o'-War enters the battlefield, return target creature to its owner's hand.
p1441
aVDethrone <i>(Whenever this creature attacks the player with the most life or tied for most life, put a +1/+1 counter on it.)</i><br>Other creatures you control have dethrone.<br>Whenever a creature you control with a +1/+1 counter on it dies, return that card to the battlefield under your control at the beginning of the next end step.
p1442
aVAt the beginning of your upkeep, sacrifice Masticore unless you discard a card.<br>{2}: Masticore deals 1 damage to target creature.<br>{2}: Regenerate Masticore.
p1443
aV{T}, Sacrifice Memory Jar: Each player exiles all cards from his or her hand face down and draws seven cards. At the beginning of the next end step, each player discards his or her hand and returns to his or her hand each card he or she exiled this way.
p1444
aVWhen Mesmeric Fiend enters the battlefield, target opponent reveals his or her hand and you choose a nonland card from it. Exile that card.<br>When Mesmeric Fiend leaves the battlefield, return the exiled card to its owner's hand.
p1445
aVOther Goblin creatures you control get +1/+1.<br>{T}: Regenerate another target Goblin.
p1446
aVFlying<br>When Marsh Flitter enters the battlefield, put two 1/1 black Goblin Rogue creature tokens onto the battlefield.<br>Sacrifice a Goblin: Marsh Flitter becomes 3/3 until end of turn.
p1447
aVWhen Masked Admirers enters the battlefield, draw a card.<br>Whenever you cast a creature spell, you may pay {G}{G}. If you do, return Masked Admirers from your graveyard to your hand.
p1448
aVAdd two mana in any combination of colors to your mana pool.<br>Draw a card.
p1449
aVDestroy target nonland permanent and all other permanents with the same name as that permanent.
p1450
aVWhen you cast Mana Vortex, counter it unless you sacrifice a land.<br>At the beginning of each player's upkeep, that player sacrifices a land.<br>When there are no lands on the battlefield, sacrifice Mana Vortex.
p1451
aVExile all white creatures. For each creature exiled this way, its controller draws a card.
p1452
aVCounts as both a green card and a red card.
p1453
aV{2}, {T}: Exile target creature you control.<br>At the beginning of your upkeep, you may sacrifice Safe Haven. If you do, return each card exiled with Safe Haven to the battlefield under its owner's control.
p1454
aVWhenever Marsh Viper deals damage to a player, that player gets two poison counters. <i>(A player with ten or more poison counters loses the game.)</i>
p1455
aVEach player may discard up to three cards. Mind Bomb deals damage to each player equal to 3 minus the number of cards he or she discarded this way.
p1456
aVAttacking creatures get +1/+1 until end of turn.
p1457
aVWhen Massacre Wurm enters the battlefield, creatures your opponents control get -2/-2 until end of turn.<br>Whenever a creature an opponent controls dies, that player loses 2 life.
p1458
aVPut two 1/1 colorless Myr artifact creature tokens onto the battlefield.
p1459
aVMelira's Keepers can't have counters placed on it.
p1460
aVPay 2 life: Prevent the next 1 damage that would be dealt to target creature this turn.
p1461
aVEnchant creature<br>Enchanted creature can't attack.<br>{B}: Enchanted creature gets -1/-1 until end of turn.<br>{R}: Enchanted creature can't block this turn.
p1462
aVAt the beginning of each player's upkeep, if there are four or more basic land types among lands that player controls, Mask of Intolerance deals 3 damage to him or her.
p1463
ag1373
ag1373
ag1373
aVMana Vault doesn't untap during your untap step.<br>At the beginning of your upkeep, you may pay {4}. If you do, untap Mana Vault.<br>At the beginning of your draw step, if Mana Vault is tapped, it deals 1 damage to you.<br>{T}: Add {3} to your mana pool.
p1464
aVEnchant land<br>As Phantasmal Terrain enters the battlefield, choose a basic land type.<br>Enchanted land is the chosen type.
p1465
aVHaste<br>At the beginning of your upkeep, if Nether Shadow is in your graveyard with three or more creature cards above it, you may put Nether Shadow onto the battlefield.
p1466
aVNevinyrral's Disk enters the battlefield tapped.<br>{1}, {T}: Destroy all artifacts, creatures, and enchantments.
p1467
aVFlying<br>Nightmare's power and toughness are each equal to the number of Swamps you control.
p1468
aV{W}{W}, {T}: Destroy target black permanent.
p1469
aVWhen Onulet dies, you gain 2 life.
p1470
aVMarjhan doesn't untap during your untap step.<br>{U}{U}, Sacrifice a creature: Untap Marjhan. Activate this ability only during your upkeep.<br>Marjhan can't attack unless defending player controls an Island.<br>{U}{U}: Marjhan gets -1/-0 until end of turn and deals 1 damage to target attacking creature without flying.<br>When you control no Islands, sacrifice Marjhan.
p1471
aVCumulative upkeep {1} <i>(At the beginning of your upkeep, put an age counter on this permanent, then sacrifice it unless you pay its upkeep cost for each age counter on it.)</i><br>{U}, Discard a card: Draw a card.
p1472
aVMeteor Shower deals X plus 1 damage divided as you choose among any number of target creatures and/or players.
p1473
aVIf Leyline of Singularity is in your opening hand, you may begin the game with it on the battlefield.<br>All nonland permanents are legendary.
p1474
aVPut target card from your graveyard on top of your library.
p1475
aVWhen Rukh Egg dies, put a 4/4 red Bird creature token with flying onto the battlefield at the beginning of the next end step.
p1476
aV{T}: Add {2} to your mana pool.
p1477
aVVigilance <i>(Attacking doesn't cause this creature to tap.)</i>
p1478
aVFlying<br>Nightmare's power and toughness are each equal to the number of Swamps you control.
p1479
aVOgre Taskmaster can't block.
p1480
aV{T}: All damage that would be dealt to target creature this turn by a source of your choice is dealt to Oracle's Attendants instead.
p1481
aV{T}: Orcish Artillery deals 2 damage to target creature or player and 3 damage to you.
p1482
aVWhen Marshdrinker Giant enters the battlefield, destroy target Island or Swamp an opponent controls.
p1483
aVFlying<br>When Malfegor enters the battlefield, discard your hand. Each opponent sacrifices a creature for each card discarded this way.
p1484
aV{1}, {T}: Add one mana of any color to your mana pool.
p1485
aVDomain- Equipped creature gets +1/+1 for each basic land type among lands you control.<br>Equip {3}
p1486
aVEnchant creature<br>Enchanted creature gets +2/+2 and can't block.
p1487
aVPrevent all noncombat damage that would be dealt to creatures you control.
p1488
aVPut X 1/1 white Soldier creature tokens onto the battlefield. If X is 5 or more, destroy all other creatures.
p1489
aV{U}, {T}, Return an artifact you control to its owner's hand: You may put an artifact card from your hand onto the battlefield.
p1490
aVDomain- Matca Rioters's power and toughness are each equal to the number of basic land types among lands you control.
p1491
aVVigilance, trample<br>Whenever Meglonoth blocks a creature, Meglonoth deals damage to that creature's controller equal to Meglonoth's power.
p1492
aVDomain- Target creature gets +1/+1 until end of turn for each basic land type among lands you control.
p1493
aVHaste<br>{T}, Discard a card: Draw a card.
p1494
aVEnchant creature<br>Enchanted creature has "{T}: Target creature can't block this turn."
p1495
aVMalignus's power and toughness are each equal to half the highest life total among your opponents, rounded up.<br>Damage that would be dealt by Malignus can't be prevented.
p1496
aVFlying<br>Pay 4 life: Regenerate Marrow Bats.
p1497
aVDraw a card for each Human you control.
p1498
aVTarget player discards two cards and loses 2 life.
p1499
aVEnchant creature<br>Enchanted creature gets +3/+3 and has vigilance.<br>Totem armor <i>(If enchanted creature would be destroyed, instead remove all damage from it and destroy this Aura.)</i>
p1500
aVGain control of target creature until end of turn. Put a +1/+1 counter on it and untap it. That creature gains haste until end of turn.
p1501
aVFor each opponent, gain control of up to one target creature that player controls until end of turn. Untap those creatures. They gain haste until end of turn.
p1502
aVNinjutsu {U} <i>({U}, Return an unblocked attacker you control to hand: Put this card onto the battlefield from your hand tapped and attacking.)</i><br>Whenever Mistblade Shinobi deals combat damage to a player, you may return target creature that player controls to its owner's hand.
p1503
aVHaste<br>{T}, Discard a card: Draw a card.
p1504
aVEnchant creature<br>Enchanted creature gets +2/+2 and has lifelink. <i>(Damage dealt by the creature also causes its controller to gain that much life.)</i>
p1505
aVWhen Mausoleum Guard dies, put two 1/1 white Spirit creature tokens with flying onto the battlefield.
p1506
aVWhenever a creature enters the battlefield, you may add {X} to your mana pool, where X is the number of creatures you control that share a creature type with it.
p1507
aVTarget creature gains shroud until end of turn. <i>(It can't be the target of spells or abilities.)</i><br>Cycling {U} <i>({U}, Discard this card: Draw a card.)</i>
p1508
aV{T}: Untap target attacking creature. Prevent all combat damage that would be dealt to and dealt by that creature this turn.
p1509
aVRat creatures have fear. <i>(They can't be blocked except by artifact creatures and/or black creatures.)</i><br>{T}, Sacrifice a Rat: Put X 1/1 black Rat creature tokens onto the battlefield, where X is the number of Rats you control.
p1510
aVName a nonland card and choose a number greater than 0. Target player reveals his or her library. If that library contains exactly the chosen number of the named card, Mindblaze deals 8 damage to that player. Then that player shuffles his or her library.
p1511
aVMountainwalk
p1512
aVTap an untapped creature you control: Target player puts the top card of his or her library into his or her graveyard.
p1513
aVEnchant creature<br>You control enchanted creature.<br>At the beginning of the end step, if you control no Demons, sacrifice Mark of the Oni.
p1514
aVEnchant creature<br>Enchanted creature has "Whenever this creature deals combat damage to a player, add that much {G} to your mana pool. Until end of turn, this mana doesn't empty from your mana pool as steps and phases end."
p1515
aV{W}, {T}: Prevent the next 2 damage that would be dealt to target creature or player this turn.
p1516
aVSacrifice Frostling: Frostling deals 1 damage to target creature.
p1517
aVAt the beginning of your upkeep, sacrifice Masticore unless you discard a card.<br>{2}: Masticore deals 1 damage to target creature.<br>{2}: Regenerate Masticore.
p1518
aVEnchant creature<br>Enchanted creature has protection from black and from red.
p1519
aVEnchant creature<br>Enchanted creature has haste.<br>At the beginning of the end step, return Mark of Fury to its owner's hand.
p1520
aVWhen Marker Beetles dies, target creature gets +1/+1 until end of turn.<br>{2}, Sacrifice Marker Beetles: Draw a card.
p1521
aVAll creatures get +1/+1 until end of turn.
p1522
aV{2}: Mantis Engine gains flying until end of turn. <i>(It can't be blocked except by creatures with flying or reach.)</i><br>{2}: Mantis Engine gains first strike until end of turn. <i>(It deals combat damage before creatures without first strike.)</i>
p1523
aV{T}: Prevent the next 4 damage that would be dealt to target creature or player this turn.
p1524
aVPut X 1/1 white Soldier creature tokens onto the battlefield. If X is 5 or more, destroy all other creatures.
p1525
aVCast Master Warcraft only before attackers are declared.<br>You choose which creatures attack this turn.<br>You choose which creatures block this turn and how those creatures block.
p1526
aVPlay with the top card of your library revealed.<br>As long as the top card of your library is a creature card, creatures you control that share a color with that card get +1/+1.<br>{G}{W}: Put the top card of your library on the bottom of your library.
p1527
aV<i>({B/G} can be paid with either {B} or {G}.)</i><br>Regenerate target creature. At end of combat, destroy all creatures that blocked or were blocked by that creature this turn.
p1528
aV{3}, {T}: Tap target creature you control and target creature of an opponent's choice he or she controls. Those creatures fight each other. <i>(Each deals damage equal to its power to the other.)</i>
p1529
aVMarath, Will of the Wild enters the battlefield with a number of +1/+1 counters on it equal to the amount of mana spent to cast it.<br>{X}, Remove X +1/+1 counters from Marath: Choose one- Put X +1/+1 counters on target creature; or Marath deals X damage to target creature or player; or put an X/X green Elemental creature token onto the battlefield. X can't be 0.
p1530
aVFlying<br>Pay 4 life: Regenerate Marrow Bats.
p1531
aVFor each opponent, gain control of up to one target creature that player controls until end of turn. Untap those creatures. They gain haste until end of turn.
p1532
aV{3}{R}{G}{W}, {T}: Look at the top five cards of your library. You may put a creature card with power 5 or greater from among them onto the battlefield. Put the rest on the bottom of your library in any order.
p1533
aVShower of Coals deals 2 damage to each of up to three target creatures and/or players.<br>Threshold- Shower of Coals deals 4 damage to each of those creatures and/or players instead if seven or more cards are in your graveyard.
p1534
aVPlainswalk<br>Whenever Graceful Antelope deals combat damage to a player, you may have target land become a Plains until Graceful Antelope leaves the battlefield.
p1535
aVReach <i>(This creature can block creatures with flying.)</i><br>{T}, Sacrifice Skyshooter: Destroy target attacking or blocking creature with flying.
p1536
aVEach player chooses a number of permanents he or she controls equal to the number of permanents controlled by the player who controls the fewest, then sacrifices the rest. Each player discards cards the same way.
p1537
aVWhen Mindslicer dies, each player discards his or her hand.
p1538
aVFlying<br>Whenever Mana Skimmer deals damage to a player, tap target land that player controls. That land doesn't untap during its controller's next untap step.
p1539
aV{T}: Exile Mangara of Corondor and target permanent.
p1540
aVSplit second <i>(As long as this spell is on the stack, players can't cast spells or activate abilities that aren't mana abilities.)</i><br>Destroy target artifact or enchantment.
p1541
aV{3}, {T}: Name a card. Reveal a card at random from your hand. If it's the named card, Magus of the Scroll deals 2 damage to target creature or player.
p1542
aVEnchant creature<br>Enchanted creature gets +2/+2 and can't block.<br>When Undying Rage is put into a graveyard from the battlefield, return Undying Rage to its owner's hand.
p1543
aVDamage that would reduce your life total to less than 1 reduces it to 1 instead.<br>Morph {R}{R} <i>(You may cast this face down as a 2/2 creature for {3}. Turn it face up any time for its morph cost.)</i>
p1544
aVNon-Eye creatures you control can't attack.<br>Whenever Evil Eye of Urborg becomes blocked by a creature, destroy that creature.
p1545
aVFirst strike, haste
p1546
aVMizzium Mortars deals 4 damage to target creature you don't control.<br>Overload {3}{R}{R}{R} <i>(You may cast this spell for its overload cost. If you do, change its text by replacing all instances of "target" with "each.")</i>
p1547
aVTarget creature an opponent controls blocks this turn if able. Untap that creature. Other creatures that player controls can't block this turn.
p1548
aVTarget creature gets +3/+0 until end of turn.<br>Target creature gets +0/+3 until end of turn.
p1549
aVMassive Raid deals damage to target creature or player equal to the number of creatures you control.
p1550
aVEach other creature you control enters the battlefield with a number of additional +1/+1 counters on it equal to Master Biomancer's power and as a Mutant in addition to its other types.
p1551
aVTarget player discards a card.<br>Cipher <i>(Then you may exile this spell card encoded on a creature you control. Whenever that creature deals combat damage to a player, its controller may cast a copy of the encoded card without paying its mana cost.)</i>
p1552
aV{T}, Discard a card at random: Mage il-Vec deals 1 damage to target creature or player.
p1553
aVAt the beginning of your end step, you may reveal your hand and put all land cards from it onto the battlefield. If you do, discard your hand.
p1554
aVWhenever a player casts a spell, that player returns a land he or she controls to its owner's hand.
p1555
aVEnchant creature<br>Enchanted creature gets +2/+2 and can't block.
p1556
aV{1}, Reveal X black cards from your hand, Sacrifice Martyr of Bones: Exile up to X target cards from a single graveyard.
p1557
aV{1}, Reveal X green cards from your hand, Sacrifice Martyr of Spores: Target creature gets +X/+X until end of turn.
p1558
aVCumulative upkeep {1} <i>(At the beginning of your upkeep, put an age counter on this permanent, then sacrifice it unless you pay its upkeep cost for each age counter on it.)</i><br>At the beginning of your end step, Magmatic Core deals X damage divided as you choose among any number of target creatures, where X is the number of age counters on it.
p1559
aV{2}, Reveal X blue cards from your hand, Sacrifice Martyr of Frost: Counter target spell unless its controller pays {X}.
p1560
aV{2}, Reveal X red cards from your hand, Sacrifice Martyr of Ashes: Martyr of Ashes deals X damage to each creature without flying.
p1561
aVTrample<br>While you're searching your library, you may cast Panglacial Wurm from your library.
p1562
aVAt the beginning of your upkeep, sacrifice Masticore unless you discard a card.<br>{2}: Masticore deals 1 damage to target creature.<br>{2}: Regenerate Masticore.
p1563
aV{T}: Add {G} to your mana pool.
p1564
aV{T}: Add {B} to your mana pool.
p1565
aV{T}: Add {W} to your mana pool.
p1566
aV{T}: Add {R} to your mana pool.
p1567
aV{T}: Add {U} to your mana pool.
p1568
aVLook at the top three cards of target player's library, then put them back in any order. You may have that player shuffle his or her library.
p1569
aVWhenever a player casts a green spell, you may pay {3}. If you do, untap target permanent.
p1570
aVIslandwalk
p1571
aVYou may choose not to untap Mole Worms during your untap step.<br>{T}: Tap target land. It doesn't untap during its controller's untap step for as long as Mole Worms remains tapped.
p1572
aVFlying<br>{3}{W}{W}, Sacrifice Major Teroh: Exile all black creatures.
p1573
aVMagosi, the Waterveil enters the battlefield tapped.<br>{T}: Add {U} to your mana pool.<br>{U}, {T}: Put an eon counter on Magosi, the Waterveil. Skip your next turn.<br>{T}, Remove an eon counter from Magosi, the Waterveil and return it to its owner's hand: Take an extra turn after this one.
p1574
aVDefender<br>Whenever Makindi Shieldmate or another Ally enters the battlefield under your control, you may put a +1/+1 counter on Makindi Shieldmate.
p1575
aVFlying, protection from white<br>When Malakir Bloodwitch enters the battlefield, each opponent loses life equal to the number of Vampires you control. You gain life equal to the life lost this way.
p1576
aVGain control of target creature until end of turn. Put a +1/+1 counter on it and untap it. That creature gains haste until end of turn.
p1577
aVKicker {3} <i>(You may pay an additional {3} as you cast this spell.)</i><br>Creatures target player controls get -1/-1 until end of turn. If Marsh Casualties was kicked, those creatures get -2/-2 until end of turn instead.
p1578
aV{T}, Pay 1 life, Sacrifice Marsh Flats: Search your library for a Plains or Swamp card and put it onto the battlefield. Then shuffle your library.
p1579
aVIslandwalk<br>{2}{U}: Tap target creature without flying.
p1580
aVUntap all creatures you control.
p1581
aVUktabi Wildcats's power and toughness are each equal to the number of Forests you control.<br>{G}, Sacrifice a Forest: Regenerate Uktabi Wildcats.
p1582
aVRed spells cost {2} more to cast.
p1583
aVFlying<br>{1}{W}: Pearl Dragon gets +0/+1 until end of turn.
p1584
aVEach player draws a card for each creature card in his or her graveyard.
p1585
aVWhenever equipped creature deals combat damage to a player, you may draw two cards. If you do, discard a card.<br>Equip {1} <i>({1}: Attach to target creature you control. Equip only as a sorcery. This card enters the battlefield unattached and stays on the battlefield if the creature leaves.)</i>
p1586
aV{1}{G}: Malachite Golem gains trample until end of turn.
p1587
aVAll creatures have haste.
p1588
ag1373
aV{T}: Add {1} to your mana pool.<br>{1}: Mishra's Factory becomes a 2/2 Assembly-Worker artifact creature until end of turn. It's still a land.<br>{T}: Target Assembly-Worker creature gets +1/+1 until end of turn.
p1589
aVIf a creature would enter the battlefield under an opponent's control this turn, it enters the battlefield under your control instead.
p1590
aVDevour 2 <i>(As this enters the battlefield, you may sacrifice any number of creatures. This creature enters the battlefield with twice that many +1/+1 counters on it.)</i><br>{G}: Thorn-Thrash Viashino gains trample until end of turn.
p1591
aVFirst strike<br>Shroud <i>(This creature can't be the target of spells or abilities.)</i>
p1592
aVCycling {2} <i>({2}, Discard this card: Draw a card.)</i>
p1593
aVReach <i>(This can block creatures with flying.)</i><br>Cycling {2} <i>({2}, Discard this card: Draw a card.)</i>
p1594
aVFlying
p1595
aVWhenever you cast a creature spell, you may pay {1}. If you do, return target creature to its owner's hand.
p1596
aVTreefolk Seedlings's toughness is equal to the number of Forests you control.
p1597
aVAll creatures get -1/-1 until end of turn.
p1598
aVFlying<br>Nightmare's power and toughness are each equal to the number of Swamps you control.
p1599
aV{W}{W}, {T}: Destroy target black permanent.
p1600
aVOgre Taskmaster can't block.
p1601
aV{T}: Orcish Artillery deals 2 damage to target creature or player and 3 damage to you.
p1602
aVFlash<br>Enchant creature<br>Enchanted creature gets +1/+2.
p1603
aV{2}{W}{W}, {T}, Discard two cards: Destroy all creatures except for Mageta the Lion. Those creatures can't be regenerated.
p1604
aVLands target player controls don't untap during his or her next untap step.
p1605
aVSwampwalk
p1606
aVConvoke <i>(Your creatures can help cast this spell. Each creature you tap while casting this spell pays for {1} or one mana of that creature's color.)</i><br>You gain 8 life.
p1607
aVYou may have Mercurial Pretender enter the battlefield as a copy of any creature you control except it gains "{2}{U}{U}: Return this creature to its owner's hand."
p1608
aVWhen Meteorite enters the battlefield, it deals 2 damage to target creature or player.<br>{T}: Add one mana of any color to your mana pool.
p1609
aVWhenever another creature enters the battlefield, untap Midnight Guard.
p1610
aVSacrifice a creature: The next time a source of your choice would deal damage to target creature or player this turn, prevent that damage.
p1611
aVArtifact creatures you control gain flying until end of turn.
p1612
aVLook at the top X cards of your library, where X is the number of artifacts you control. Put one of those cards into your hand and the rest on the bottom of your library in any order.
p1613
aVWhen Merfolk Observer enters the battlefield, look at the top card of target player's library.
p1614
aVFlying<br>Whenever Merfolk Skyscout attacks or blocks, untap target permanent.
p1615
aVTarget creature gets +1/+1 until end of turn for each creature you control.
p1616
aVGreen creatures and white creatures have protection from Gorgons.<br>Threshold- Masked Gorgon has protection from green and from white as long as seven or more cards are in your graveyard.
p1617
aVAt the beginning of your upkeep, flip a coin. If you lose the flip, Mana Crypt deals 3 damage to you.<br>{T}: Add {2} to your mana pool.
p1618
aV<i>({T}: Add {R} to your mana pool.)</i><br>Madblind Mountain enters the battlefield tapped.<br>{R}, {T}: Shuffle your library. Activate this ability only if you control two or more red permanents.
p1619
aV{1}: Add {B} or {R} to your mana pool. Activate this ability no more than three times each turn.
p1620
aVHaste<br>Mudbrawler Cohort gets +1/+1 as long as you control another red creature.
p1621
aV{T}: Add {1} to your mana pool.<br>{R/G}, {T}: Add {R}{R}, {R}{G}, or {G}{G} to your mana pool.
p1622
aVFlying, haste<br>When you cast Demigod of Revenge, return all cards named Demigod of Revenge from your graveyard to the battlefield.
p1623
aVWhen Maul Splicer enters the battlefield, put two 3/3 colorless Golem artifact creature tokens onto the battlefield.<br>Golem creatures you control have trample.
p1624
aVYou can't get poison counters.<br>Creatures you control can't have -1/-1 counters placed on them.<br>Creatures your opponents control lose infect.
p1625
aV<i>({UP} can be paid with either {U} or 2 life.)</i><br>Counter target spell with converted mana cost 1.
p1626
aVYou may have Pride of Lions assign its combat damage as though it weren't blocked.
p1627
aVAttach target Equipment to target creature. <i>(Control of the Equipment doesn't change.)</i>
p1628
aVWhen Magma Giant enters the battlefield, it deals 2 damage to each creature and each player.
p1629
aVMagma Jet deals 2 damage to target creature or player.<br>Scry 2. <i>(To scry 2, look at the top two cards of your library, then put any number of them on the bottom of your library and the rest on top in any order.)</i>
p1630
aV{T}: Put a 2/2 colorless Pincher creature token onto the battlefield.<br>Whenever an artifact is put into a graveyard from the battlefield, you may untap Summoning Station.
p1631
aVShadow <i>(This creature can block or be blocked by only creatures with shadow.)</i><br>Suspend 2\u2014{1}{U} <i>(Rather than cast this card from your hand, you may pay {1}{U} and exile it with two time counters on it. At the beginning of your upkeep, remove a time counter. When the last is removed, cast it without paying its mana cost. It has haste.)</i>
p1632
aVFlying<br>Delve <i>(You may exile any number of cards from your graveyard as you cast this spell. It costs {1} less to cast for each card exiled this way.)</i>
p1633
aVEnchant creature<br>Enchanted creature has flying.<br>Aura swap {2}{U} <i>({2}{U}: Exchange this Aura with an Aura card in your hand.)</i>
p1634
aVNonbasic lands are Mountains.
p1635
aVAs Cloud Key enters the battlefield, choose artifact, creature, enchantment, instant, or sorcery.<br>Spells you cast of the chosen type cost {1} less to cast.
p1636
aV{2}, Exile a nonland card from your hand: Put four time counters on the exiled card. If it doesn't have suspend, it gains suspend. <i>(At the beginning of your upkeep, remove a time counter from that card. When the last is removed, cast it without paying its mana cost. If it's a creature, it has haste.)</i>
p1637
aVSplit second <i>(As long as this spell is on the stack, players can't cast spells or activate abilities that aren't mana abilities.)</i><br>Enchant permanent<br>You control enchanted permanent.
p1638
aS''
p1639
aVHaste <i>(This creature can attack and {T} as soon as it comes under your control.)</i>
p1640
aVWhenever equipped creature attacks, it deals damage equal to its power to defending player.<br>Equip {3}
p1641
aVWhenever equipped creature deals combat damage to a player, you may draw two cards. If you do, discard a card.<br>Equip {1} <i>({1}: Attach to target creature you control. Equip only as a sorcery. This card enters the battlefield unattached and stays on the battlefield if the creature leaves.)</i>
p1642
aVMaster of Etherium's power and toughness are each equal to the number of artifacts you control.<br>Other artifact creatures you control get +1/+1.
p1643
aVAll Slivers have "{T}: Target Sliver creature gets +X/+0 until end of turn, where X is the number of Slivers on the battlefield."
p1644
aVMorph {2}{U} <i>(You may cast this face down as a 2/2 creature for {3}. Turn it face up any time for its morph cost.)</i><br>When Master of the Veil is turned face up, you may turn target creature with morph face down.
p1645
aVFirst strike, haste<br>Cycling {3} <i>({3}, Discard this card: Draw a card.)</i>
p1646
aVAttacking creatures gain first strike until end of turn.
p1647
aVWhenever a player taps a land for mana, that player adds one mana to his or her mana pool of any type that land produced.
p1648
aVFlying<br>Whenever Medomai the Ageless deals combat damage to a player, take an extra turn after this one.<br>Medomai the Ageless can't attack during extra turns.
p1649
aV{2}{U}, {T}: The controller of target instant or sorcery spell copies it. That player may choose new targets for the copy.
p1650
aVEnchant creature<br>Enchanted creature has trample and haste.
p1651
aVWhenever a land an opponent controls is tapped for mana, tap all lands that player controls that could produce any type of mana that land could produce.
p1652
aVEnchant creature<br>Enchanted creature has "Cumulative upkeep {1}." <i>(At the beginning of its controller's upkeep, that player puts an age counter on it, then sacrifices it unless he or she pays its upkeep cost for each age counter on it.)</i>
p1653
aVManta Ray can't attack unless defending player controls an Island.<br>Manta Ray can't be blocked except by blue creatures.<br>When you control no Islands, sacrifice Manta Ray.
p1654
aVMaraxus of Keld's power and toughness are each equal to the number of untapped artifacts, creatures, and lands you control.
p1655
aVFirst strike<br>{1}{W}: Tap target creature blocking Master of Arms.
p1656
aV{T}, Sacrifice Magus of the Mirror: Exchange life totals with target opponent. Activate this ability only during your upkeep.
p1657
aVAdd {R} to your mana pool for each tapped land your opponents control.
p1658
aVDethrone <i>(Whenever this creature attacks the player with the most life or tied for most life, put a +1/+1 counter on it.)</i><br>Other creatures you control have dethrone.<br>Whenever a creature you control with a +1/+1 counter on it dies, return that card to the battlefield under your control at the beginning of the next end step.
p1659
aVHexproof <i>(This creature can't be the target of spells or abilities your opponents control.)</i><br>Dethrone <i>(Whenever this creature attacks the player with the most life or tied for most life, put a +1/+1 counter on it.)</i>
p1660
aVDethrone <i>(Whenever this creature attacks the player with the most life or tied for most life, put a +1/+1 counter on it.)</i><br>Whenever Marchesa's Infiltrator deals combat damage to a player, draw a card.
p1661
aVDethrone <i>(Whenever this creature attacks the player with the most life or tied for most life, put a +1/+1 counter on it.)</i><br>{1}{U}{R}: Target creature you control gains haste until end of turn and can't be blocked this turn.
p1662
aVDefender<br>Your maximum hand size is increased by one.
p1663
aVWall creatures can attack as though they didn't have defender.
p1664
aVWhen Wrath of Marit Lage enters the battlefield, tap all red creatures.<br>Red creatures don't untap during their controllers' untap steps.
p1665
aVFear <i>(This creature can't be blocked except by artifact creatures and/or black creatures.)</i>
p1666
aVEnchant creature<br>Enchanted creature can't attack or block.
p1667
aVChoose a color. Target player reveals his or her hand and discards all cards of that color.
p1668
aVPhantom Warrior is unblockable.
p1669
aVPhyrexian Colossus doesn't untap during your untap step.<br>Pay 8 life: Untap Phyrexian Colossus.<br>Phyrexian Colossus can't be blocked except by three or more creatures.
p1670
aVIf an opponent controls a Plains and you control a Swamp, you may cast Massacre without paying its mana cost.<br>All creatures get -2/-2 until end of turn.
p1671
aVAt the beginning of each player's end step, put a charge counter on Mana Cache for each untapped land that player controls.<br>Remove a charge counter from Mana Cache: Add {1} to your mana pool. Any player may activate this ability but only during his or her turn before the end step.
p1672
aVTarget player reveals a number of cards from his or her hand equal to the number of Swamps you control. You choose one of them. That player discards that card.
p1673
aVFlying<br>{1}{R}: Mordant Dragon gets +1/+0 until end of turn.<br>Whenever Mordant Dragon deals combat damage to a player, you may have it deal that much damage to target creature that player controls.
p1674
aV{X}, {T}: Name a card. Target opponent reveals X cards at random from his or her hand. Then that player discards all cards with that name revealed this way. Activate this ability only during your turn.
p1675
aVSearch your library for three cards, exile them, then shuffle your library.<br>Draw a card.
p1676
aVPlayers can't cast spells that share a color with the spell most recently cast this turn.
p1677
aVProtection from white<br>Marauding Knight gets +1/+1 for each Plains your opponents control.
p1678
aVYou and target spell's controller bid life. You start the bidding with a bid of 1. In turn order, each player may top the high bid. The bidding ends if the high bid stands. The high bidder loses life equal to the high bid. If you win the bidding, counter that spell.
p1679
aVEnchant creature<br>Enchanted creature gets +2/+2 and can't block.
p1680
aVMagma Spray deals 2 damage to target creature. If that creature would die this turn, exile it instead.
p1681
aV{T}, Pay 1 life: Add one mana of any color to your mana pool.
p1682
aVEnchant land<br>Whenever enchanted land is tapped for mana, its controller adds two mana in any combination of colors to his or her mana pool <i>(in addition to the mana the land produces)</i>.
p1683
aVFlying<br>At the beginning of your upkeep, each opponent draws a card.
p1684
aVThe first spell you cast each turn has cascade. <i>(When you cast your first spell, exile cards from the top of your library until you exile a nonland card that costs less. You may cast it without paying its mana cost. Put the exiled cards on the bottom in a random order.)</i>
p1685
aVDestroy target nonland permanent and all other permanents with the same name as that permanent.
p1686
aVWhenever equipped creature attacks, it deals damage equal to its power to defending player.<br>Equip {3}
p1687
aVEnchant creature<br>Enchanted creature gets +2/+0 and has flying.
p1688
aVDouble strike
p1689
aVDevour 2 <i>(As this enters the battlefield, you may sacrifice any number of creatures. This creature enters the battlefield with twice that many +1/+1 counters on it.)</i><br>When Marrow Chomper enters the battlefield, you gain 2 life for each creature it devoured.
p1690
aVEquipped creature has fear. <i>(It can't be blocked except by artifact creatures and/or black creatures.)</i><br>Whenever equipped creature deals combat damage to a player, you may draw a card.<br>Equip {2}
p1691
aVAt the beginning of your upkeep, put a +1/+1 counter on each creature you control if you control a creature with power 5 or greater. Then you gain 10 life if you control a creature with power 10 or greater. Then you win the game if you control a creature with power 20 or greater.
p1692
aVAs Meddling Mage enters the battlefield, name a nonland card.<br>The named card can't be cast.
p1693
aV{1}{U}, {T}: Untap target artifact an opponent controls and gain control of it until end of turn. It gains haste until end of turn. When you lose control of the artifact, tap it.
p1694
aV{T}: Target land becomes a Swamp until its controller's next untap step.
p1695
aV{2}, {T}: Target player puts the top two cards of his or her library into his or her graveyard.
p1696
aVEach player may discard up to three cards. Mind Bomb deals damage to each player equal to 3 minus the number of cards he or she discarded this way.
p1697
ag1373
ag1373
ag1373
aVFlying<br>When Magister Sphinx enters the battlefield, target player's life total becomes 10.
p1698
aVReturn target creature card from your graveyard to the battlefield with a mannequin counter on it. For as long as that creature has a mannequin counter on it, it has "When this creature becomes the target of a spell or ability, sacrifice it."
p1699
aVEach noncreature artifact is an artifact creature with power and toughness each equal to its converted mana cost. <i>(Equipment that's a creature can't equip a creature.)</i>
p1700
aV{U}, {T}, Return an artifact you control to its owner's hand: You may put an artifact card from your hand onto the battlefield.
p1701
aVWhen you set this scheme in motion, target opponent chooses self or others. If that player chooses self, he or she sacrifices two lands. If the player chooses others, each of your other opponents sacrifices a land.
p1702
aVWhenever a nontoken creature you control attacks, put a 1/1 red Goblin creature token onto the battlefield tapped and attacking.<br>Sacrifice Mardu Ascendancy: Creatures you control get +0/+3 until end of turn.
p1703
aV{T}: Add {R}, {W}, or {B} to your mana pool.<br>{R}{W}{B}, {T}, Sacrifice Mardu Banner: Draw a card.
p1704
aVWhen Mardu Blazebringer attacks or blocks, sacrifice it at end of combat.
p1705
aVChoose one-<br>\u2022 Mardu Charm deals 4 damage to target creature.<br>\u2022 Put two 1/1 white Warrior creature tokens onto the battlefield. They gain first strike until end of turn.<br>\u2022 Target opponent reveals his or her hand. You choose a noncreature, nonland card from it. That player discards that card.
p1706
aV{B}: Mardu Hateblade gains deathtouch until end of turn. <i>(Any amount of damage it deals to a creature is enough to destroy it.)</i>
p1707
aVRaid- When Mardu Heart-Piercer enters the battlefield, if you attacked with a creature this turn, Mardu Heart-Piercer deals 2 damage to target creature or player.
p1708
aVRaid- When Mardu Hordechief enters the battlefield, if you attacked with a creature this turn, put a 1/1 white Warrior creature token onto the battlefield.
p1709
aVWhenever Mardu Roughrider attacks, target creature can't block this turn.
p1710
aVMardu Skullhunter enters the battlefield tapped.<br>Raid- When Mardu Skullhunter enters the battlefield, if you attacked with a creature this turn, target opponent discards a card.
p1711
aVRaid- When Mardu Warshrieker enters the battlefield, if you attacked with a creature this turn, add {R}{W}{B} to your mana pool.
p1712
aVMorph {3}{W}{W} <i>(You may cast this card face down as a 2/2 creature for {3}. Turn it face up any time for its morph cost.)</i><br>When Master of Pearls is turned face up, creatures you control get +2/+2 until end of turn.
p1713
aVDraw a card. Master the Way deals damage to target creature or player equal to the number of cards in your hand.
p1714
aVIslandwalk <i>(This creature can't be blocked as long as defending player controls an Island.)</i><br>Whenever Meandering Towershell attacks, exile it. Return it to the battlefield under your control tapped and attacking at the beginning of the declare attackers step on your next turn.
p1715
aVKicker {3} <i>(You may pay an additional {3} as you cast this spell.)</i><br>Creatures target player controls get -1/-1 until end of turn. If Marsh Casualties was kicked, those creatures get -2/-2 until end of turn instead.
p1716
aVWhen Mangara's Tome enters the battlefield, search your library for five cards, exile them in a face-down pile, and shuffle that pile. Then shuffle your library.<br>{2}: The next time you would draw a card this turn, instead put the top card of the exiled pile into its owner's hand.
p1717
aVAs Mangara's Equity enters the battlefield, choose black or red.<br>At the beginning of your upkeep, sacrifice Mangara's Equity unless you pay {1}{W}.<br>Whenever a creature of the chosen color deals damage to you or a white creature you control, Mangara's Equity deals that much damage to that creature.
p1718
aVFlying, protection from black
p1719
aVDestroy any number of target creatures.<br>Phyrexian Purge costs 3 life more to cast for each target.
p1720
aVMarble Diamond enters the battlefield tapped.<br>{T}: Add {W} to your mana pool.
p1721
aVMaro's power and toughness are each equal to the number of cards in your hand.
p1722
aVCounter target spell. If that spell is countered this way, put it on top of its owner's library instead of into that player's graveyard.
p1723
aVAt end of combat, for each creature you controlled at the time it dealt combat damage to a player this turn, copy a random card with the same mana cost as that creature. You may pay {3}. If you do, choose one of those copies. If a copy of a permanent card is chosen, you may put a token onto the battlefield that's a copy of that card. If a copy of an instant or sorcery card is chosen, you may cast the copy without paying its mana cost.
p1724
aVWhenever a creature enters the battlefield under your control, if it was unearthed, it gets +3/+0.<br>Whenever a creature you control is exiled, if it was unearthed, shuffle that card into its owner's library.
p1725
aVAt the beginning of the game, you may pay any amount of life.<br>You can't draw cards.<br>At the beginning of your draw step, look at the top X cards of your library, where X is the amount of life paid with Maralen of the Mornsong Avatar. Put one of them into your hand, then shuffle your library.
p1726
aVCreatures you control get +1/+0.
p1727
aVTap an untapped creature you control, Discard a card: Target creature you control gets +X/+X until end of turn, where X is the number of cards in your hand.
p1728
aV{2}{G}: Put a green creature token onto the battlefield that's a 2/2 Wolf, a 2/3 Antelope with forestwalk, a 3/2 Cat with shroud, or a 4/4 green Rhino with trample, chosen at random.
p1729
aVAt the beginning of your upkeep, reveal the top card of your library. If it's a creature card with power 5 or greater, put it into your hand. Otherwise, you may put it on the bottom of your library.
p1730
aVDefender<br>Manor Gargoyle has indestructible as long as it has defender.<br>{1}: Until end of turn, Manor Gargoyle loses defender and gains flying.
p1731
aVHaste<br>{1}{B}: Regenerate Manor Skeleton.
p1732
aVLifelink <i>(Damage dealt by this creature also causes you to gain that much life.)</i>
p1733
aVEquipped creature gets +1/+2 and has hexproof. <i>(It can't be the target of spells or abilities your opponents control.)</i><br>Equip {3}
p1734
aVWhen Mausoleum Guard dies, put two 1/1 white Spirit creature tokens with flying onto the battlefield.
p1735
aVDestroy target land. You gain 4 life.
p1736
aVOther Human creatures you control get +1/+1.<br>At the beginning of each upkeep, if no spells were cast last turn, transform Mayor of Avabruck.
p1737
aVTarget player shuffles up to three target cards from his or her graveyard into his or her library.<br>Flashback {G} <i>(You may cast this card from your graveyard for its flashback cost. Then exile it.)</i>
p1738
aVWhenever another creature with power 2 or less enters the battlefield under your control, you may pay {1}. If you do, draw a card.
p1739
aVChange the text of target spell or permanent by replacing all instances of one basic land type with another. <i>(For example, you may change "swampwalk" to "plainswalk." This effect lasts indefinitely.)</i>
p1740
aVEnchant enchantment<br>At the beginning of the upkeep of enchanted enchantment's controller, that player may pay any amount of mana. Power Leak deals 2 damage to that player. Prevent X of that damage, where X is the amount of mana that player paid this way.
p1741
aVCounter target spell unless its controller pays {X}. If he or she doesn't, that player taps all lands with mana abilities he or she controls and empties his or her mana pool.
p1742
aVAt the beginning of each player's upkeep, Power Surge deals X damage to that player, where X is the number of untapped lands he or she controlled at the beginning of this turn.
p1743
aV{T}: Prodigal Sorcerer deals 1 damage to target creature or player.
p1744
aVPsionic Blast deals 4 damage to target creature or player and 2 damage to you.
p1745
aV{4}: Put a pressure counter on Magma Mine.<br>{T}, Sacrifice Magma Mine: Magma Mine deals damage equal to the number of pressure counters on it to target creature or player.
p1746
aV{1}: Regenerate Matopi Golem. When it regenerates this way, put a -1/-1 counter on it.
p1747
aVAs an additional cost to cast Natural Order, sacrifice a green creature.<br>Search your library for a green creature card and put it onto the battlefield. Then shuffle your library.
p1748
ag1373
aV{T}: Untap target attacking creature. Prevent all combat damage that would be dealt to and dealt by that creature this turn.
p1749
aVAttacking creatures get +1/+0.
p1750
aVWhenever Mijae Djinn attacks, flip a coin. If you lose the flip, remove Mijae Djinn from combat and tap it.
p1751
aVAt the beginning of your upkeep, Minion of Tevesh Szat deals 2 damage to you unless you pay {B}{B}.<br>{T}: Target creature gets +3/-2 until end of turn.
p1752
aV{T}: Add {3} to your mana pool. Spend this mana only to cast artifact spells.
p1753
aVAll creatures lose flying and islandwalk.
p1754
aVDeathtouch <i>(Any amount of damage this deals to a creature is enough to destroy it.)</i><br>Multicolored creatures you control have deathtouch.
p1755
aVTrample<br>Multicolored creatures you control have trample.
p1756
aVFlying<br>Multicolored creatures you control have flying.
p1757
aVHaste<br>Multicolored creatures you control have haste.
p1758
aVVigilance<br>Multicolored creatures you control have vigilance.
p1759
aVMaze's End enters the battlefield tapped.<br>{T}: Add {1} to your mana pool.<br>{3}, {T}, Return Maze's End to its owner's hand: Search your library for a Gate card, put it onto the battlefield, then shuffle your library. If you control ten or more Gates with different names, you win the game.
p1760
aVPlay with the top card of your library revealed.<br>You may cast the top card of your library if it's an instant or sorcery card.<br>Whenever you cast an instant or sorcery spell from your library, copy it. You may choose new targets for the copy.
p1761
aVRegenerate target creature.
p1762
aVAs an additional cost to cast Mask of the Mimic, sacrifice a creature.<br>Search your library for a card with the same name as target nontoken creature and put that card onto the battlefield. Then shuffle your library.
p1763
aVCounter target spell unless its controller pays {3}.
p1764
aVInstant and enchantment spells you cast cost up to {2} less to cast.
p1765
aVAll Walls able to block Marble Priest do so.<br>Prevent all combat damage that would be dealt to Marble Priest by Walls.
p1766
aVX target creatures gain islandwalk until end of turn.
p1767
aVChoose target creature. When that creature dies this turn, return a creature card from its owner's graveyard to the battlefield under the control of that creature's owner.
p1768
aVRemove Rebirth from your deck before playing if you're not playing for ante.<br><br>Each player may put the top card of his or her library into the ante. If a player does, his or her life total becomes 20.
p1769
aV{1}, {T}: Untap target creature that has an activated ability with {T} in its cost.
p1770
aVReturn up to two target creature cards from your graveyard to your hand, then discard a card.
p1771
aVMagma Spray deals 2 damage to target creature. If that creature would die this turn, exile it instead.
p1772
aVReturn target creature card from your graveyard to the battlefield with a mannequin counter on it. For as long as that creature has a mannequin counter on it, it has "When this creature becomes the target of a spell or ability, sacrifice it."
p1773
aVFlying<br>When Marsh Flitter enters the battlefield, put two 1/1 black Goblin Rogue creature tokens onto the battlefield.<br>Sacrifice a Goblin: Marsh Flitter becomes 3/3 until end of turn.
p1774
aVOther Goblin creatures you control get +1/+1.<br>{T}: Regenerate another target Goblin.
p1775
aVWhen Masked Admirers enters the battlefield, draw a card.<br>Whenever you cast a creature spell, you may pay {G}{G}. If you do, return Masked Admirers from your graveyard to your hand.
p1776
aVBlue creatures don't untap during their controllers' untap steps.<br>At the beginning of each player's upkeep, that player may choose any number of tapped blue creatures he or she controls and pay {4} for each creature chosen this way. If the player does, untap those creatures.
p1777
aVIslandwalk <i>(This creature is unblockable as long as defending player controls an Island.)</i><br>Whenever Merfolk Spy deals combat damage to a player, that player reveals a card at random from his or her hand.
p1778
aVTarget creature gets +2/+2 and gains flying until end of turn.
p1779
aVEnchant creature<br>You control enchanted creature.
p1780
aVTarget player discards two cards.
p1781
aVWhen Mitotic Slime dies, put two 2/2 green Ooze creature tokens onto the battlefield. They have "When this creature dies, put two 1/1 green Ooze creature tokens onto the battlefield."
p1782
aVMarjhan doesn't untap during your untap step.<br>{U}{U}, Sacrifice a creature: Untap Marjhan. Activate this ability only during your upkeep.<br>Marjhan can't attack unless defending player controls an Island.<br>{U}{U}: Marjhan gets -1/-0 until end of turn and deals 1 damage to target attacking creature without flying.<br>When you control no Islands, sacrifice Marjhan.
p1783
aVEnchant creature<br>Enchanted creature loses flying.<br>Whenever enchanted creature blocks or becomes blocked by a creature, the other creature gains first strike until end of turn.
p1784
aVBurning Fields deals 5 damage to target opponent.
p1785
aVTarget opponent reveals his or her hand. You choose a card from it. That player discards that card.
p1786
aVMagma Jet deals 2 damage to target creature or player. Scry 2. <i>(Look at the top two cards of your library, then put any number of them on the bottom of your library and the rest on top in any order.)</i>
p1787
aVW
p1788
aVTap X target artifacts, creatures, and/or lands. You lose X life.
p1789
aVWhen Marsh Crocodile enters the battlefield, return a blue or black creature you control to its owner's hand.<br>When Marsh Crocodile enters the battlefield, each player discards a card.
p1790
aVKicker\u2014Sacrifice two lands. <i>(You may sacrifice two lands in addition to any other costs as you cast this spell.)</i><br>Magma Burst deals 3 damage to target creature or player. If Magma Burst was kicked, it deals 3 damage to another target creature or player.
p1791
aVDestroy all creatures. They can't be regenerated. For each creature destroyed this way, its controller puts a 1/1 white Spirit creature token with flying onto the battlefield.
p1792
aV{1}, {T}: Add one mana of any color to your mana pool.
p1793
aVDomain- For each basic land type among lands you control, Magnigoth Treefolk has landwalk of that type.
p1794
aVWhen Maggot Carrier enters the battlefield, each player loses 1 life.
p1795
aVHaste<br>When Markov Warlord enters the battlefield, up to two target creatures can't block this turn.
p1796
aVWhenever another creature enters the battlefield, untap Midnight Guard.
p1797
aVIntimidate<br>Whenever a Human deals damage to you, destroy it.<br>Other non-Human creatures you control get +1/+1 and have undying. <i>(When a creature with undying dies, if it had no +1/+1 counters on it, return it to the battlefield under its owner's control with a +1/+1 counter on it.)</i>
p1798
asS'costs'
p1799
(lp1800
V{3}{B}{B}
p1801
aV{5}{R}{R}{R}
p1802
aV{G}
p1803
aV{2}{B}{B}{R}{R}
p1804
aV{4}{R}{R}
p1805
aV{4}{W}{W}
p1806
aV{G}
p1807
aV{U}{U}
p1808
aV{1}{G}{G}
p1809
aV{2}{G}
p1810
aV{1}{U}
p1811
aV{U}
p1812
aV{4}{U}{U}
p1813
aV{2}{R}
p1814
aV{2}{U}
p1815
aV{1}
p1816
aV{3}{R}
p1817
aV{2}{G}{G}
p1818
aV{2}
p1819
aV{3}{G}{G}{G}
p1820
aV{X}{B}{B}{B}
p1821
aV{1}{R}
p1822
aV{U}
p1823
aV{2}{U}
p1824
aV{1}{U}
p1825
aV{1}{W}
p1826
aV{1}{B}{B}
p1827
aV{U}
p1828
aV{1}{B}
p1829
aV{6}{R}
p1830
aV{R}
p1831
aV{B}
p1832
aV{3}{G}
p1833
aV{1}{R}{R}
p1834
aV{U}
p1835
aV{4}{U}{U}
p1836
aV{R}
p1837
aV{2}{R}
p1838
aV{2}{U}
p1839
aV{1}
p1840
aV{3}{R}
p1841
aV{W}
p1842
aV{1}{W}
p1843
aV{2}{W}{W}
p1844
aV{4}{B}
p1845
aV{3}{W}
p1846
aV{1}{U}
p1847
aV{G}{G}
p1848
aV{4}{R}{R}
p1849
aV{5}{U}{R}{G}
p1850
aV{3}{B}
p1851
aV{3}{W}{W}
p1852
aV{1}{W}{W}
p1853
aV{1}{W}{W}
p1854
aV{W}
p1855
aV{3}{W}{W}
p1856
aV{3}{B}{B}
p1857
aV{G}
p1858
aV{2}{B}
p1859
aV{1}{B}{B}
p1860
aV{2}{R}
p1861
aV{2}{B}{B}
p1862
aV{2}{B}{B}
p1863
aV{2}
p1864
aV{2}
p1865
aV{2}{B}
p1866
aV{3}{B}
p1867
aV{1}{U}
p1868
aV{3}{R}{R}
p1869
aS'0'
p1870
aV{U}
p1871
aV{3}{W}
p1872
aV{1}{W}
p1873
aV{3}{U}{U}
p1874
aV{3}{U}
p1875
aV{4}{U}{U}
p1876
aV{3}{R}
p1877
aV{3}{B}{B}
p1878
aV{5}
p1879
aV{2}{B}
p1880
aV{3}
p1881
aV{2}{R}
p1882
aV{3}{B}{B}
p1883
aV{B}{B}{B}
p1884
aV{4}{W}{B}
p1885
aV{0}
p1886
aV{U}{U}
p1887
aV{3}
p1888
aV{1}
p1889
aV{2}{U}
p1890
aV{2}{B}
p1891
aV{3}{B}
p1892
aV{2}{G}{G}
p1893
aV{1}{R/G}
p1894
aV{5}{G}
p1895
aV{1}{U}{U}
p1896
aV{W}{W}
p1897
aV{B}{R}
p1898
ag1870
aV{R}
p1899
aV{B}
p1900
aV{3}{G}
p1901
aV{4}
p1902
aV{3}{B}{B}{B}
p1903
aV{2}{W}
p1904
aV{2}{W}{B}
p1905
aV{1}{W}
p1906
aV{2}
p1907
aV{U}{U}
p1908
aV{1}{U}{U}
p1909
aV{3}{R}{R}{G}
p1910
aV{1}
p1911
aV{4}{U}{U}
p1912
aV{U}
p1913
aV{1}{R}{R}
p1914
aV{2}{R}
p1915
aV{2}{U}
p1916
aV{3}{R}
p1917
aV{1}{U}
p1918
aV{0}
p1919
aV{5}{U}{U}
p1920
aV{W}
p1921
aV{R}
p1922
aV{1}{W}
p1923
aV{2}{R}{R}
p1924
aV{3}{W}
p1925
aV{4}{U}{U}
p1926
aV{1}{U}
p1927
aV{2}{G}{G}
p1928
aV{4}{W}
p1929
aV{3}{G}{G}
p1930
aV{W}{U}{B}{R}{G}
p1931
aV{4}{W}{U}{B}
p1932
aV{2}{B}{B}{R}{R}
p1933
aV{1}
p1934
aV{4}
p1935
aV{1}{R}
p1936
aV{1}{W}
p1937
aV{X}{W}{W}
p1938
aV{3}{U}
p1939
aV{2}{G}
p1940
aV{3}{U}{U}
p1941
aV{2}{U}{U}
p1942
aV{5}{B}
p1943
aV{3}{R}
p1944
aV{1}{R}
p1945
aV{3}{R}{R}
p1946
aV{5}{U}{R}{G}
p1947
aV{4}{W}
p1948
aV{2}{R}
p1949
aV{3}{R}{R}
p1950
aV{3}{R}
p1951
aV{3}{B}
p1952
aV{3}{W}
p1953
aV{2}{R}{R}
p1954
aV{1}{U}
p1955
ag1870
aV{3}{B}{B}
p1956
aV{2}{G}
p1957
aV{1}{R}
p1958
aV{2}{W}
p1959
aV{2}{B}
p1960
aV{1}{G}
p1961
aV{2}{R}
p1962
aV{1}{G}
p1963
aV{4}
p1964
aV{W}
p1965
aV{R}
p1966
aV{1}{G}{G}
p1967
aV{G}
p1968
aV{5}
p1969
aV{4}{W}
p1970
aV{X}{W}{W}
p1971
aV{2}{R/W}{R/W}
p1972
aV{3}{B}
p1973
aV{U}
p1974
aV{4}{R}{R}
p1975
aV{R}{G}{W}
p1976
aV{4}{B}
p1977
aV{3}{R}{R}
p1978
aV{R}{G}{W}
p1979
aV{2}{R}
p1980
aV{W}{W}{W}
p1981
aV{1}{B}{B}
p1982
aV{1}{R}
p1983
aV{2}{R}{R}
p1984
aV{3}{B}
p1985
aV{1}{W}{W}
p1986
aV{G}
p1987
aV{4}{B}{B}
p1988
aV{R}
p1989
aV{3}{U}{U}
p1990
aV{2}{W}{W}
p1991
aV{1}{W}{U}
p1992
aV{X}{G}
p1993
aV{4}{B}{B}{B}
p1994
aV{5}{W}{W}
p1995
aV{1}{R}
p1996
aV{3}{R}
p1997
aV{R}{W}
p1998
aV{2}{R}
p1999
aV{G}
p2000
aV{2}{U}
p2001
aV{1}{R}
p2002
aV{B}
p2003
aV{G}
p2004
aV{2}{R}{R}
p2005
aV{U}
p2006
aV{R}
p2007
aV{W}
p2008
aV{4}
p2009
aV{U}
p2010
aV{4}{U}{U}
p2011
aV{2}{R}
p2012
aV{2}{U}
p2013
aV{1}
p2014
aV{3}{R}
p2015
aV{2}
p2016
aV{2}{G}
p2017
aV{1}{U}
p2018
aV{3}{W}
p2019
aV{1}{W}
p2020
ag1870
aV{2}{R}
p2021
aV{2}{W}
p2022
aV{3}{B}{B}
p2023
aV{2}{R}
p2024
ag1870
aV{3}{R}
p2025
aV{2}{G}{G}
p2026
aV{3}
p2027
aV{2}
p2028
aV{2}{U}
p2029
aV{2}
p2030
aV{6}
p2031
aV{R}
p2032
aV{3}{U}
p2033
aV{W}
p2034
aV{5}{G}
p2035
aV{U}{B}
p2036
aV{4}{W}{U}{U}{B}
p2037
aV{2}{U}
p2038
aV{R}
p2039
aV{3}{U}{U}
p2040
aV{2}{U}
p2041
aV{2}{U}
p2042
aV{4}{U}{U}
p2043
aV{R}
p2044
aV{2}
p2045
aV{2}{G}{G}
p2046
aV{4}{W}
p2047
aV{1}{W}
p2048
aV{3}{W}{W}
p2049
aV{1}{U}
p2050
aV{G}
p2051
aV{1}{B}
p2052
aV{1}{G}
p2053
aV{1}{R}
p2054
aV{3}{B}{B}
p2055
aV{2}{W}
p2056
aV{2}{U}
p2057
aV{1}{U}{U}
p2058
aV{2}{R}
p2059
aV{3}{R}{R}
p2060
aV{3}{W}
p2061
aV{4}{B}
p2062
aV{0}
p2063
ag1870
aV{B/R}
p2064
aV{5}{W}{W}
p2065
aV{4}{G}{G}
p2066
aV{1}{R/G}
p2067
aV{3}{W}
p2068
aV{WP}
p2069
aV{3}{W}
p2070
aV{2}{U}
p2071
aV{R}
p2072
aV{5}{R}{R}
p2073
aV{1}{R}
p2074
aV{3}{R}{R}
p2075
aV{1}{W}{W}
p2076
aV{3}{B}
p2077
aV{2}{U}{U}{U}
p2078
aV{2}{W}{W}
p2079
aV{2}{R}
p2080
aV{G}
p2081
aV{7}{U}
p2082
aV{3}{B}{B}
p2083
aV{5}{R}{R}
p2084
aV{1}{R}{G}
p2085
aV{2}
p2086
aV{2}{U}
p2087
aV{3}{R}
p2088
aV{2}{U}{U}
p2089
aV{6}{R}
p2090
aV{2}{B}
p2091
aV{2}{R}
p2092
aV{5}{B}
p2093
aV{U}
p2094
aV{1}{R}
p2095
aV{3}
p2096
aV{U}
p2097
aV{1}{U}{U}
p2098
aV{4}{R}{R}
p2099
aV{2}{W}
p2100
aV{5}
p2101
aV{4}{W}{B}
p2102
aV{4}{B}{B}
p2103
aV{3}{R}{R}
p2104
aV{1}{U}{B}{R}
p2105
aV{3}{U}
p2106
aV{2}{U}
p2107
aV{4}{W}
p2108
aV{1}{U}
p2109
aV{B}
p2110
aV{4}{U}{U}
p2111
aV{R}
p2112
aV{2}{G}{G}
p2113
aV{1}{W}
p2114
aV{2}{B}{B}
p2115
aV{1}{R}{R}
p2116
aV{4}
p2117
aV{1}{W}
p2118
aV{3}{R}{R}{G}
p2119
aV{1}{U}
p2120
aV{1}{U}
p2121
aV{2}{B}{B}
p2122
aV{1}{R}{R}
p2123
aV{1}{R}
p2124
aV{5}{R}
p2125
ag1870
aV{R}
p2126
aV{3}{G}
p2127
aV{1}{B}{R}{G}
p2128
aV{W}{U}{B}{R}{G}
p2129
aV{1}{B}{G}
p2130
aV{1}{R}{G}
p2131
aV{U}{R}
p2132
aV{2}{R/W}{G}
p2133
aV{3}{B}{G}
p2134
aV{U}{B}
p2135
aV{R}{G}{W}
p2136
aV{1}{U}
p2137
aV{2}{R}
p2138
aV{U}
p2139
aV{R}
p2140
aV{1}
p2141
aV{3}{R}
p2142
aV{3}{G}
p2143
aV{4}{W}{U}{B}
p2144
aV{3}{B}
p2145
aV{3}{U}
p2146
aV{3}{U}
p2147
ag1870
aV{U}{R}{W}
p2148
aV{R}{W}{B}
p2149
aV{3}
p2150
aV{2}{R}
p2151
aV{R}{W}{B}
p2152
aV{W}
p2153
aV{3}{R}
p2154
aV{2}{W}
p2155
aV{2}{R}{W}{B}
p2156
aV{1}{B}
p2157
aV{3}{R}
p2158
aV{1}{W}
p2159
aV{3}{U}{R}
p2160
aV{4}{U}
p2161
aV{5}
p2162
aV{2}{W}
p2163
aV{1}{W}{W}
p2164
aV{3}{G}{U}
p2165
aV{3}
p2166
aV{2}
p2167
aV{2}{G}{G}
p2168
ag1870
ag1870
ag1870
ag1870
ag1870
ag1870
ag1870
aV{1}{U}
p2169
aV{2}{G}{G}
p2170
aV{3}{G}
p2171
aV{3}{U}
p2172
aV{5}
p2173
aV{1}{B}
p2174
aV{2}{B}
p2175
aV{2}
p2176
aV{3}{W}
p2177
aV{U}
p2178
aV{4}{U}{U}
p2179
aV{2}{R}
p2180
aV{2}{U}
p2181
aV{1}
p2182
aV{3}{R}
p2183
aV{1}
p2184
aV{5}
p2185
aV{2}{U}
p2186
aV{4}{U}{U}
p2187
aV{4}{U}{U}
p2188
aV{6}
p2189
aV{1}
p2190
aV{W}{W}
p2191
aV{3}{W}{W}
p2192
ag1870
aV{3}{B}{R}
p2193
aV{3}{W}{B}
p2194
aV{5}{B}
p2195
aV{5}{G}
p2196
aV{5}{U}
p2197
aV{5}{R}
p2198
aV{5}{W}
p2199
ag1870
aV{U}
p2200
aV{1}{U}
p2201
aV{6}
p2202
aV{5}
p2203
aV{U}{U}
p2204
aV{2}{G}{G}
p2205
aV{3}{R}{R}{G}
p2206
aV{2}
p2207
aV{1}{B}
p2208
aV{R}
p2209
aV{3}{B}
p2210
aV{3}{B}
p2211
aV{2}{B}
p2212
aV{3}{R}
p2213
aV{1}{R}{R}
p2214
aV{R}
p2215
aV{3}{B}{B}
p2216
aV{1}{B}
p2217
aV{1}{B}{B}
p2218
aV{G}
p2219
aV{5}{U}{U}
p2220
aV{3}{G}
p2221
aV{1}{G}
p2222
aV{3}{R}{R}
p2223
aV{1}{R}
p2224
aV{2}{U}
p2225
aV{X}{U}{B}
p2226
aV{2}{U}{B}
p2227
aV{3}{R}
p2228
aV{4}{W}
p2229
aV{1}
p2230
aV{4}{G}
p2231
aV{B}
p2232
aV{1}{R}{R}
p2233
aV{5}{R}
p2234
ag1870
asS'names'
p2235
(lp2236
VMagmatic Force
p2237
aVMagus of the Vineyard
p2238
aVMalfegor
p2239
aVMana-Charged Dragon
p2240
aVMartyr's Bond
p2241
aVMaster Warcraft
p2242
aVMana Leak
p2243
aVManabarbs
p2244
aVManalith
p2245
aVManic Vandal
p2246
aVMaster Thief
p2247
aVMagical Hack
p2248
aVMahamoti Djinn
p2249
aVMana Flare
p2250
aVMana Short
p2251
aVMana Vault
p2252
aVManabarbs
p2253
aVMatsu-Tribe Birdstalker
p2254
aVManriki-Gusari
p2255
aVMasumaro, First to Live
p2256
aVMaga, Traitor to Mortals
p2257
aVManiacal Rage
p2258
aVManta Riders
p2259
aVMan-o'-War
p2260
aVMana Leak
p2261
aVMaster Decoy
p2262
aVMaralen of the Mornsong
p2263
aVMaster of the Pearl Trident
p2264
aVMark of the Vampire
p2265
aVMagmaquake
p2266
aVMark of Mutiny
p2267
aVMarsh Gas
p2268
aVMarsh Viper
p2269
aVMagnetic Mountain
p2270
aVMagical Hack
p2271
aVMahamoti Djinn
p2272
aVMana Clash
p2273
aVMana Flare
p2274
aVMana Short
p2275
aVMana Vault
p2276
aVManabarbs
p2277
aVMana Tithe
p2278
aVMantle of Leadership
p2279
aVMalach of the Dawn
p2280
aVMagus of the Coffers
p2281
aVMagus of the Tabernacle
p2282
aVMagus of the Bazaar
p2283
aVMagus of the Library
p2284
aVMagus of the Arena
p2285
aVMaelstrom Wanderer
p2286
aVMarisi's Twinclaws
p2287
aVMartyrs of Korlis
p2288
aVMartyrdom
p2289
aVMartyrdom
p2290
aVMarshmist Titan
p2291
aVMagebane Armor
p2292
aVMagma Phoenix
p2293
aVManabarbs
p2294
aVMaster of the Wild Hunt
p2295
aVManaweft Sliver
p2296
aVMarauding Maulhorn
p2297
aVMark of the Vampire
p2298
aVMaster of Diversion
p2299
aVMagnetic Web
p2300
aVManakin
p2301
aVMaddening Imp
p2302
aVMarsh Lurker
p2303
aVMana Severance
p2304
aVMagmasaur
p2305
aVMaze of Shadows
p2306
aVManta Riders
p2307
aVMarble Titan
p2308
aVMaster Decoy
p2309
aVMawcor
p2310
aVMarch of the Machines
p2311
aVMahamoti Djinn
p2312
aVManabarbs
p2313
aVMass of Ghouls
p2314
aVMantis Engine
p2315
aVMaggot Therapy
p2316
aVMagistrate's Scepter
p2317
aVMagistrate's Veto
p2318
aVMagister of Worth
p2319
aVMana Crypt
p2320
aVMana Drain
p2321
aVMana Prism
p2322
aVMana Vault
p2323
aVMan-o'-War
p2324
aVMarchesa, the Black Rose
p2325
aVMasticore
p2326
aVMad Auntie
p2327
aVMarsh Flitter
p2328
aVMasked Admirers
p2329
aVManamorphose
p2330
aVMaelstrom Pulse
p2331
aVMana Vortex
p2332
aVMartyr's Cry
p2333
aVMarsh Goblins
p2334
aVMaze of Ith
p2335
aVMana Clash
p2336
aVMarsh Gas
p2337
aVMarsh Viper
p2338
aVMagnetic Mine
p2339
aVMassacre Wurm
p2340
aVMaster's Call
p2341
aVMartyrs' Tomb
p2342
aVManacles of Decay
p2343
aVMask of Intolerance
p2344
aVMana Drain
p2345
aVMana Vortex
p2346
aVMarhault Elsdragon
p2347
aVMana Vault
p2348
aVMahamoti Djinn
p2349
aVMagical Hack
p2350
aVMagnetic Mountain
p2351
aVMana Flare
p2352
aVMana Short
p2353
aVManabarbs
p2354
aVMagus of the Unseen
p2355
aVMana Crypt
p2356
aVMarjhan
p2357
aVMartyred Rusalka
p2358
aVMana Clash
p2359
aVMaster Decoy
p2360
aVMagnivore
p2361
aVMarble Titan
p2362
aVMahamoti Djinn
p2363
aVMana Leak
p2364
aVMaro
p2365
aVMaster Healer
p2366
aVMarshdrinker Giant
p2367
aVMaelstrom Archangel
p2368
aVMagister Sphinx
p2369
aVMalfegor
p2370
aVMana Cylix
p2371
aVManaforce Mace
p2372
aVManiacal Rage
p2373
aVMark of Asylum
p2374
aVMartial Coup
p2375
aVMaster Transmuter
p2376
aVMatca Rioters
p2377
aVMaalfeld Twins
p2378
aVMad Prophet
p2379
aVMalicious Intent
p2380
aVMalignus
p2381
aVMarrow Bats
p2382
aVMass Appeal
p2383
aVMaelstrom Wanderer
p2384
aVMammoth Umbra
p2385
aVMark of Mutiny
p2386
aVMass Mutiny
p2387
aVMad Prophet
p2388
aVMark of the Vampire
p2389
aVMausoleum Guard
p2390
aVMana Echoes
p2391
aVMage's Guile
p2392
aVMaze of Ith
p2393
aVMarrow-Gnawer
p2394
aVMatsu-Tribe Decoy
p2395
aVMana Seism
p2396
aVMasako the Humorless
p2397
aVMark of the Oni
p2398
aVMark of Sakiko
p2399
aVMannichi, the Fevered Dream
p2400
aVMatsu-Tribe Sniper
p2401
aVMasticore
p2402
aVMask of Law and Grace
p2403
aVMark of Fury
p2404
aVMarker Beetles
p2405
aVMagnify
p2406
aVMantis Engine
p2407
aVMaster Healer
p2408
aVMartial Coup
p2409
aVMaster Warcraft
p2410
aVMausoleum Turnkey
p2411
aVMark of Eviction
p2412
aVMagus of the Arena
p2413
aVMarath, Will of the Wild
p2414
aVMarrow Bats
p2415
aVMass Mutiny
p2416
aVMayael the Anima
p2417
aVMagma Vein
p2418
aVMaster Apothecary
p2419
aVMalevolent Awakening
p2420
aVMad Dog
p2421
aVMagnivore
p2422
aVMana Skimmer
p2423
aVMangara of Corondor
p2424
aVMagus of the Candelabra
p2425
aVMagus of the Mirror
p2426
aVMagus of the Scroll
p2427
aVMagus of the Jar
p2428
aVMagus of the Disk
p2429
aVMana Bloom
p2430
aVMartial Law
p2431
aVMadcap Skills
p2432
aVMark for Death
p2433
aVMartial Glory
p2434
aVMassive Raid
p2435
aVMaster Biomancer
p2436
aVMage il-Vec
p2437
aVManabond
p2438
aVMana Breach
p2439
aVManiacal Rage
p2440
aVMartyr of Bones
p2441
aVMartyr of Spores
p2442
aVMagmatic Core
p2443
aVMartyr of Frost
p2444
aVMartyr of Ashes
p2445
aVMartyr of Sands
p2446
aVMasticore
p2447
aVMagical Hack
p2448
aVMahamoti Djinn
p2449
aVMana Flare
p2450
aVMana Short
p2451
aVMana Vault
p2452
aVManabarbs
p2453
aVMalachite Talisman
p2454
aVMaddening Wind
p2455
aVMagus of the Unseen
p2456
aVMajor Teroh
p2457
aVMagma Rift
p2458
aVMagosi, the Waterveil
p2459
aVMakindi Shieldmate
p2460
aVMalakir Bloodwitch
p2461
aVMark of Mutiny
p2462
aVMarsh Casualties
p2463
aVMarsh Flats
p2464
aVManabarbs
p2465
aVMaro
p2466
aVMana Prism
p2467
aVMarble Diamond
p2468
aVMana Short
p2469
aVMask of Memory
p2470
aVMalachite Golem
p2471
aVMass Hysteria
p2472
aVMarch of the Machines
p2473
aVMaster of Etherium
p2474
aVManaplasm
p2475
aVMayael the Anima
p2476
aVMaster of Etherium
p2477
aVMagma Spray
p2478
aVMarble Chalice
p2479
aVMawcor
p2480
aVMana Breach
p2481
aVMana Short
p2482
aVMahamoti Djinn
p2483
aVMana Clash
p2484
aVMarble Diamond
p2485
aVMaro
p2486
aVMaster Healer
p2487
aVMageta's Boon
p2488
aVMageta the Lion
p2489
aVMana Vapors
p2490
aVMarsh Boa
p2491
aVMahamoti Djinn
p2492
aVMarked by Honor
p2493
aVMass Calcify
p2494
aVMaster of Predicaments
p2495
aVMartyr's Cause
p2496
aVMagnetic Flux
p2497
aVMachinate
p2498
aVMagmaw
p2499
aVMakindi Griffin
p2500
aVMammoth Umbra
p2501
aVMasked Gorgon
p2502
aVMana Crypt
p2503
aVMadblind Mountain
p2504
aVManaforge Cinder
p2505
aVMass Calcify
p2506
aVMana Reflection
p2507
aVManamorphose
p2508
aVMarrow Shards
p2509
aVMaster Splicer
p2510
aVMaul Splicer
p2511
aVMan-o'-War
p2512
aVMagnetic Theft
p2513
aVMagma Giant
p2514
aVMagma Jet
p2515
aVMana Geyser
p2516
aVMarshaling Cry
p2517
aVMagus of the Abyss
p2518
aVMagus of the Future
p2519
aVMagus of the Moat
p2520
aVMagus of the Moon
p2521
aVMagus of the Vineyard
p2522
aVMaelstrom Djinn
p2523
aVMass of Ghouls
p2524
aVMagma Giant
p2525
aVMage Slayer
p2526
aVMask of Memory
p2527
aVMaster of Etherium
p2528
aVMagma Sliver
p2529
aVMaster of the Veil
p2530
aVMacetail Hystrodon
p2531
aVMana Leech
p2532
aVMana Flare
p2533
aVMagma Jet
p2534
aVMarch of the Returned
p2535
aVMaster of Waves
p2536
aVMana Web
p2537
aVMana Chains
p2538
aVManta Ray
p2539
aVMaraxus of Keld
p2540
aVMaster of Arms
p2541
aVMagister of Worth
p2542
aVMagus of the Mirror
p2543
aVMana Geyser
p2544
aVMarchesa, the Black Rose
p2545
aVMarchesa's Emissary
p2546
aVMarchesa's Infiltrator
p2547
aVMarchesa's Smuggler
p2548
aVMaster Healer
p2549
aVMana Leak
p2550
aVMaggot Carrier
p2551
aVMahamoti Djinn
p2552
aVMana Clash
p2553
aVMaro
p2554
aVMaster Decoy
p2555
aVMassacre
p2556
aVMana Cache
p2557
aVMarsh Threader
p2558
aVMarshal's Anthem
p2559
aVMarhault Elsdragon
p2560
aVManipulate Fate
p2561
aVMana Maze
p2562
aVMarauding Knight
p2563
aVMages' Contest
p2564
aVManiacal Rage
p2565
aVMagma Spray
p2566
aVMana Confluence
p2567
aVMarket Festival
p2568
aVMaster of the Feast
p2569
aVMadrush Cyclops
p2570
aVMaelstrom Nexus
p2571
aVMaelstrom Pulse
p2572
aVMage Slayer
p2573
aVMagefire Wings
p2574
aVMarisi's Twinclaws
p2575
aVMarrow Chomper
p2576
aVMask of Riddles
p2577
aVMayael's Aria
p2578
aVMagus of the Unseen
p2579
aVMana Flare
p2580
aVMagical Hack
p2581
aVMana Clash
p2582
aVMana Vault
p2583
aVManabarbs
p2584
aVMarsh Viper
p2585
aVMagister Sphinx
p2586
aVMakeshift Mannequin
p2587
aVMarch of the Machines
p2588
aVMaster Transmuter
p2589
aVMay Civilization Collapse
p2590
aVMantis Rider
p2591
aVMardu Ascendancy
p2592
aVMardu Banner
p2593
aVMardu Blazebringer
p2594
aVMardu Charm
p2595
aVMardu Hateblade
p2596
aVMardu Heart-Piercer
p2597
aVMardu Hordechief
p2598
aVMardu Roughrider
p2599
aVMardu Skullhunter
p2600
aVMardu Warshrieker
p2601
aVMaster of Pearls
p2602
aVMaster the Way
p2603
aVMarsh Casualties
p2604
aVMangara's Tome
p2605
aVMangara's Blessing
p2606
aVMangara's Equity
p2607
aVMalignant Growth
p2608
aVMana Prism
p2609
aVMarble Diamond
p2610
aVMaro
p2611
aVMaelstrom Archangel Avatar
p2612
aVMalfegor Avatar
p2613
aVMaralen of the Mornsong Avatar
p2614
aVMaraxus
p2615
aVMaro Avatar
p2616
aVMaster of the Wild Hunt Avatar
p2617
aVMayael the Anima Avatar
p2618
aVMake a Wish
p2619
aVMakeshift Mauler
p2620
aVManor Gargoyle
p2621
aVManor Skeleton
p2622
aVMarkov Patrician
p2623
aVMask of Avacyn
p2624
aVMausoleum Guard
p2625
aVMaw of the Mire
p2626
aVMayor of Avabruck
p2627
aVMagical Hack
p2628
aVMahamoti Djinn
p2629
aVMana Flare
p2630
aVMana Short
p2631
aVMana Vault
p2632
aVManabarbs
p2633
aVMagma Mine
p2634
aVMatopi Golem
p2635
aVMan-o'-War
p2636
aVMahamoti Djinn
p2637
aVMahamoti Djinn
p2638
aVMana Matrix
p2639
aVMana Vault
p2640
aVMartyr's Cry
p2641
aVMartyrs of Korlis
p2642
aVMaze of Ith
p2643
aVMaster of Cruelties
p2644
aVMaw of the Obzedat
p2645
aVMaze Abomination
p2646
aVMaze Behemoth
p2647
aVMaze Glider
p2648
aVMaze Rusher
p2649
aVMaze Sentinel
p2650
aVMaze's End
p2651
aVMask of the Mimic
p2652
aVMana Leak
p2653
aVMana Matrix
p2654
aVMarble Priest
p2655
aVMana Drain
p2656
aVMaster of the Hunt
p2657
aVMarhault Elsdragon
p2658
aVMagewright's Stone
p2659
aVMacabre Waltz
p2660
aVMagma Spray
p2661
aVMakeshift Mannequin
p2662
aVMarsh Flitter
p2663
aVMad Auntie
p2664
aVMasked Admirers
p2665
aVMagnetic Mountain
p2666
aVMagma Phoenix
p2667
aVMana Leak
p2668
aVManic Vandal
p2669
aVMaritime Guard
p2670
aVMass Polymorph
p2671
aVMarjhan
p2672
aVMammoth Harness
p2673
aVMarshaling the Troops
p2674
aVMa Chao, Western Warrior
p2675
aVMagma Jet
p2676
aVMan-o'-War
p2677
aVMalicious Advice
p2678
aVMarsh Crocodile
p2679
aVMagma Burst
p2680
aVMarch of Souls
p2681
aVMana Cylix
p2682
aVMagnigoth Treefolk
p2683
aVMaggot Carrier
p2684
aVMarkov Blademaster
p2685
aVMarkov Warlord
p2686
aVMarkov's Servant
p2687
asS'toughs'
p2688
(lp2689
V4
p2690
aV7
p2691
aV1
p2692
aV6
p2693
aS'N/A'
p2694
ag2694
ag2694
ag2694
ag2694
ag2692
ag2692
ag2694
ag2691
ag2694
ag2694
ag2694
ag2694
aV2
p2695
ag2694
aV*
p2696
aV3
p2697
ag2694
ag2692
ag2695
ag2694
ag2695
ag2697
ag2692
ag2694
ag2694
ag2694
ag2694
ag2697
ag2694
ag2694
ag2695
ag2694
ag2694
ag2694
ag2694
ag2694
ag2694
ag2694
ag2690
ag2690
ag2693
ag2692
ag2692
aV5
p2698
ag2692
ag2690
ag2695
ag2694
ag2694
ag2695
ag2694
ag2692
ag2694
ag2692
ag2690
aV0
p2699
ag2694
ag2697
ag2694
ag2694
ag2692
ag2692
ag2694
ag2692
ag2694
ag2695
ag2690
ag2697
ag2695
ag2694
ag2692
ag2694
ag2692
ag2694
ag2694
ag2694
ag2694
ag2698
ag2694
ag2694
ag2694
ag2694
ag2695
ag2692
ag2694
ag2690
aV1+*
p2700
ag2698
ag2694
ag2694
ag2694
ag2694
ag2692
ag2694
ag2694
ag2694
ag2692
ag2694
ag2693
ag2694
ag2694
ag2694
ag2694
ag2694
ag2694
ag2697
ag2694
ag2690
ag2694
ag2694
ag2694
ag2694
ag2694
aV8
p2701
ag2694
ag2698
ag2692
ag2694
ag2692
ag2697
ag2698
ag2690
ag2694
ag2692
ag2695
ag2697
aV11
p2702
ag2694
ag2692
ag2694
ag2694
ag2694
ag2694
ag2694
ag2694
ag2692
ag2692
ag2690
ag2694
ag2695
ag2690
ag2694
ag2693
ag2694
ag2694
ag2694
ag2695
ag2694
ag2695
ag2694
ag2694
ag2694
ag2697
ag2697
ag2694
ag2692
ag2694
ag2694
ag2695
ag2692
ag2694
ag2694
ag2694
ag2692
ag2694
ag2694
ag2698
ag2694
ag2694
ag2695
ag2694
ag2695
ag2697
ag2698
ag2694
ag2699
ag2694
ag2695
ag2694
ag2692
ag2690
ag2695
ag2695
ag2692
ag2695
ag2692
ag2695
ag2695
ag2694
ag2694
ag2694
ag2694
ag2694
ag2694
ag2698
ag2695
ag2694
ag2694
ag2694
ag2698
ag2695
ag2694
ag2697
ag2697
ag2692
ag2694
ag2694
ag2691
ag2694
ag2694
ag2694
ag2694
ag2694
ag2694
ag2692
ag2697
ag2694
ag2694
ag2692
ag2695
ag2694
ag2694
ag2694
ag2694
ag2696
ag2694
ag2694
ag2694
ag2694
ag2694
ag2694
ag2694
ag2694
ag2697
ag2692
ag2694
ag2694
ag2694
ag2697
ag2694
ag2694
ag2692
ag2694
ag2694
ag2695
ag2693
ag2694
ag2697
ag2694
ag2692
ag2697
ag2694
ag2694
ag2695
ag2694
ag2694
ag2694
ag2692
ag2697
ag2694
ag2698
ag2694
ag2694
ag2692
ag2694
ag2694
ag2694
ag2694
ag2692
ag2695
ag2695
ag2694
ag2697
ag2694
ag2694
ag2694
ag2692
ag2695
ag2692
ag2692
ag2697
ag2690
ag2692
ag2698
ag2694
ag2694
ag2694
ag2697
ag2697
ag2690
ag2692
ag2694
ag2694
ag2694
ag2693
ag2694
ag2694
ag2692
ag2695
ag2692
ag2692
ag2697
ag2694
ag2695
ag2695
ag2701
ag2699
ag2690
ag2694
ag2692
ag2692
ag2694
ag2695
ag2692
ag2694
ag2694
ag2690
ag2694
ag2696
ag2694
ag2694
ag2695
ag2694
ag2694
ag2694
ag2694
ag2694
ag2694
ag2691
ag2694
ag2694
ag2694
ag2694
ag2695
ag2692
ag2694
ag2694
ag2692
ag2694
ag2694
ag2694
ag2694
ag2694
ag2695
ag2694
ag2694
ag2694
ag2694
ag2694
ag2697
ag2694
ag2694
ag2690
ag2694
ag2692
ag2697
ag2697
ag2690
ag2692
ag2697
ag2695
ag2694
ag2694
ag2694
ag2694
ag2694
ag2694
ag2694
ag2694
ag2695
ag2694
ag2694
ag2694
ag2694
ag2694
ag2694
ag2694
ag2694
ag2697
ag2694
ag2692
ag2692
ag2694
ag2690
ag2694
ag2692
ag2694
ag2692
ag2694
ag2694
ag2694
ag2694
ag2694
ag2694
ag2695
aV10
p2703
ag2692
ag2694
ag2694
ag2694
ag2692
ag2694
ag2690
ag2697
ag2698
ag2690
ag2698
ag2697
ag2693
ag2694
ag2694
ag2694
ag2694
ag2694
ag2694
ag2692
ag2692
ag2694
ag2694
ag2694
ag2694
ag2692
ag2695
ag2697
ag2694
ag2693
ag2694
ag2697
ag2697
ag2694
ag2692
ag2694
ag2694
ag2697
ag2694
ag2695
ag2694
ag2690
ag2694
ag2694
ag2694
ag2695
ag2692
ag2695
ag2695
ag2694
asS'artists'
p2704
(lp2705
VJung Park
p2706
aVJim Murray
p2707
aVJason Chan
p2708
aVMike Bierek
p2709
aVRyan Pancoast
p2710
aVZoltan Boros & Gabor Szikszai
p2711
ag1639
ag1639
ag1639
ag1639
ag1639
aVJulie Baroh
p2712
aVDan Frazier
p2713
aVChristopher Rush
p2714
aVDameon Willich
p2715
aVMark Tedin
p2716
aVChristopher Rush
p2717
aVHeather Hudson
p2718
aVThomas Gianni
p2719
aVAdam Rex
p2720
aVJim Murray
p2721
aVPete Venters
p2722
aVKaja Foglio
p2723
aVJon J Muth
p2724
aVChristopher Rush
p2725
aVPhil Foglio
p2726
aVMark Zug
p2727
aVRyan Pancoast
p2728
aVWinona Nelson
p2729
aVGabor Szikszai
p2730
aVMike Bierek
p2731
aVDouglas Shuler
p2732
aVRon Spencer
p2733
aVSusan Van Camp
p2734
aVJulie Baroh
p2735
aVDan Frazier
p2736
aVMark Tedin
p2737
aVChristopher Rush
p2738
aVDameon Willich
p2739
aVMark Tedin
p2740
aVChristopher Rush
p2741
aVMartina Pilcerova
p2742
aVThomas M. Baxa
p2743
aVSteve Prescott
p2744
aVDon Hazeltine
p2745
aVRandy Gallegos
p2746
aVRob Alexander
p2747
aVWayne Reynolds
p2748
aVThomas M. Baxa
p2749
aVThomas M. Baxa
p2750
aVIzzy
p2751
aVMargaret Organ-Kean
p2752
aVMark Poole
p2753
aVMark Poole
p2754
aVVolkan Baga
p2755
aVIzzy
p2756
aVRaymond Swanland
p2757
aVJeff Miracola
p2758
aVKev Walker
p2759
aVTrevor Claxton
p2760
aVJesper Ejsing
p2761
aVWinona Nelson
p2762
aVMichael Komarck
p2763
aVAdam Rex
p2764
aVScott Kirschner
p2765
aVZina Saunders
p2766
aVTom Kyffin
p2767
aVTerese Nielsen
p2768
aVDaniel Gelon
p2769
aVD. Alexander Gregory
p2770
aVKaja Foglio
p2771
aVBrom
p2772
aVPhil Foglio
p2773
aVJohn Matson
p2774
aVBen Thompson
p2775
aVGreg Staples
p2776
aVJeff Miracola
p2777
aVLucio Parrillo
p2778
aVJohn Zeleznik
p2779
aVJeff Easley
p2780
aVAdam Rex
p2781
aVBrian Snoddy
p2782
aVJohn Stanko
p2783
aVMatt Stewart
p2784
aVMike Bierek
p2785
aVMargaret Organ-Kean
p2786
aVChristine Choi
p2787
aVJon J Muth
p2788
aVMatt Stewart
p2789
aVSteven Belledin
p2790
ag1639
ag1639
ag1639
ag1639
ag1639
aVDouglas Shuler
p2791
aVJeff A. Menges
p2792
aVQuinton Hoover
p2793
aVAnson Maddocks
p2794
aVMark Tedin
p2795
aVDouglas Shuler
p2796
aVRon Spencer
p2797
ag1639
ag1639
ag1639
aVAnthony S. Waters
p2798
aVGary Ruddell
p2799
aVGlen Angus
p2800
aVDouglas Shuler
p2801
aVMark Poole
p2802
aVYang Guangmai
p2803
aVMark Tedin
p2804
aVDan Frazier
p2805
aVJulie Baroh
p2806
aVSusan Van Camp
p2807
aVChristopher Rush
p2808
aVDameon Willich
p2809
aVChristopher Rush
p2810
aVKaja Foglio
p2811
aVMark Tedin
p2812
aVDaniel Gelon
p2813
aVAlex Horley-Orlandelli
p2814
aVRon Spencer
p2815
aVBen Thompson
p2816
aVCarl Critchlow
p2817
aVBrom
p2818
aVGreg Staples
p2819
aVChristopher Rush
p2820
aVStuart Griffin
p2821
aVAdam Rex
p2822
aVDaarken
p2823
aVCyril Van Der Haegen
p2824
aVSteven Belledin
p2825
aVJason Chan
p2826
aVHoward Lyon
p2827
aVJeremy Jarvis
p2828
aVBrandon Kitkouski
p2829
aVSal Villagran
p2830
aVGreg Staples
p2831
aVChippy
p2832
aVSteve Argyle
p2833
aVWayne Reynolds
p2834
aVKev Walker
p2835
aVJung Park
p2836
aVJason A. Engle
p2837
aVChristopher Moeller
p2838
aVGreg Staples
p2839
ag1639
ag1639
ag1639
ag1639
aVWayne Reynolds
p2840
aVWinona Nelson
p2841
aVDavid Palumbo
p2842
aVChristopher Moeller
p2843
aVEdward P. Beard, Jr.
p2844
aVYeong-Hao Han
p2845
aVWayne Reynolds
p2846
aVAlan Pollack
p2847
aVEdward P. Beard, Jr.
p2848
aVBen Thompson
p2849
aVHeather Hudson
p2850
aVAlex Horley-Orlandelli
p2851
aVMartina Pilcerova
p2852
aVCarl Critchlow
p2853
aVPaolo Parente
p2854
aVKev Walker
p2855
aVThomas M. Baxa
p2856
aVRon Spencer
p2857
aVMichael Sutfin
p2858
aVJohn Zeleznik
p2859
aVAdam Rex
p2860
aVGreg Staples
p2861
aVZoltan Boros & Gabor Szikszai
p2862
aVDarrell Riche
p2863
aVTsutomu Kawade
p2864
aVThomas M. Baxa
p2865
aVTyler Jacobson
p2866
aVJason A. Engle
p2867
aVCarl Critchlow
p2868
aVJason Chan
p2869
aVGlen Angus
p2870
aVTerese Nielsen
p2871
aVAlex Horley-Orlandelli
p2872
aVRon Spencer
p2873
aVCarl Critchlow
p2874
aVDaniel Gelon
p2875
aVZoltan Boros & Gabor Szikszai
p2876
aVTerese Nielsen
p2877
aVChristopher Moeller
p2878
aVGreg Staples
p2879
aVZoltan Boros & Gabor Szikszai
p2880
aVJeremy Jarvis
p2881
aVMike Bierek
p2882
aVTyler Jacobson
p2883
aVAnthony Palumbo
p2884
aVMathias Kollros
p2885
aVRaymond Swanland
p2886
aVZoltan Boros
p2887
aVWillian Murai
p2888
aVJohn Matson
p2889
aVStephen Daniele
p2890
aVRebecca Guay
p2891
aVPete Venters
p2892
aVE. M. Gist
p2893
aVDan Scott
p2894
aVMatt Cavotta
p2895
aVWayne England
p2896
aVRalph Horsley
p2897
aVRandy Gallegos
p2898
aVSteven Belledin
p2899
aVJulie Baroh
p2900
aVDan Frazier
p2901
aVChristopher Rush
p2902
aVDameon Willich
p2903
aVMark Tedin
p2904
aVChristopher Rush
p2905
aVChristopher Rush
p2906
aVDameon Willich
p2907
aVKaja Foglio
p2908
aVDaren Bader
p2909
aVJung Park
p2910
aVEric Deschamps
p2911
aVHoward Lyon
p2912
aVShelly Wan
p2913
aVMike Bierek
p2914
aVScott Chou
p2915
aVIzzy
p2916
aVChristopher Rush
p2917
aVStuart Griffin
p2918
aVMargaret Organ-Kean
p2919
aVJeff Miracola
p2920
aVDameon Willich
p2921
aVAlan Pollack
p2922
aVPaolo Parente
p2923
aVAdam Rex
p2924
aVBen Thompson
p2925
aVMatt Cavotta
p2926
aVDaarken
p2927
aVJason Chan
p2928
aVMatt Cavotta
p2929
aVJarreau Wimberly
p2930
aVHoward Lyon
p2931
aVKev Walker
p2932
aVGary Ruddell
p2933
aVGreg Staples
p2934
aVEric Peterson
p2935
aVLarry Elmore
p2936
aVDavid Martin
p2937
aVPete Venters
p2938
aVGreg & Tim Hildebrandt
p2939
aVBradley Williams
p2940
aVBrom
p2941
aVMark Romanoski
p2942
aVHeather Hudson
p2943
aVGreg Staples
p2944
aVDavid Palumbo
p2945
aVBrandon Kitkouski
p2946
aVMatt Stewart
p2947
aVJeff Laubenstein
p2948
aVAlan Rabinowitz
p2949
aVWayne England
p2950
aVKarl Kopinski
p2951
aVIzzy
p2952
aVHoward Lyon
p2953
aVMatthew D. Wilson
p2954
aVMark Tedin
p2955
aVFred Fields
p2956
aVIzzy
p2957
aVBrandon Kitkouski
p2958
aVTerese Nielsen & Ron Spencer
p2959
aVJeff Miracola
p2960
ag1639
ag1639
ag1639
aVUna Fricker
p2961
aVDave Dorman
p2962
aVNottsuo
p2963
aVJustin Sweet
p2964
aVMartina Pilcerova
p2965
aVVance Kovacs
p2966
aVKev Walker
p2967
aVAnthony Francisco
p2968
aVJohn Avon
p2969
aVFranz Vohwinkel
p2970
aVJim Murray
p2971
aVHideaki Takamura
p2972
aVLucio Parrillo
p2973
aVMichael Weaver
p2974
aVLars Grant-West
p2975
aVAlan Pollack
p2976
aVMatt Cavotta
p2977
aVWayne England
p2978
aVRon Spears
p2979
aVDaren Bader
p2980
aVMark Nelson
p2981
aVChristopher Rush
p2982
aVMaciej Kuciara
p2983
aVMark Zug
p2984
aVKarl Kopinski
p2985
aVHannibal King
p2986
aVBryan Talbot
p2987
aVUna Fricker
p2988
aVAdrian Smith
p2989
aVDan Frazier
p2990
aVJohn Stanko
p2991
aVChristopher Moeller
p2992
aVMartina Pilcerova
p2993
aVMatt Stewart
p2994
aVTyler Jacobson
p2995
aVLucas Graciano
p2996
aVDan Scott
p2997
aVGreg & Tim Hildebrandt
p2998
aVChristopher Rush
p2999
aVRon Spencer
p3000
aVEric Peterson
p3001
aVRon Spencer
p3002
aVStuart Griffin
p3003
aVBen Thompson
p3004
aVPete Venters
p3005
aVrk post
p3006
aVDavid Palumbo
p3007
aVMatt Stewart
p3008
aVMark Poole
p3009
aVJohn Matson
p3010
aVRebecca Guay
p3011
aVDaren Bader
p3012
aVBradley Williams
p3013
aVMatt Cavotta
p3014
aVRichard Wright
p3015
aVRichard Wright
p3016
aVRyan Barger
p3017
aVChris Rahn
p3018
aVWayne Reynolds
p3019
aVSteven Belledin
p3020
aVAnthony Francisco
p3021
aVLars Grant-West
p3022
aVZoltan Boros & Gabor Szikszai
p3023
aVIzzy
p3024
aVLars Grant-West
p3025
aVMatt Cavotta
p3026
aVSteve Argyle
p3027
aVKaja Foglio
p3028
aVChristopher Rush
p3029
aVJulie Baroh
p3030
aVMark Tedin
p3031
aVMark Tedin
p3032
aVGreg Simanson
p3033
aVRon Spencer
p3034
aVSteven Belledin
p3035
aVDarrell Riche
p3036
aVBen Thompson
p3037
aVChippy
p3038
aVJohn Matson
p3039
aVJohann Bodin
p3040
aVJason Chan
p3041
aVDaniel Ljunggren
p3042
aVPeter Mohrbacher
p3043
aVMathias Kollros
p3044
aVRyan Alexander Lee
p3045
aVKarl Kopinski
p3046
aVTorstein Nordstrand
p3047
aVKev Walker
p3048
aVJason Rainville
p3049
aVYefim Kligerman
p3050
aVDavid Gaillet
p3051
aVHoward Lyon
p3052
aVScott Chou
p3053
aVJohn Bolton
p3054
aVDavid A. Cherry
p3055
aVAlan Rabinowitz
p3056
aVScott M. Fischer
p3057
aVMargaret Organ-Kean
p3058
aVJeff Miracola
p3059
aVStuart Griffin
p3060
aVUDON
p3061
aVUDON
p3062
aVUDON
p3063
aVMatthew Wilson
p3064
aVUDON
p3065
aVUDON
p3066
aVUDON
p3067
aVHoward Lyon
p3068
aVJames Ryman
p3069
aVMatt Stewart
p3070
aVEric Deschamps
p3071
aVJana Schirmer & Johannes Voss
p3072
aVJames Paick
p3073
aVDavid Palumbo
p3074
aVVincent Proce
p3075
aVSvetlin Velinov
p3076
aVJulie Baroh
p3077
aVDan Frazier
p3078
aVChristopher Rush
p3079
aVDameon Willich
p3080
aVMark Tedin
p3081
aVChristopher Rush
p3082
aVRon Spencer
p3083
aVTom Kyffin
p3084
aVJon J Muth
p3085
aVDan Frazier
p3086
aVDan Frazier
p3087
aVMark Tedin
p3088
aVMark Tedin
p3089
aVJeff A. Menges
p3090
aVMargaret Organ-Kean
p3091
aVAnson Maddocks
p3092
aVChase Stone
p3093
aVRandy Gallegos
p3094
aVYeong-Hao Han
p3095
aVYeong-Hao Han
p3096
aVYeong-Hao Han
p3097
aVYeong-Hao Han
p3098
aVYeong-Hao Han
p3099
aVCliff Childs
p3100
aVHeather Hudson
p3101
aVChristopher Rush
p3102
aVMark Tedin
p3103
aVMelissa Benson
p3104
aVMark Tedin
p3105
aVJeff A. Menges
p3106
aVMark Poole
p3107
aVHiroshi Tanigawa
p3108
aVJim Murray
p3109
aVJarreau Wimberly
p3110
aVDarrell Riche
p3111
aVWayne Reynolds
p3112
aVWayne Reynolds
p3113
aVEric Fortune
p3114
aVSusan Van Camp
p3115
aVRaymond Swanland
p3116
aVHoward Lyon
p3117
aVChristopher Moeller
p3118
aVAllen Williams
p3119
aVChristopher Moeller
p3120
aVDaniel Gelon
p3121
aVMelissa Benson
p3122
aVLiu Shangying
p3123
aVKoji
p3124
aVJustin Sweet
p3125
aVUna Fricker
p3126
aVGlen Angus
p3127
aVKev Walker
p3128
aVBradley Williams
p3129
aVMarc Fishman
p3130
aVDonato Giancola
p3131
aVPeter Bollinger
p3132
aVRon Spencer
p3133
aVSteve Argyle
p3134
aVJason A. Engle
p3135
aVChris Rahn
p3136
asS'powers'
p3137
(lp3138
g2691
ag2692
ag2693
ag2698
ag2694
ag2694
ag2694
ag2694
ag2694
ag2695
ag2695
ag2694
ag2691
ag2694
ag2694
ag2694
ag2694
ag2695
ag2694
ag2696
ag2697
ag2694
ag2692
ag2695
ag2694
ag2692
ag2695
ag2695
ag2694
ag2694
ag2694
ag2694
ag2695
ag2694
ag2694
ag2695
ag2694
ag2694
ag2694
ag2694
ag2694
ag2694
ag2694
ag2695
ag2690
ag2695
ag2699
ag2692
ag2698
ag2692
ag2695
ag2695
ag2694
ag2694
ag2690
ag2694
ag2692
ag2694
ag2697
ag2690
ag2692
ag2694
ag2698
ag2694
ag2694
ag2695
ag2697
ag2694
ag2692
ag2694
ag2695
ag2695
ag2697
ag2695
ag2694
ag2692
ag2694
ag2699
ag2694
ag2694
ag2694
ag2694
ag2692
ag2694
ag2694
ag2694
ag2694
ag2693
ag2690
ag2694
ag2697
ag2696
ag2698
ag2694
ag2694
ag2694
ag2694
ag2692
ag2694
ag2694
ag2694
ag2697
ag2694
ag2690
ag2694
ag2694
ag2694
ag2694
ag2694
ag2694
ag2692
ag2694
ag2690
ag2694
ag2694
ag2694
ag2694
ag2694
ag2701
ag2694
ag2698
ag2692
ag2694
ag2692
ag2697
ag2698
ag2690
ag2694
ag2692
ag2695
ag2690
ag2691
ag2694
ag2692
ag2694
ag2694
ag2694
ag2694
ag2694
ag2694
ag2692
ag2695
ag2690
ag2694
ag2695
ag2696
ag2694
ag2693
ag2694
ag2694
ag2694
ag2695
ag2694
ag2695
ag2694
ag2694
ag2694
ag2695
ag2692
ag2694
ag2695
ag2694
ag2694
ag2692
ag2692
ag2694
ag2694
ag2694
ag2699
ag2694
ag2694
ag2693
ag2694
ag2694
ag2699
ag2694
ag2695
ag2692
ag2698
ag2694
ag2699
ag2694
ag2692
ag2694
ag2692
ag2692
ag2695
ag2695
ag2692
ag2695
ag2692
ag2692
ag2690
ag2694
ag2694
ag2694
ag2694
ag2694
ag2694
ag2690
ag2697
ag2694
ag2694
ag2694
ag2690
ag2695
ag2694
ag2697
ag2697
ag2695
ag2694
ag2694
ag2691
ag2694
ag2694
ag2694
ag2694
ag2694
ag2694
ag2697
ag2695
ag2694
ag2694
ag2695
ag2699
ag2694
ag2694
ag2694
ag2694
ag2696
ag2694
ag2694
ag2694
ag2694
ag2694
ag2694
ag2694
ag2694
ag2699
ag2695
ag2694
ag2694
ag2694
ag2697
ag2694
ag2694
ag2692
ag2694
ag2694
ag2695
ag2698
ag2694
ag2697
ag2694
ag2692
ag2690
ag2694
ag2694
ag2692
ag2694
ag2694
ag2694
ag2697
ag2690
ag2694
ag2698
ag2694
ag2694
ag2692
ag2694
ag2694
ag2694
ag2694
ag2697
ag2695
ag2695
ag2694
ag2697
ag2694
ag2694
ag2694
ag2692
ag2699
ag2692
ag2692
ag2699
ag2690
ag2695
ag2698
ag2694
ag2694
ag2694
ag2697
ag2695
ag2690
ag2692
ag2694
ag2694
ag2694
ag2697
ag2694
ag2694
ag2697
ag2695
ag2692
ag2690
ag2695
ag2694
ag2695
ag2701
ag2699
ag2695
ag2692
ag2694
ag2692
ag2690
ag2694
ag2695
ag2692
ag2694
ag2694
ag2692
ag2694
ag2696
ag2694
ag2694
ag2695
ag2694
ag2694
ag2694
ag2694
ag2694
ag2694
ag2691
ag2694
ag2694
ag2694
ag2694
ag2695
ag2699
ag2694
ag2694
ag2692
ag2694
ag2694
ag2694
ag2694
ag2694
ag2695
ag2694
ag2694
ag2694
ag2694
ag2694
ag2697
ag2694
ag2694
ag2690
ag2694
ag2692
ag2695
ag2695
ag2698
ag2695
ag2697
ag2695
ag2694
ag2694
ag2694
ag2694
ag2694
ag2694
ag2694
ag2694
ag2695
ag2694
ag2694
ag2694
ag2694
ag2694
ag2694
ag2694
ag2694
ag2692
ag2694
ag2697
ag2697
ag2694
ag2697
ag2694
ag2693
ag2694
ag2692
ag2694
ag2694
ag2694
ag2694
ag2694
ag2694
ag2695
aV10
p3139
ag2692
ag2694
ag2694
ag2694
ag2695
ag2694
ag2692
ag2697
ag2690
ag2698
ag2697
ag2693
ag2697
ag2694
ag2694
ag2694
ag2694
ag2694
ag2694
ag2692
ag2695
ag2694
ag2694
ag2694
ag2694
ag2692
ag2695
ag2697
ag2694
ag2695
ag2694
ag2692
ag2697
ag2694
ag2692
ag2694
ag2694
ag2697
ag2694
ag2695
ag2694
ag2690
ag2694
ag2694
ag2694
ag2695
ag2692
ag2695
ag2692
ag2694
asS'types'
p3140
(lp3141
VCreature - Elemental
p3142
aVCreature - Human Wizard
p3143
aVLegendary Creature - Demon Dragon
p3144
aVCreature - Dragon
p3145
aVEnchantment
p3146
aVInstant
p3147
aVInstant
p3148
aVEnchantment
p3149
aVArtifact
p3150
aVCreature - Human Warrior
p3151
aVCreature - Human Rogue
p3152
aVInstant
p3153
aVCreature - Djinn
p3154
aVEnchantment
p3155
aVInstant
p3156
aVArtifact
p3157
aVEnchantment
p3158
aVCreature - Snake Warrior Archer
p3159
aVArtifact - Equipment
p3160
aVLegendary Creature - Spirit
p3161
aVLegendary Creature - Human Wizard
p3162
aVEnchantment - Aura
p3163
aVCreature - Merfolk
p3164
aVCreature - Jellyfish
p3165
aVInstant
p3166
aVCreature - Human Soldier
p3167
aVLegendary Creature - Elf Wizard
p3168
aVCreature - Merfolk
p3169
aVEnchantment - Aura
p3170
aVInstant
p3171
aVSorcery
p3172
aVInstant
p3173
aVCreature - Snake
p3174
aVEnchantment
p3175
aVInstant
p3176
aVCreature - Djinn
p3177
aVSorcery
p3178
aVEnchantment
p3179
aVInstant
p3180
aVArtifact
p3181
aVEnchantment
p3182
aVInstant
p3183
aVEnchantment - Aura
p3184
aVCreature - Angel
p3185
aVCreature - Human Wizard
p3186
aVCreature - Human Wizard
p3187
aVCreature - Human Wizard
p3188
aVCreature - Human Wizard
p3189
aVCreature - Human Wizard
p3190
aVLegendary Creature - Elemental
p3191
aVCreature - Cat Warrior
p3192
aVCreature - Human
p3193
aVInstant
p3194
aVInstant
p3195
aVCreature - Giant
p3196
aVArtifact - Equipment
p3197
aVCreature - Phoenix
p3198
aVEnchantment
p3199
aVCreature - Human Shaman
p3200
aVCreature - Sliver
p3201
aVCreature - Beast
p3202
aVEnchantment - Aura
p3203
aVCreature - Human Scout
p3204
aVArtifact
p3205
aVArtifact Creature - Construct
p3206
aVCreature - Imp
p3207
aVCreature - Beast
p3208
aVSorcery
p3209
aVCreature - Elemental Lizard
p3210
aVLand
p3211
aVCreature - Merfolk
p3212
aVCreature - Giant
p3213
aVCreature - Human Soldier
p3214
aVCreature - Beast
p3215
aVEnchantment
p3216
aVCreature - Djinn
p3217
aVEnchantment
p3218
aVCreature - Zombie Warrior
p3219
aVArtifact Creature - Insect
p3220
aVEnchantment - Aura
p3221
aVArtifact
p3222
aVEnchantment
p3223
aVCreature - Angel
p3224
aVArtifact
p3225
aVInstant
p3226
aVArtifact
p3227
aVArtifact
p3228
aVCreature - Jellyfish
p3229
aVLegendary Creature - Human Wizard
p3230
aVArtifact Creature - Masticore
p3231
aVCreature - Goblin Shaman
p3232
aVCreature - Faerie Rogue
p3233
aVCreature - Elf Shaman
p3234
aVInstant
p3235
aVSorcery
p3236
aVEnchantment
p3237
aVSorcery
p3238
aVCreature - Goblin
p3239
aVLand
p3240
aVSorcery
p3241
aVInstant
p3242
aVCreature - Snake
p3243
aVArtifact
p3244
aVCreature - Wurm
p3245
aVInstant
p3246
aVEnchantment
p3247
aVEnchantment - Aura
p3248
aVArtifact
p3249
aVInstant
p3250
aVEnchantment
p3251
aVLegendary Creature - Elf Warrior
p3252
aVArtifact
p3253
aVCreature - Djinn
p3254
aVInstant
p3255
aVEnchantment
p3256
aVEnchantment
p3257
aVInstant
p3258
aVEnchantment
p3259
aVCreature - Human Wizard
p3260
aVArtifact
p3261
aVCreature - Leviathan
p3262
aVCreature - Spirit
p3263
aVSorcery
p3264
aVCreature - Human Soldier
p3265
aVCreature - Lhurgoyf
p3266
aVCreature - Giant
p3267
aVCreature - Djinn
p3268
aVInstant
p3269
aVCreature - Elemental
p3270
aVCreature - Human Cleric
p3271
aVCreature - Giant Warrior
p3272
aVCreature - Angel
p3273
aVArtifact Creature - Sphinx
p3274
aVLegendary Creature - Demon Dragon
p3275
aVArtifact
p3276
aVArtifact - Equipment
p3277
aVEnchantment - Aura
p3278
aVEnchantment
p3279
aVSorcery
p3280
aVArtifact Creature - Human Artificer
p3281
aVCreature - Human Warrior
p3282
aVCreature - Zombie
p3283
aVCreature - Human Shaman
p3284
aVEnchantment - Aura
p3285
aVCreature - Elemental Spirit
p3286
aVCreature - Bat Skeleton
p3287
aVSorcery
p3288
aVLegendary Creature - Elemental
p3289
aVEnchantment - Aura
p3290
aVSorcery
p3291
aVSorcery
p3292
aVCreature - Human Shaman
p3293
aVEnchantment - Aura
p3294
aVCreature - Human Scout
p3295
aVEnchantment
p3296
aVInstant
p3297
aVLand
p3298
aVLegendary Creature - Rat Rogue
p3299
aVCreature - Snake Warrior
p3300
aVSorcery
p3301
aVLegendary Creature - Human Advisor
p3302
aVEnchantment - Aura
p3303
aVEnchantment - Aura
p3304
aVLegendary Creature - Spirit
p3305
aVCreature - Snake Warrior Archer
p3306
aVArtifact Creature - Masticore
p3307
aVEnchantment - Aura
p3308
aVEnchantment - Aura
p3309
aVCreature - Insect
p3310
aVInstant
p3311
aVArtifact Creature - Insect
p3312
aVCreature - Human Cleric
p3313
aVSorcery
p3314
aVInstant
p3315
aVCreature - Ogre Rogue
p3316
aVEnchantment - Aura
p3317
aVCreature - Human Wizard
p3318
aVLegendary Creature - Elemental Beast
p3319
aVCreature - Bat Skeleton
p3320
aVSorcery
p3321
aVLegendary Creature - Elf Shaman
p3322
aVEnchantment
p3323
aVCreature - Human Cleric
p3324
aVEnchantment
p3325
aVCreature - Hound
p3326
aVCreature - Lhurgoyf
p3327
aVCreature - Leech
p3328
aVLegendary Creature - Human Wizard
p3329
aVCreature - Human Wizard
p3330
aVCreature - Human Wizard
p3331
aVCreature - Human Wizard
p3332
aVCreature - Human Wizard
p3333
aVCreature - Human Wizard
p3334
aVEnchantment
p3335
aVEnchantment
p3336
aVEnchantment - Aura
p3337
aVSorcery
p3338
aVInstant
p3339
aVInstant
p3340
aVCreature - Elf Wizard
p3341
aVCreature - Human Wizard
p3342
aVEnchantment
p3343
aVEnchantment
p3344
aVEnchantment - Aura
p3345
aVCreature - Human Wizard
p3346
aVCreature - Human Shaman
p3347
aVEnchantment
p3348
aVCreature - Human Wizard
p3349
aVCreature - Human Shaman
p3350
aVCreature - Human Cleric
p3351
aVArtifact Creature - Masticore
p3352
aVInstant
p3353
aVCreature - Djinn
p3354
aVEnchantment
p3355
aVInstant
p3356
aVArtifact
p3357
aVEnchantment
p3358
aVArtifact
p3359
aVEnchantment - Aura
p3360
aVCreature - Human Wizard
p3361
aVLegendary Creature - Bird Soldier
p3362
aVSorcery
p3363
aVLand
p3364
aVCreature - Kor Soldier Ally
p3365
aVCreature - Vampire Shaman
p3366
aVSorcery
p3367
aVSorcery
p3368
aVLand
p3369
aVEnchantment
p3370
aVCreature - Elemental
p3371
aVArtifact
p3372
aVArtifact
p3373
aVInstant
p3374
aVArtifact - Equipment
p3375
aVArtifact Creature - Golem
p3376
aVEnchantment
p3377
aVEnchantment
p3378
aVArtifact Creature - Vedalken Wizard
p3379
aVCreature - Ooze
p3380
aVLegendary Creature - Elf Shaman
p3381
aVArtifact Creature - Vedalken Wizard
p3382
aVInstant
p3383
aVArtifact
p3384
aVCreature - Beast
p3385
aVEnchantment
p3386
aVInstant
p3387
aVCreature - Djinn
p3388
aVSorcery
p3389
aVArtifact
p3390
aVCreature - Elemental
p3391
aVCreature - Human Cleric
p3392
aVEnchantment - Aura
p3393
aVLegendary Creature - Human Spellshaper
p3394
aVSorcery
p3395
aVCreature - Snake
p3396
aVCreature - Djinn
p3397
aVEnchantment - Aura
p3398
aVSorcery
p3399
aVCreature - Sphinx
p3400
aVEnchantment
p3401
aVInstant
p3402
aVInstant
p3403
aVCreature - Elemental
p3404
aVCreature - Griffin
p3405
aVEnchantment - Aura
p3406
aVCreature - Gorgon
p3407
aVArtifact
p3408
aVLand - Mountain
p3409
aVCreature - Elemental Shaman
p3410
aVSorcery
p3411
aVEnchantment
p3412
aVInstant
p3413
aVInstant
p3414
aVCreature - Human Artificer
p3415
aVCreature - Human Artificer
p3416
aVCreature - Jellyfish
p3417
aVInstant
p3418
aVCreature - Giant
p3419
aVInstant
p3420
aVSorcery
p3421
aVSorcery
p3422
aVCreature - Human Wizard
p3423
aVCreature - Human Wizard
p3424
aVCreature - Human Wizard
p3425
aVCreature - Human Wizard
p3426
aVCreature - Human Wizard
p3427
aVCreature - Djinn
p3428
aVCreature - Zombie Warrior
p3429
aVCreature - Giant
p3430
aVArtifact - Equipment
p3431
aVArtifact - Equipment
p3432
aVArtifact Creature - Vedalken Wizard
p3433
aVCreature - Sliver
p3434
aVCreature - Human Wizard
p3435
aVCreature - Beast
p3436
aVCreature - Leech
p3437
aVEnchantment
p3438
aVInstant
p3439
aVSorcery
p3440
aVCreature - Merfolk Wizard
p3441
aVArtifact
p3442
aVEnchantment - Aura
p3443
aVCreature - Fish
p3444
aVLegendary Creature - Human Warrior
p3445
aVCreature - Human Soldier
p3446
aVCreature - Angel
p3447
aVCreature - Human Wizard
p3448
aVSorcery
p3449
aVLegendary Creature - Human Wizard
p3450
aVCreature - Human Rogue
p3451
aVCreature - Human Rogue
p3452
aVCreature - Human Rogue
p3453
aVCreature - Human Cleric
p3454
aVInstant
p3455
aVCreature - Zombie
p3456
aVCreature - Djinn
p3457
aVSorcery
p3458
aVCreature - Elemental
p3459
aVCreature - Human Soldier
p3460
aVSorcery
p3461
aVEnchantment
p3462
aVCreature - Kor Scout
p3463
aVEnchantment
p3464
aVLegendary Creature - Elf Warrior
p3465
aVSorcery
p3466
aVEnchantment
p3467
aVCreature - Zombie Knight
p3468
aVInstant
p3469
aVEnchantment - Aura
p3470
aVInstant
p3471
aVLand
p3472
aVEnchantment - Aura
p3473
aVEnchantment Creature - Demon
p3474
aVCreature - Cyclops Warrior
p3475
aVEnchantment
p3476
aVSorcery
p3477
aVArtifact - Equipment
p3478
aVEnchantment - Aura
p3479
aVCreature - Cat Warrior
p3480
aVCreature - Zombie Lizard
p3481
aVArtifact - Equipment
p3482
aVEnchantment
p3483
aVCreature - Human Wizard
p3484
aVEnchantment
p3485
aVInstant
p3486
aVSorcery
p3487
aVArtifact
p3488
aVEnchantment
p3489
aVCreature - Snake
p3490
aVArtifact Creature - Sphinx
p3491
aVInstant
p3492
aVEnchantment
p3493
aVArtifact Creature - Human Artificer
p3494
aVScheme
p3495
aVCreature - Human Monk
p3496
aVEnchantment
p3497
aVArtifact
p3498
aVCreature - Ogre Warrior
p3499
aVInstant
p3500
aVCreature - Human Warrior
p3501
aVCreature - Human Archer
p3502
aVCreature - Human Warrior
p3503
aVCreature - Orc Warrior
p3504
aVCreature - Human Warrior
p3505
aVCreature - Orc Shaman
p3506
aVCreature - Human Monk
p3507
aVSorcery
p3508
aVSorcery
p3509
aVArtifact
p3510
aVInstant
p3511
aVEnchantment
p3512
aVEnchantment
p3513
aVArtifact
p3514
aVArtifact
p3515
aVCreature - Elemental
p3516
aVVanguard
p3517
aVVanguard
p3518
aVVanguard
p3519
aVVanguard
p3520
aVVanguard
p3521
aVVanguard
p3522
aVVanguard
p3523
aVSorcery
p3524
aVCreature - Zombie Horror
p3525
aVArtifact Creature - Gargoyle
p3526
aVCreature - Skeleton
p3527
aVCreature - Vampire
p3528
aVArtifact - Equipment
p3529
aVCreature - Human Scout
p3530
aVSorcery
p3531
aVCreature - Human Advisor Werewolf
p3532
aVInstant
p3533
aVCreature - Djinn
p3534
aVEnchantment
p3535
aVInstant
p3536
aVArtifact
p3537
aVEnchantment
p3538
aVArtifact
p3539
aVArtifact Creature - Golem
p3540
aVCreature - Jellyfish
p3541
aVCreature - Djinn
p3542
aVCreature - Djinn
p3543
aVArtifact
p3544
aVArtifact
p3545
aVSorcery
p3546
aVCreature - Human
p3547
aVLand
p3548
aVCreature - Demon
p3549
aVCreature - Thrull
p3550
aVCreature - Elemental
p3551
aVCreature - Elemental
p3552
aVCreature - Elemental
p3553
aVCreature - Elemental
p3554
aVCreature - Elemental
p3555
aVLand
p3556
aVInstant
p3557
aVInstant
p3558
aVArtifact
p3559
aVArtifact Creature - Cleric
p3560
aVInstant
p3561
aVCreature - Human
p3562
aVLegendary Creature - Elf Warrior
p3563
aVArtifact
p3564
aVSorcery
p3565
aVInstant
p3566
aVInstant
p3567
aVCreature - Faerie Rogue
p3568
aVCreature - Goblin Shaman
p3569
aVCreature - Elf Shaman
p3570
aVEnchantment
p3571
aVCreature - Phoenix
p3572
aVInstant
p3573
aVCreature - Human Warrior
p3574
aVCreature - Merfolk Soldier
p3575
aVSorcery
p3576
aVCreature - Leviathan
p3577
aVEnchantment - Aura
p3578
aVSorcery
p3579
aVLegendary Creature - Human Soldier Warrior
p3580
aVInstant
p3581
aVCreature - Jellyfish
p3582
aVInstant
p3583
aVCreature - Crocodile
p3584
aVInstant
p3585
aVSorcery
p3586
aVArtifact
p3587
aVCreature - Treefolk
p3588
aVCreature - Zombie
p3589
aVCreature - Vampire Warrior
p3590
aVCreature - Vampire Warrior
p3591
aVTransform Creature - Vampire
p3592
asS'numbers'
p3593
(lp3594
V128
p3595
aV166
p3596
aV208
p3597
aV129
p3598
aV19
p3599
aV209
p3600
aV63
p3601
aV150
p3602
aV212
p3603
aV151
p3604
aV64
p3605
aV165
p3606
aV166
p3607
aV167
p3608
aV168
p3609
aV169
p3610
aV170
p3611
aV137
p3612
aV156
p3613
aV136
p3614
aV81
p3615
ag2692
aV14
p3616
aV18
p3617
aV88
p3618
aV89
p3619
aV65
p3620
aV59
p3621
aV99
p3622
aV140
p3623
aV141
p3624
aV55
p3625
aV86
p3626
aV111
p3627
aV263
p3628
aV264
p3629
aV265
p3630
aV266
p3631
aV267
p3632
aV268
p3633
aV269
p3634
aV25
p3635
aV9
p3636
aV24
p3637
aV73
p3638
ag2701
aV43
p3639
aV134
p3640
aV104
p3641
aV11
p3642
aV17
p3643
aV31
p3644
aV98
p3645
aV166
p3646
aV76
p3647
aV214
p3648
aV148
p3649
aV149
p3650
aV191
p3651
aV184
p3652
aV145
p3653
aV105
p3654
aV24
p3655
aV18
p3656
aV19
p3657
aV59
p3658
aV60
p3659
aV82
p3660
aV157
p3661
aV216
p3662
aV284
p3663
aV285
p3664
aV286
p3665
aV287
p3666
aV91
p3667
aV90
p3668
aV218
p3669
aV156
p3670
aV333
p3671
aV145
p3672
aV304
p3673
aV204
p3674
aV255
p3675
aV272
p3676
aV78
p3677
aV273
p3678
aV274
p3679
aV79
p3680
aV256
p3681
aV275
p3682
ag1639
ag1639
ag1639
ag1639
ag1639
aV29
p3683
aV62
p3684
aV67
p3685
aV70
p3686
aV102
p3687
aV103
p3688
aV104
p3689
aV113
p3690
aV46
p3691
aV13
p3692
aV110
p3693
aV14
p3694
aV138
p3695
aV43
p3696
aV44
p3697
aV161
p3698
aV10
p3699
aV28
p3700
aV184
p3701
aV185
p3702
aV186
p3703
aV187
p3704
aV188
p3705
aV53
p3706
aV214
p3707
aV54
p3708
aV12
p3709
aV203
p3710
aV27
p3711
aV202
p3712
aV26
p3713
aV85
p3714
aV86
p3715
aV254
p3716
aV28
p3717
aV69
p3718
aV115
p3719
aV116
p3720
aV117
p3721
aV138
p3722
aV139
p3723
aV68
p3724
aV10
p3725
aV11
p3726
aV31
p3727
aV84
p3728
aV112
p3729
aV146
p3730
aV147
p3731
aV148
p3732
aV113
p3733
aV66
p3734
aV115
p3735
aV116
p3736
aV117
p3737
aV118
p3738
aV51
p3739
aV29
p3740
aV13
p3741
aV218
p3742
aV91
p3743
aV10
p3744
aV124
p3745
aV227
p3746
aV179
p3747
aV33
p3748
aV73
p3749
aV135
p3750
aV112
p3751
aV136
p3752
aV134
p3753
aV11
p3754
aV93
p3755
aV112
p3756
aV111
p3757
aV133
p3758
aV12
p3759
ag3636
aV250
p3760
aV94
p3761
aV58
p3762
aV115
p3763
aV198
p3764
aV82
p3765
aV116
p3766
aV199
p3767
aV203
p3768
aV32
p3769
aV147
p3770
aV202
p3771
aV204
p3772
aV117
p3773
aV28
p3774
aV203
p3775
aV116
p3776
aV169
p3777
aV67
p3778
aV27
p3779
aV130
p3780
aV14
p3781
aV98
p3782
aV99
p3783
aV175
p3784
aV100
p3785
aV176
p3786
aV86
p3787
aV113
p3788
aV38
p3789
aV87
p3790
aV65
p3791
aV113
p3792
aV91
p3793
aV40
p3794
aV92
p3795
aV15
p3796
ag2691
aV165
p3797
aV166
p3798
aV167
p3799
aV168
p3800
aV169
p3801
aV170
p3802
aV17
p3803
aV124
p3804
aV316
p3805
ag2701
aV136
p3806
aV218
p3807
aV26
p3808
aV100
p3809
aV137
p3810
aV101
p3811
aV219
p3812
aV194
p3813
aV241
p3814
aV296
p3815
aV297
p3816
aV80
p3817
aV203
p3818
aV202
p3819
aV99
p3820
aV42
p3821
aV48
p3822
aV138
p3823
aV179
p3824
aV49
p3825
aV108
p3826
aV18
p3827
aV87
p3828
aV85
p3829
aV86
p3830
aV84
p3831
aV202
p3832
aV306
p3833
aV256
p3834
aV27
p3835
aV14
p3836
aV13
p3837
aV38
p3838
aV118
p3839
aV275
p3840
aV17
p3841
aV18
p3842
aV67
p3843
aV13
p3844
aV25
p3845
aV24
p3846
aV158
p3847
aV36
p3848
aV37
p3849
aV69
p3850
ag2697
aV274
p3851
aV191
p3852
aV12
p3853
aV122
p3854
aV211
p3855
aV15
p3856
aV16
p3857
aV114
p3858
aV41
p3859
aV74
p3860
aV72
p3861
aV73
p3862
aV75
p3863
aV13
p3864
aV70
p3865
aV40
p3866
aV12
p3867
aV101
p3868
aV132
p3869
aV39
p3870
aV88
p3871
aV123
p3872
aV91
p3873
aV119
p3874
aV11
p3875
aV107
p3876
aV43
p3877
aV106
p3878
aV141
p3879
aV103
p3880
aV128
p3881
aV96
p3882
aV53
p3883
ag2691
aV44
p3884
aV45
p3885
aV92
p3886
aV108
p3887
aV48
p3888
aV117
p3889
aV147
p3890
aV49
p3891
aV21
p3892
aV22
p3893
aV50
p3894
aV30
p3895
aV89
p3896
aV142
p3897
aV88
p3898
aV202
p3899
aV264
p3900
aV29
p3901
aV58
p3902
aV92
p3903
aV14
p3904
aV15
p3905
aV37
p3906
aV60
p3907
aV59
p3908
aV110
p3909
aV154
p3910
aV155
p3911
aV103
p3912
aV163
p3913
aV130
p3914
aV75
p3915
aV119
p3916
aV130
p3917
aV92
p3918
aV57
p3919
aV88
p3920
aV140
p3921
aV93
p3922
aV25
p3923
aV121
p3924
aV76
p3925
aV146
p3926
aV332
p3927
aV333
p3928
aV334
p3929
aV335
p3930
aV336
p3931
aV89
p3932
aV20
p3933
ag2693
ag2691
aV25
p3934
aV184
p3935
aV185
p3936
aV224
p3937
aV115
p3938
aV186
p3939
aV16
p3940
aV116
p3941
aV17
p3942
aV187
p3943
aV78
p3944
aV117
p3945
aV18
p3946
aV188
p3947
aV69
p3948
aV12
p3949
aV180
p3950
aV181
p3951
aV219
p3952
aV299
p3953
aV300
p3954
aV301
p3955
aV91
p3956
aV90
p3957
aV78
p3958
aV55
p3959
aV52
p3960
aV96
p3961
aV86
p3962
aV192
p3963
aV65
p3964
aV228
p3965
aV106
p3966
aV107
p3967
aV229
p3968
aV20
p3969
aV108
p3970
aV193
p3971
ag2691
aV204
p3972
aV205
p3973
aV206
p3974
aV207
p3975
aV208
p3976
ag2701
ag3636
aV136
p3977
aV63
p3978
aV52
p3979
aV213
p3980
aV214
p3981
aV19
p3982
aV20
p3983
aV246
p3984
aV82
p3985
aV83
p3986
aV26
p3987
aV43
p3988
aV13
p3989
aV33
p3990
ag2690
aV152
p3991
aV55
p3992
aV122
p3993
ag3636
aV10
p3994
aV48
p3995
aV72
p3996
aV249
p3997
aV162
p3998
aV47
p3999
aV15
p4000
aV124
p4001
aV125
p4002
aV123
p4003
aV230
p4004
aV70
p4005
aV150
p4006
aV62
p4007
aV151
p4008
aV63
p4009
aV64
p4010
aV27
p4011
aV40
p4012
aV141
p4013
aV116
p4014
aV22
p4015
aV155
p4016
aV114
p4017
aV115
p4018
aV66
p4019
aV10
p4020
aV132
p4021
aV82
p4022
aV45
p4023
aV96
p4024
aV97
p4025
aV55
p4026
as.