(dp0
S'rares'
p1
(lp2
VUncommon
p3
aVCommon
p4
aVRare
p5
aVCommon
p6
aVCommon
p7
aVUncommon
p8
aVUncommon
p9
aVUncommon
p10
aVRare
p11
aVUncommon
p12
aVCommon
p13
aVUncommon
p14
aVCommon
p15
aVCommon
p16
aVRare
p17
aVUncommon
p18
aVCommon
p19
aVCommon
p20
aVRare
p21
aVCommon
p22
aVRare
p23
aVCommon
p24
aVUncommon
p25
aVRare
p26
aVUncommon
p27
aVUncommon
p28
aVRare
p29
aVCommon
p30
aVUncommon
p31
aVRare
p32
aVCommon
p33
aVUncommon
p34
aVCommon
p35
aVCommon
p36
aVCommon
p37
aVCommon
p38
aVUncommon
p39
aVCommon
p40
aVCommon
p41
aVUncommon
p42
aVRare
p43
aVUncommon
p44
aVCommon
p45
aVRare
p46
aVUncommon
p47
aVRare
p48
aVRare
p49
aVCommon
p50
aVCommon
p51
aVCommon
p52
aVCommon
p53
aVCommon
p54
aVRare
p55
aVUncommon
p56
aVRare
p57
aVUncommon
p58
aVCommon
p59
aVRare
p60
aVRare
p61
aVRare
p62
aVUncommon
p63
aVCommon
p64
aVRare
p65
aVUncommon
p66
aVCommon
p67
aVUncommon
p68
aVCommon
p69
aVRare
p70
aVRare
p71
aVCommon
p72
aVUncommon
p73
aVCommon
p74
aVCommon
p75
aVCommon
p76
aVUncommon
p77
aVCommon
p78
aVSpecial
p79
aVRare
p80
aVUncommon
p81
aVCommon
p82
aVUncommon
p83
aVUncommon
p84
aVCommon
p85
aVCommon
p86
aVCommon
p87
aVCommon
p88
aVCommon
p89
aVCommon
p90
aVCommon
p91
aVRare
p92
aVCommon
p93
aVCommon
p94
aVCommon
p95
aVRare
p96
aVCommon
p97
aVCommon
p98
aVCommon
p99
aVCommon
p100
aVCommon
p101
aVCommon
p102
aVUncommon
p103
aVCommon
p104
aVCommon
p105
aVMythic Rare
p106
aVCommon
p107
aVRare
p108
aVCommon
p109
aVRare
p110
aVRare
p111
aVRare
p112
aVCommon
p113
aVRare
p114
aVCommon
p115
aVCommon
p116
aVCommon
p117
aVCommon
p118
aVRare
p119
aVCommon
p120
aVUncommon
p121
aVRare
p122
aVUncommon
p123
aVRare
p124
aVUncommon
p125
aVRare
p126
aVCommon
p127
aVRare
p128
asS'editns'
p129
(lp130
VMagic: The Gathering-Commander
p131
aVMagic 2012
p132
aVLimited Edition Beta
p133
aVMagic 2013
p134
aVFourth Edition
p135
aVDuel Decks: Ajani vs. Nicol Bolas
p136
aVDuel Decks: Ajani vs. Nicol Bolas
p137
aVAlliances
p138
aVAlliances
p139
aVAlliances
p140
aVMagic 2010
p141
aVMagic 2010
p142
aVMagic 2014 Core Set
p143
aVTempest
p144
aVTempest
p145
aVTenth Edition
p146
aVTenth Edition
p147
aVTenth Edition
p148
aVMercadian Masques
p149
aVVintage Masters
p150
aVVintage Masters
p151
aVModern Masters
p152
aVModern Masters
p153
aVThe Dark
p154
aVMasters Edition II
p155
aVMasters Edition II
p156
aVMasters Edition II
p157
aVNinth Edition
p158
aVNinth Edition
p159
aVNinth Edition
p160
aVNinth Edition
p161
aVConflux
p162
aVConflux
p163
aVConflux
p164
aVAvacyn Restored
p165
aVAvacyn Restored
p166
aVOnslaught
p167
aVOnslaught
p168
aVOnslaught
p169
aVChampions of Kamigawa
p170
aVChampions of Kamigawa
p171
aVCommander 2013 Edition
p172
aVCommander 2013 Edition
p173
aVCommander 2013 Edition
p174
aVOdyssey
p175
aVOdyssey
p176
aVOdyssey
p177
aVOdyssey
p178
aVTime Spiral
p179
aVGatecrash
p180
aVGatecrash
p181
aVExodus
p182
aVUnlimited Edition
p183
aVIce Age
p184
aVIce Age
p185
aVIce Age
p186
aVTorment
p187
aVTorment
p188
aVTorment
p189
aVTorment
p190
aVTorment
p191
aVZendikar
p192
aVClassic Sixth Edition
p193
aVShards of Alara
p194
aVShards of Alara
p195
aVShards of Alara
p196
aVShards of Alara
p197
aVSeventh Edition
p198
aVSeventh Edition
p199
aVSeventh Edition
p200
aVProphecy
p201
aVMagic 2015 Core Set
p202
aVRise of the Eldrazi
p203
aVRise of the Eldrazi
p204
aVJudgment
p205
aVJudgment
p206
aVPromo set for Gatherer
p207
aVStarter 1999
p208
aVStarter 1999
p209
aVStarter 1999
p210
aVFuture Sight
p211
aVFuture Sight
p212
aVPortal Second Age
p213
aVPortal Second Age
p214
aVPlanechase
p215
aVPlanechase
p216
aVLegions
p217
aVMasters Edition
p218
aVWeatherlight
p219
aVWeatherlight
p220
aVMagic: The Gathering\u2014Conspiracy
p221
aVEighth Edition
p222
aVEighth Edition
p223
aVEighth Edition
p224
aVEighth Edition
p225
aVWorldwake
p226
aVJourney into Nyx
p227
aVAlara Reborn
p228
aVAlara Reborn
p229
aVFifth Edition
p230
aVArchenemy
p231
aVArchenemy
p232
aVArchenemy
p233
aVKhans of Tarkir
p234
aVKhans of Tarkir
p235
aVMirage
p236
aVInnistrad
p237
aVLimited Edition Alpha
p238
aVVisions
p239
aVMasters Edition IV
p240
aVLorwyn
p241
aVLorwyn
p242
aVLorwyn
p243
aVLorwyn
p244
aVArabian Nights
p245
aVArabian Nights
p246
aVMagic 2011
p247
aVMagic 2011
p248
aVMagic 2011
p249
aVHomelands
p250
aVPortal
p251
aVPortal
p252
aVPortal
p253
aVPortal
p254
aVPortal
p255
aVPlaneshift
p256
asS'ids'
p257
(lp258
V247144
p259
aV221894
p260
aV463
p261
aV253672
p262
aV2231
p263
aV249409
p264
aV249385
p265
aV3146
p266
aV3147
p267
aV3226
p268
aV189896
p269
aV189917
p270
aV370802
p271
aV4773
p272
aV4774
p273
aV129653
p274
aV129655
p275
aV129656
p276
aV19875
p277
aV383026
p278
aV383027
p279
aV370484
p280
aV370359
p281
aV1739
p282
aV184594
p283
aV184779
p284
aV184561
p285
aV83183
p286
aV84663
p287
aV83182
p288
aV84409
p289
aV138571
p290
aV185140
p291
aV183022
p292
aV279607
p293
aV240076
p294
aV39516
p295
aV42186
p296
aV35414
p297
aV79136
p298
aV80527
p299
aV376423
p300
aV376424
p301
aV376425
p302
aV29870
p303
aV29981
p304
aV29995
p305
aV29771
p306
aV109726
p307
aV366303
p308
aV366378
p309
aV6088
p310
aV765
p311
aV2415
p312
aV2416
p313
aV2579
p314
aV31851
p315
aV32243
p316
aV34229
p317
aV35053
p318
aV5663
p319
aV180360
p320
aV14715
p321
aV137905
p322
aV174890
p323
aV174944
p324
aV179423
p325
aV12998
p326
aV25592
p327
aV25623
p328
aV24598
p329
aV383319
p330
aV193594
p331
aV193439
p332
aV34401
p333
aV36526
p334
aV97050
p335
aV20222
p336
aV20231
p337
aV20356
p338
aV130588
p339
aV136140
p340
aV6624
p341
aV6623
p342
aV198070
p343
aV198103
p344
aV44210
p345
aV159238
p346
aV4524
p347
aV4525
p348
aV382316
p349
aV45298
p350
aV45407
p351
aV45449
p352
aV45420
p353
aV198357
p354
aV380458
p355
aV188969
p356
aV188970
p357
aV3999
p358
aV220545
p359
aV212601
p360
aV212577
p361
aV386616
p362
aV386617
p363
aV3400
p364
aV237015
p365
aV168
p366
aV3671
p367
aV202412
p368
aV139446
p369
aV143370
p370
aV143388
p371
aV145990
p372
aV950
p373
aV949
p374
aV205229
p375
aV207336
p376
aV207338
p377
aV2953
p378
aV4232
p379
aV4307
p380
aV4308
p381
aV4309
p382
aV4310
p383
aV26410
p384
asS'texts'
p385
(lp386
VSacrifice a creature: Nantuko Husk gets +2/+2 until end of turn.
p387
aS''
p388
aVFlying
p389
aVReturn target green card from your graveyard to your hand.
p390
aVRemove Rebirth from your deck before playing if you're not playing for ante.<br><br>Each player may put the top card of his or her library into the ante. If a player does, his or her life total becomes 20.
p391
aVVigilance<br>{R}, {T}: Target creature can't block this turn.<br>{G}, {T}: Target creature blocks this turn if able.
p392
aVChoose one- Naya Charm deals 3 damage to target creature; or return target card from a graveyard to its owner's hand; or tap all creatures target player controls.
p393
aVAt the beginning of your upkeep, sacrifice Nature's Wrath unless you pay {G}.<br>Whenever a player puts an Island or blue permanent onto the battlefield, he or she sacrifices an Island or blue permanent.<br>Whenever a player puts a Swamp or black permanent onto the battlefield, he or she sacrifices a Swamp or black permanent.
p394
aV{2}{G}: Splintering Wind deals 1 damage to target creature. Put a 1/1 green Splinter creature token onto the battlefield. It has flying and "Cumulative upkeep {G}." When it leaves the battlefield, it deals 1 damage to you and each creature you control. <i>(At the beginning of its controller's upkeep, that player puts an age counter on it, then sacrifices it unless he or she pays its upkeep cost for each age counter on it.)</i>
p395
aV{G}: Phelddagrif gains trample until end of turn. Target opponent puts a 1/1 green Hippo creature token onto the battlefield.<br>{W}: Phelddagrif gains flying until end of turn. Target opponent gains 2 life.<br>{U}: Return Phelddagrif to its owner's hand. Target opponent may draw a card.
p396
aVEnchant creature<br>Enchanted creature can't attack or block.
p397
aVPalace Guard can block any number of creatures.
p398
aVWhenever Oath of the Ancient Wood or another enchantment enters the battlefield under your control, you may put a +1/+1 counter on target creature.
p399
aVCreatures you control get +3/+3 and gain trample until end of turn.
p400
aVEnchant creature<br>Enchanted creature can't attack or block.
p401
aV{T}: Orcish Artillery deals 2 damage to target creature or player and 3 damage to you.
p402
aVFlying
p403
aVEnchant creature<br>Enchanted creature can't attack or block.
p404
aVOgre Taskmaster can't block.
p405
aVSkip your draw step.<br>Whenever you discard a card, exile that card from your graveyard.<br>Pay 1 life: Exile the top card of your library face down. Put that card into your hand at the beginning of your next end step.
p406
aVNevinyrral's Disk enters the battlefield tapped.<br>{1}, {T}: Destroy all artifacts, creatures, and enchantments.
p407
aVWhen Nantuko Shaman enters the battlefield, if you control no tapped lands, draw a card.<br>Suspend 1\u2014{2}{G}{G} <i>(Rather than cast this card from your hand, you may pay {2}{G}{G} and exile it with a time counter on it. At the beginning of your upkeep, remove a time counter. When the last is removed, cast it without paying its mana cost. It has haste.)</i>
p408
aVFlying<br>When Narcomoeba is put into your graveyard from your library, you may put it onto the battlefield.
p409
aVTrample<br>As Nameless Race enters the battlefield, pay any amount of life. The amount you pay can't be more than the total number of white nontoken permanents your opponents control plus the total number of white cards in their graveyards.<br>Nameless Race's power and toughness are each equal to the life paid as it entered the battlefield.
p410
aVAt the beginning of your upkeep, sacrifice Nature's Wrath unless you pay {G}.<br>Whenever a player puts an Island or blue permanent onto the battlefield, he or she sacrifices an Island or blue permanent.<br>Whenever a player puts a Swamp or black permanent onto the battlefield, he or she sacrifices a Swamp or black permanent.
p411
aVWhenever Necrite attacks and isn't blocked, you may sacrifice it. If you do, destroy target creature defending player controls. It can't be regenerated.
p412
aVSkip your draw step.<br>Whenever you discard a card, exile that card from your graveyard.<br>Pay 1 life: Exile the top card of your library face down. Put that card into your hand at the beginning of your next end step.
p413
aVDream Prowler is unblockable as long as it's attacking alone.
p414
aVW
p415
ag415
aVDestroy target creature. It can't be regenerated. Its controller reveals cards from the top of his or her library until he or she reveals a creature card. The player puts that card onto the battlefield, then shuffles all other cards revealed this way into his or her library.
p416
aVProtection from artifacts
p417
aV+3: Destroy target noncreature permanent.<br>-2: Gain control of target creature.<br>-9: Nicol Bolas, Planeswalker deals 7 damage to target player. That player discards seven cards, then sacrifices seven permanents.
p418
aVExalted <i>(Whenever a creature you control attacks alone, that creature gets +1/+1 until end of turn.)</i><br>{T}: Add {G}, {W}, or {U} to your mana pool.
p419
aVDestroy target artifact or enchantment. You gain 3 life.
p420
aVSoulbond <i>(You may pair this creature with another unpaired creature when either enters the battlefield. They remain paired for as long as you control both of them.)</i><br>As long as Nearheath Pilgrim is paired with another creature, both creatures have lifelink.
p421
aVNameless One's power and toughness are each equal to the number of Wizards on the battlefield.<br>Morph {2}{U} <i>(You may cast this face down as a 2/2 creature for {3}. Turn it face up any time for its morph cost.)</i>
p422
aVEnchant creature<br>Enchanted creature can't attack or block.
p423
ag415
aVBlocking creatures get +7/+7 until end of turn.
p424
aVTarget creature gets +2/+2 until end of turn.<br>Splice onto Arcane {G} <i>(As you cast an Arcane spell, you may reveal this card from your hand and pay its splice cost. If you do, add this card's effects to that spell.)</i>
p425
aVChoose one- Naya Charm deals 3 damage to target creature; or return target card from a graveyard to its owner's hand; or tap all creatures target player controls.
p426
aV{T}: Add {1} to your mana pool.<br>{1}, {T}, Sacrifice Naya Panorama: Search your library for a basic Mountain, Forest, or Plains card and put it onto the battlefield tapped. Then shuffle your library.
p427
aVTrample<br>When you cast Naya Soulbeast, each player reveals the top card of his or her library. Naya Soulbeast enters the battlefield with X +1/+1 counters on it, where X is the total converted mana cost of all cards revealed this way.
p428
aVIvy Elemental enters the battlefield with X +1/+1 counters on it.
p429
aVTrample<br>Terravore's power and toughness are each equal to the number of land cards in all graveyards.
p430
aVJunk Golem enters the battlefield with three +1/+1 counters on it.<br>At the beginning of your upkeep, sacrifice Junk Golem unless you remove a +1/+1 counter from it.<br>{1}, Discard a card: Put a +1/+1 counter on Junk Golem.
p431
aVCreatures you control get +3/+3 and gain trample until end of turn.
p432
aVWhen Nantuko Shaman enters the battlefield, if you control no tapped lands, draw a card.<br>Suspend 1\u2014{2}{G}{G} <i>(Rather than cast this card from your hand, you may pay {2}{G}{G} and exile it with a time counter on it. At the beginning of your upkeep, remove a time counter. When the last is removed, cast it without paying its mana cost. It has haste.)</i>
p433
aVBattalion- Whenever Nav Squad Commandos and at least two other creatures attack, Nav Squad Commandos gets +1/+1 until end of turn. Untap it.
p434
aVFlying<br>Whenever Nightveil Specter deals combat damage to a player, that player exiles the top card of his or her library.<br>You may play cards exiled with Nightveil Specter.
p435
aVAll creatures get -1/-1 until end of turn.
p436
aVPirate Ship can't attack unless defending player controls an Island.<br>{T}: Pirate Ship deals 1 damage to target creature or player.<br>When you control no Islands, sacrifice Pirate Ship.
p437
aVWhenever a player casts a white spell, you may pay {3}. If you do, untap target permanent.
p438
aVCumulative upkeep {3} <i>(At the beginning of your upkeep, put an age counter on this permanent, then sacrifice it unless you pay its upkeep cost for each age counter on it.)</i><br>If tapped for mana, Plains produce {R}, Islands produce {G}, Swamps produce {W}, Mountains produce {U}, and Forests produce {B} instead of any other type.
p439
aV{T}: Target land becomes a Swamp until its controller's next untap step.
p440
aV{G}, {T}, Sacrifice Nantuko Calmer: Destroy target enchantment.<br>Threshold- Nantuko Calmer gets +1/+1 as long as seven or more cards are in your graveyard.
p441
aVProtection from black<br>Threshold- Nantuko Blightcutter gets +1/+1 for each black permanent your opponents control as long as seven or more cards are in your graveyard.
p442
aVWhen Nantuko Cultivator enters the battlefield, you may discard any number of land cards. Put that many +1/+1 counters on Nantuko Cultivator and draw that many cards.
p443
aV{B}: Nantuko Shade gets +1/+1 until end of turn.
p444
aV{G}, Discard a card: Target creature gets +2/+2 until end of turn.<br>{G}, Sacrifice Narcissism: Target creature gets +2/+2 until end of turn.
p445
aVIf an opponent gained life this turn, you may pay {B} rather than pay Needlebite Trap's mana cost.<br>Target player loses 5 life and you gain 5 life.
p446
ag415
aVChoose one- Naya Charm deals 3 damage to target creature; or return target card from a graveyard to its owner's hand; or tap all creatures target player controls.
p447
aVWhen Blister Beetle enters the battlefield, target creature gets -1/-1 until end of turn.
p448
aVTarget creature you control on the battlefield deals damage equal to its power to target creature or player.
p449
aVDeathtouch <i>(Any amount of damage this deals to a creature is enough to destroy it.)</i><br>Kederekt Creeper can't be blocked except by two or more creatures.
p450
aV{W}{W}, {T}: Destroy target red permanent.
p451
aVWhenever a green creature dies, its controller discards a card.
p452
aV{T}: Prodigal Sorcerer deals 1 damage to target creature or player.
p453
aV{B}: Nakaya Shade gets +1/+1 until end of turn unless any player pays {2}.
p454
aV{1}{B}, Discard a creature card: Draw a card. If the discarded card was a Zombie card, put a 2/2 black Zombie creature token onto the battlefield tapped.
p455
aVWhen Nest Invader enters the battlefield, put a 0/1 colorless Eldrazi Spawn creature token onto the battlefield. It has "Sacrifice this creature: Add {1} to your mana pool."
p456
aVTarget creature gains swampwalk until end of turn.<br>Draw a card.
p457
aV{T}: Add {1} to your mana pool.<br>Threshold- {G}{W}: Nantuko Monastery becomes a 4/4 green and white Insect Monk creature with first strike until end of turn. It's still a land. Activate this ability only if seven or more cards are in your graveyard.
p458
aVWhen Nantuko Tracer enters the battlefield, you may put target card from a graveyard on the bottom of its owner's library.
p459
aVFlying; banding <i>(Any creatures with banding, and up to one without, can attack in a band. Bands are blocked as a group. If any creatures with banding you control are blocking or being blocked by a creature, you divide that creature's combat damage, not its controller, among any of the creatures it's being blocked by or is blocking.)</i><br>{R}: Nalathni Dragon gets +1/+0 until end of turn. If this ability has been activated four or more times this turn, sacrifice Nalathni Dragon at the beginning of the next end step.
p460
aVSearch your library for a card and put that card into your hand, then shuffle your library. You lose 3 life.
p461
aVYou gain 4 life.
p462
aVFlying
p463
aV{T}: Add {1} to your mana pool.<br>{T}: Add {R} or {G} to your mana pool. Each opponent gains 1 life.
p464
aV{6}, {T}: Return target Rebel permanent card with converted mana cost 5 or less from your graveyard to the battlefield.
p465
aVSpitting Earth deals damage to target creature equal to the number of Mountains you control.
p466
aVDestroy target land.
p467
aVAt the beginning of your upkeep, put a flame counter on Naar Isle, then Naar Isle deals damage to you equal to the number of flame counters on it.<br>Whenever you roll , Naar Isle deals 3 damage to target player.
p468
aVYou may play any number of additional lands on each of your turns.<br>Whenever you roll , target red, green, or white creature you control gets +1/+1 until end of turn for each land you control.
p469
aVMorph {1}{G} <i>(You may cast this face down as a 2/2 creature for {3}. Turn it face up any time for its morph cost.)</i><br>When Nantuko Vigilante is turned face up, destroy target artifact or enchantment.
p470
aVSearch your library for a Forest card and put that card onto the battlefield. Then shuffle your library.
p471
aVEnchant creature<br>{1}, Exile the top card of your graveyard: Enchanted creature gets +1/+1 until end of turn.
p472
aVEach player draws a card for each creature card in his or her graveyard.
p473
aVEnchant creature<br>Whenever enchanted creature deals combat damage to a player, you may return target creature card from your graveyard to your hand.
p474
aVDefender <i>(This creature can't attack.)</i><br>{1}{B}: Regenerate Carrion Wall.
p475
aV{G}, {T}, Sacrifice Elvish Scrapper: Destroy target artifact.
p476
aVStar Compass enters the battlefield tapped.<br>{T}: Add to your mana pool one mana of any color that a basic land you control could produce.
p477
aVReturn target creature card from your graveyard to your hand.
p478
aVWhenever Novablast Wurm attacks, destroy all other creatures.
p479
aVStrive- Nature's Panoply costs {2}{G} more to cast for each target beyond the first.<br>Choose any number of target creatures. Put a +1/+1 counter on each of them.
p480
aVWhen you cycle Naya Sojourners or it dies, you may put a +1/+1 counter on target creature.<br>Cycling {2}{G} <i>({2}{G}, Discard this card: Draw a card.)</i>
p481
aVWhen Necromancer's Covenant enters the battlefield, exile all creature cards from target player's graveyard, then put a 2/2 black Zombie creature token onto the battlefield for each card exiled this way.<br>Zombies you control have lifelink.
p482
aVVigilance<br>Rabid Wombat gets +2/+2 for each Aura attached to it.
p483
aV{T}: Add {1} to your mana pool.<br>Threshold- {G}{W}: Nantuko Monastery becomes a 4/4 green and white Insect Monk creature with first strike until end of turn. It's still a land. Activate this ability only if seven or more cards are in your graveyard.
p484
aVWhen you set this scheme in motion, target opponent chooses a creature you don't control and puts it on top of its owner's library, then repeats this process for an artifact, an enchantment, and a land. Then the owner of each permanent chosen this way shuffles his or her library.
p485
aV<i>(An ongoing scheme remains face up until it's abandoned.)</i><br>Whenever a creature attacks and isn't blocked, if you're the defending player, put a 0/1 green Plant creature token onto the battlefield blocking that creature.<br>When four or more creatures attack you, abandon this scheme at end of combat.
p486
aVDestroy target artifact or enchantment.
p487
aVDelve <i>(Each card you exile from your graveyard while casting this spell pays for {1}.)</i><br>Flying<br>{X}, {T}, Exile X cards from your graveyard: Target creature gets -X/-X until end of turn.
p488
aVEach player who controls six or more lands chooses five lands he or she controls and sacrifices the rest. Each player who controls four or fewer lands may search his or her library for X basic land cards and put them onto the battlefield, where X is five minus the number of lands he or she controls. Then each player who searched his or her library this way shuffles it.
p489
aVAs Nevermore enters the battlefield, name a nonland card.<br>The named card can't be cast.
p490
aVTarget player gains X life.
p491
aV{3}{B}{B}, Sacrifice a creature: Return Necrosavant from your graveyard to the battlefield. Activate this ability only during your upkeep.
p492
aV{T}, Sacrifice an artifact: Orcish Mechanics deals 2 damage to target creature or player.
p493
aVProtection from Elves
p494
aVAt the beginning of your upkeep, you may have target opponent discard a card at random.<br>Whenever an opponent discards a card, you may put a 1/1 green Elf Warrior creature token onto the battlefield.
p495
aVChangeling <i>(This card is every creature type at all times.)</i><br>Target creature gets +3/-3 and loses all creature types until end of turn.
p496
aVDestroy target creature. Clash with an opponent. If you win, you gain life equal to that creature's toughness. <i>(Each clashing player reveals the top card of his or her library, then puts that card on the top or bottom. A player wins if his or her card had a higher converted mana cost.)</i>
p497
aVWhenever Nafs Asp deals damage to a player, that player loses 1 life at the beginning of his or her next draw step unless he or she pays {1} before that draw step.
p498
aVWhenever Nafs Asp deals damage to a player, that player loses 1 life at the beginning of his or her next draw step unless he or she pays {1} before that draw step.
p499
aVWhen Obstinate Baloth enters the battlefield, you gain 4 life.<br>If a spell or ability an opponent controls causes you to discard Obstinate Baloth, put it onto the battlefield instead of putting it into your graveyard.
p500
aVFlying
p501
aVUntil end of turn, creatures you control gain trample and get +X/+X, where X is the greatest power among creatures you control. <i>(If a creature you control would assign enough damage to its blockers to destroy them, you may have it assign the rest of its damage to defending player or planeswalker.)</i>
p502
aVFirst strike, protection from red
p503
aVDestroy all green creatures.
p504
aVSearch your library for a creature card and reveal that card. Shuffle your library, then put the card on top of it.
p505
aVWhen Serpent Warrior enters the battlefield, you lose 3 life.
p506
aVFlying
p507
aVSpitting Earth deals damage to target creature equal to the number of Mountains you control.
p508
aVWhen Natural Emergence enters the battlefield, return a red or green enchantment you control to its owner's hand.<br>Lands you control are 2/2 creatures with first strike. They're still lands.
p509
asS'costs'
p510
(lp511
V{2}{U}
p512
aV{5}
p513
aV{G}
p514
aV{3}{G}
p515
aV{G}
p516
aV{2}{U}{B}
p517
aV{5}{W}
p518
aV{G}
p519
aV{4}{G}{G}
p520
aV{2}{G}{W}
p521
aV{X}{B}{B}
p522
aV{X}{U}{U}
p523
aV{2}
p524
aV{3}{G}{G}
p525
aV{3}{G}{G}
p526
aV{2}{B}
p527
aV{3}{G}{G}
p528
aV{1}{G}
p529
aV{2}{G}
p530
aV{1}{U}{U}
p531
aV{3}{W}
p532
aV{2}{G}
p533
aV{1}{U}
p534
aV{3}{B}
p535
aV{2}{U}{U}
p536
aV{2}{G}{W}
p537
aV{4}{G}{G}
p538
aV{1}{G}
p539
aV{2}{B}
p540
aV{2}{G}
p541
aV{3}{G}{G}
p542
aV{5}{W}
p543
aV{R}{G}
p544
aV{1}{G}
p545
aV{4}
p546
aV{1}{W}
p547
aV{3}{U}
p548
aV{2}{B}
p549
aV{1}{G}
p550
aV{3}{W}
p551
aV{2}{G}{G}
p552
aV{R}{G}{W}
p553
aS'0'
p554
aV{6}{G}{G}
p555
aV{2}{G}
p556
aV{2}{G}
p557
aV{1}{G}{G}
p558
aV{3}{G}
p559
aV{2}{G}
p560
aV{1}{W}
p561
aV{2}{G}{U}{U}
p562
aV{1}{B}
p563
aV{G}
p564
aV{2}
p565
aV{5}
p566
aV{1}{G}
p567
aV{2}{G}{G}
p568
aV{2}{G}
p569
aV{3}{G}
p570
aV{B}{B}
p571
aV{2}{G}
p572
aV{4}{R}{R}
p573
aV{2}{G}{G}
p574
aV{R}{G}{W}
p575
aV{3}{U}
p576
aV{2}{R}
p577
ag554
aV{2}{G}{G}
p578
aV{3}{G}{G}
p579
aV{1}{B}
p580
aV{1}{B}
p581
aV{5}{R}
p582
aV{1}{G}{G}
p583
aV{1}{U}
p584
ag554
aV{1}{G}
p585
aV{2}{R}{R}
p586
aV{2}{G}
p587
aV{3}{G}{G}
p588
aV{1}{G}
p589
aV{3}{G}{G}{G}
p590
aV{1}{U}
p591
aV{3}{G}{G}
p592
aV{1}{G}
p593
ag554
ag554
aV{3}{G}
p594
aV{1}{G}
p595
aV{1}{G}
p596
aV{2}{G}{G}
p597
aV{1}{U}{U}
p598
aV{1}{B}
p599
aV{3}{G}
p600
aV{2}{G}
p601
aV{1}{G}
p602
aV{4}{U}
p603
aV{W}
p604
aV{R/W}{G}
p605
aV{2}{R}{G}{W}
p606
aV{1}{G}
p607
ag554
ag554
ag554
aV{3}{U}{R}{W}
p608
aV{1}{G}
p609
aV{2}{G}{G}
p610
aV{1}{G}
p611
aV{G}
p612
aV{2}{G}{G}
p613
aV{5}
p614
aV{1}{B}
p615
aV{3}{G}
p616
aV{2}{G}
p617
aV{2}{G}
p618
aV{G}
p619
aV{G}
p620
aV{U}
p621
aV{1}{W}
p622
aV{3}{U}{U}
p623
aV{2}{U}{U}
p624
aV{2}{B}
p625
aV{2}{G}{G}
p626
aV{3}{G}{G}
p627
aV{2}{G}
p628
aV{1}{G}
p629
aV{2}{R}{G}
p630
asS'names'
p631
(lp632
VNantuko Husk
p633
aVNaturalize
p634
aVNatural Selection
p635
aVNaturalize
p636
aVNafs Asp
p637
aVNacatl Hunt-Pride
p638
aVNaya Charm
p639
aVNature's Chosen
p640
aVNature's Wrath
p641
aVNature's Blessing
p642
aVNaturalize
p643
aVNature's Spiral
p644
aVNaturalize
p645
aVNatural Spring
p646
aVNature's Revolt
p647
aVNantuko Husk
p648
aVNatural Spring
p649
aVNaturalize
p650
aVNatural Affinity
p651
aVNature's Lore
p652
aVNature's Ruin
p653
aVNantuko Shaman
p654
aVNarcomoeba
p655
aVNameless Race
p656
aVNarwhal
p657
aVNature's Blessing
p658
aVNature's Wrath
p659
aVNaturalize
p660
aVNantuko Husk
p661
aVNatural Affinity
p662
aVNatural Spring
p663
aVNacatl Hunt-Pride
p664
aVNacatl Outlander
p665
aVNacatl Savage
p666
aVNarstad Scrapper
p667
aVNatural End
p668
aVNameless One
p669
aVNantuko Husk
p670
aVNaturalize
p671
aVNagao, Bound by Honor
p672
aVNature's Will
p673
aVNaya Charm
p674
aVNaya Panorama
p675
aVNaya Soulbeast
p676
aVNantuko Elder
p677
aVNantuko Mentor
p678
aVNantuko Shrine
p679
aVNantuko Disciple
p680
aVNantuko Shaman
p681
aVNaturalize
p682
aVNav Squad Commandos
p683
aVNausea
p684
aVNatural Selection
p685
aVNacre Talisman
p686
aVNaked Singularity
p687
aVNature's Lore
p688
aVNantuko Calmer
p689
aVNantuko Blightcutter
p690
aVNantuko Cultivator
p691
aVNantuko Shade
p692
aVNarcissism
p693
aVNarrow Escape
p694
aVNature's Resurgence
p695
aVNaya Charm
p696
aVNaturalize
p697
aVNaya Battlemage
p698
aVNaya Panorama
p699
aVNature's Resurgence
p700
aVNature's Revolt
p701
aVNausea
p702
aVNakaya Shade
p703
aVNaturalize
p704
aVNarcolepsy
p705
aVNaturalize
p706
aVNantuko Monastery
p707
aVNantuko Tracer
p708
aVNalathni Dragon
p709
aVNature's Cloak
p710
aVNatural Spring
p711
aVNature's Lore
p712
aVNacatl War-Pride
p713
aVNarcomoeba
p714
aVNatural Spring
p715
aVNature's Lore
p716
aVNaar Isle
p717
aVNaya
p718
aVNantuko Vigilante
p719
aVNature's Lore
p720
aVNature's Kiss
p721
aVNature's Resurgence
p722
aVNature's Claim
p723
aVNausea
p724
aVNantuko Disciple
p725
aVNatural Affinity
p726
aVNaturalize
p727
aVNature's Claim
p728
aVNature's Panoply
p729
aVNaya Hushblade
p730
aVNaya Sojourners
p731
aVNature's Lore
p732
aVNantuko Monastery
p733
aVNature Demands an Offering
p734
aVNature Shields Its Own
p735
aVNarset, Enlightened Master
p736
aVNaturalize
p737
aVNatural Balance
p738
aVNaturalize
p739
aVNatural Selection
p740
aVNatural Order
p741
aVNaked Singularity
p742
aVNath's Buffoon
p743
aVNath of the Gilt-Leaf
p744
aVNameless Inversion
p745
aVNath's Elite
p746
aVNafs Asp
p747
aVNafs Asp
p748
aVNantuko Shade
p749
aVNaturalize
p750
aVNature's Spiral
p751
aVNarwhal
p752
aVNature's Ruin
p753
aVNatural Order
p754
aVNatural Spring
p755
aVNature's Cloak
p756
aVNature's Lore
p757
aVNatural Emergence
p758
asS'toughs'
p759
(lp760
V2
p761
aS'N/A'
p762
ag762
ag762
aV3
p763
aV4
p764
ag762
ag762
ag762
ag762
ag762
ag762
ag762
ag762
ag762
aV6
p765
ag762
ag762
ag762
ag762
ag762
ag763
ag763
ag764
ag761
ag762
ag762
ag762
aV1
p766
ag762
ag762
ag761
aV5
p767
ag767
ag762
ag762
ag763
ag761
ag762
ag763
ag762
ag762
ag762
ag763
ag761
ag761
ag762
ag761
ag761
ag762
ag761
ag762
ag762
ag762
ag762
ag762
ag763
ag761
ag761
ag766
ag762
ag762
ag762
ag762
ag762
ag766
ag762
ag762
ag762
ag762
ag766
ag762
ag762
ag762
ag762
ag766
ag766
ag762
ag762
ag762
ag761
ag766
ag762
ag762
ag762
ag762
ag761
ag762
ag762
ag762
ag762
ag762
ag761
ag762
ag762
ag762
ag762
ag763
ag761
ag762
ag762
ag762
ag762
ag761
ag762
ag762
ag762
ag762
ag762
ag762
ag766
ag763
ag762
ag764
ag763
ag763
ag766
ag762
ag762
ag767
ag762
ag762
ag762
ag762
ag762
ag762
asS'artists'
p768
(lp769
VCarl Critchlow
p770
ag388
aVMark Poole
p771
aVPete Venters
p772
aVChristopher Rush
p773
aVSteve Prescott
p774
aVJesper Ejsing
p775
aVRebecca Guay
p776
aVLiz Danforth
p777
aVSandra Everingham
p778
aVTim Hildebrandt
p779
aVTerese Nielsen
p780
aVTim Hildebrandt
p781
aVSusan Van Camp
p782
aVDonato Giancola
p783
aVCarl Critchlow
p784
aVJeffrey R. Busch
p785
aVTim Hildebrandt
p786
aVPete Venters
p787
aVTerese Nielsen
p788
aVMike Dringenberg
p789
ag388
ag388
aVQuinton Hoover
p790
aVDavid A. Cherry
p791
aVSandra Everingham
p792
aVLiz Danforth
p793
aVJeff Miracola
p794
aVCarl Critchlow
p795
aVPete Venters
p796
aVJanine Johnston
p797
aVSteve Prescott
p798
aVZoltan Boros & Gabor Szikszai
p799
aVParente
p800
aVScott Chou
p801
aVErica Yang
p802
aVMark Tedin
p803
aVCarl Critchlow
p804
aVRon Spears
p805
aVDave Dorman
p806
aVMitch Cotie
p807
aVJesper Ejsing
p808
aVHideaki Takamura
p809
aVJesper Ejsing
p810
aVDaren Bader
p811
aVJohn Matson
p812
aVRebecca Guay
p813
aVJustin Sweet
p814
aVDaren Bader
p815
aVDaniel Ljunggren
p816
aVSteve Prescott
p817
aVJeff Miracola
p818
aVMark Poole
p819
aVMark Tedin
p820
aVMark Tedin
p821
aVRick Emond
p822
aVMark Romanoski
p823
aVMatt Cavotta
p824
aVDarrell Riche
p825
aVBrian Snoddy
p826
aVChristopher Moeller
p827
aVKarl Kopinski
p828
aVScott M. Fischer
p829
aVJesper Ejsing
p830
aVTrevor Hairsine
p831
aVSteve Argyle
p832
aVHideaki Takamura
p833
aVGary Ruddell
p834
aVDave Dorman
p835
aVJames Bernardin
p836
aVRay Lago
p837
aVTim Hildebrandt
p838
aVJohann Bodin
p839
aVHoward Lyon
p840
aVRob Alexander
p841
aVGreg Staples
p842
aVMichael Whelan
p843
aVRebecca Guay
p844
aVJeffrey R. Busch
p845
aVAlan Rabinowitz
p846
aVJames Kei
p847
aVMatt Stewart
p848
aVJeffrey R. Busch
p849
aVLubov
p850
aVMark Zug
p851
aVZoltan Boros & Gabor Szikszai
p852
aVAlex Horley-Orlandelli
p853
aVRick Emond
p854
aVScott M. Fischer
p855
aVScott M. Fischer
p856
aVRaoul Vitale
p857
aVJames Bernardin
p858
aVJustin Sweet
p859
aVPete Venters
p860
aVTim Hildebrandt
p861
aVDaarken
p862
aVJohn Avon
p863
aVJason Chan
p864
aVJohn Avon
p865
aVAlan Rabinowitz
p866
aVRob Alexander
p867
aVJohn Matson
p868
aVJohn Stanko
p869
aVMagali Villeneuve
p870
aVJames Paick
p871
aVJohn Malloy
p872
aVScott Chou
p873
aVMark Poole
p874
aVTerese Nielsen
p875
aVMark Tedin
p876
aVThomas Denmark
p877
aVKev Walker
p878
aVJeff Miracola
p879
aVWayne Reynolds
p880
aVChristopher Rush
p881
aVChristopher Rush
p882
aVBrian Snoddy
p883
aVTim Hildebrandt
p884
aVTerese Nielsen
p885
aVDavid A. Cherry
p886
aVMike Dringenberg
p887
aVAlan Rabinowitz
p888
aVJanine Johnston
p889
aVRebecca Guay
p890
aVTerese Nielsen
p891
aVHeather Hudson
p892
asS'powers'
p893
(lp894
g764
ag762
ag762
ag762
ag763
ag767
ag762
ag762
ag762
ag762
ag762
ag762
ag762
ag762
ag762
ag767
ag762
ag762
ag762
ag762
ag762
ag761
ag763
ag763
ag761
ag762
ag762
ag762
ag766
ag762
ag762
ag767
ag767
ag767
ag762
ag762
ag763
ag766
ag762
ag763
ag762
ag762
ag762
ag763
ag766
ag761
ag762
ag761
ag763
ag762
ag765
ag762
ag762
ag762
ag762
ag762
ag761
ag761
ag761
ag761
ag762
ag762
ag762
ag762
ag762
ag766
ag762
ag762
ag762
ag762
ag766
ag762
ag762
ag762
ag762
ag761
ag766
ag762
ag762
ag762
ag761
ag761
ag762
ag762
ag762
ag762
ag763
ag762
ag762
ag762
ag762
ag762
ag761
ag762
ag762
ag762
ag762
ag763
ag761
ag762
ag762
ag762
ag762
ag763
ag762
ag762
ag762
ag762
ag762
ag762
ag766
ag764
ag762
ag764
ag765
ag763
ag766
ag762
ag762
ag767
ag762
ag762
ag762
ag762
ag762
ag762
asS'types'
p895
(lp896
VCreature - Zombie Insect
p897
aVInstant
p898
aVInstant
p899
aVInstant
p900
aVCreature - Snake
p901
aVCreature - Cat Warrior
p902
aVInstant
p903
aVEnchantment - Aura
p904
aVEnchantment
p905
aVEnchantment
p906
aVInstant
p907
aVSorcery
p908
aVInstant
p909
aVSorcery
p910
aVEnchantment
p911
aVCreature - Zombie Insect
p912
aVSorcery
p913
aVInstant
p914
aVInstant
p915
aVSorcery
p916
aVSorcery
p917
aVCreature - Insect Shaman
p918
aVCreature - Illusion
p919
aVCreature
p920
aVCreature - Whale
p921
aVEnchantment
p922
aVEnchantment
p923
aVInstant
p924
aVCreature - Zombie Insect
p925
aVInstant
p926
aVSorcery
p927
aVCreature - Cat Warrior
p928
aVCreature - Cat Scout
p929
aVCreature - Cat Warrior
p930
aVArtifact Creature - Construct
p931
aVInstant
p932
aVCreature - Wizard Avatar
p933
aVCreature - Zombie Insect
p934
aVInstant
p935
aVLegendary Creature - Human Samurai
p936
aVEnchantment
p937
aVInstant
p938
aVLand
p939
aVCreature - Beast
p940
aVCreature - Insect Druid
p941
aVCreature - Insect Druid
p942
aVEnchantment
p943
aVCreature - Insect Druid
p944
aVCreature - Insect Shaman
p945
aVInstant
p946
aVCreature - Human Soldier
p947
aVSorcery
p948
aVInstant
p949
aVArtifact
p950
aVArtifact
p951
aVSorcery
p952
aVCreature - Insect Druid
p953
aVCreature - Insect Druid
p954
aVCreature - Insect Druid
p955
aVCreature - Insect Shade
p956
aVEnchantment
p957
aVInstant
p958
aVSorcery
p959
aVInstant
p960
aVInstant
p961
aVCreature - Human Shaman
p962
aVLand
p963
aVSorcery
p964
aVEnchantment
p965
aVSorcery
p966
aVCreature - Shade
p967
aVInstant
p968
aVEnchantment - Aura
p969
aVInstant
p970
aVLand
p971
aVCreature - Insect Druid
p972
aVCreature - Dragon
p973
aVSorcery
p974
aVSorcery
p975
aVSorcery
p976
aVCreature - Cat Warrior
p977
aVCreature - Illusion
p978
aVSorcery
p979
aVSorcery
p980
aVPlane - Wildfire
p981
aVPlane - Alara
p982
aVCreature - Insect Druid Mutant
p983
aVSorcery
p984
aVEnchantment - Aura
p985
aVSorcery
p986
aVInstant
p987
aVSorcery
p988
aVCreature - Insect Druid
p989
aVInstant
p990
aVInstant
p991
aVInstant
p992
aVInstant
p993
aVCreature - Elf Rogue
p994
aVCreature - Elf Shaman
p995
aVSorcery
p996
aVLand
p997
aVScheme
p998
aVOngoing Scheme
p999
aVLegendary Creature - Human Monk
p1000
aVInstant
p1001
aVSorcery
p1002
aVInstant
p1003
aVInstant
p1004
aVSorcery
p1005
aVArtifact
p1006
aVCreature - Goblin Rogue
p1007
aVLegendary Creature - Elf Warrior
p1008
aVTribal Instant - Shapeshifter
p1009
aVCreature - Elf Warrior
p1010
aVCreature - Snake
p1011
aVCreature - Snake
p1012
aVCreature - Insect Shade
p1013
aVInstant
p1014
aVSorcery
p1015
aVCreature - Whale
p1016
aVSorcery
p1017
aVSorcery
p1018
aVSorcery
p1019
aVSorcery
p1020
aVSorcery
p1021
aVEnchantment
p1022
asS'numbers'
p1023
(lp1024
V90
p1025
aV185
p1026
aV182
p1027
aV178
p1028
aV87
p1029
aV20
p1030
aV29
p1031
aV64
p1032
aV65
p1033
aV113
p1034
aV195
p1035
aV196
p1036
aV186
p1037
aV294
p1038
aV295
p1039
aV162
p1040
aV281
p1041
aV282
p1042
aV260
p1043
aV220
p1044
aV129
p1045
ag388
ag388
aV21
p1046
aV57
p1047
aV196
p1048
aV172
p1049
aV258
p1050
aV148
p1051
aV256
p1052
aV257
p1053
aV13
p1054
aV119
p1055
aV86
p1056
aV218
p1057
aV185
p1058
aV100
p1059
aV159
p1060
aV275
p1061
aV36
p1062
aV230
p1063
aV200
p1064
aV308
p1065
aV157
p1066
aV254
p1067
aV255
p1068
aV256
p1069
aV253
p1070
aV208
p1071
aVx
p1072
aV22
p1073
aV67
p1074
aV184
p1075
aV18
p1076
aV19
p1077
aV324
p1078
aV132
p1079
aV131
p1080
aV133
p1081
aV74
p1082
aV134
p1083
aV27
p1084
aV242
p1085
aV180
p1086
aV141
p1087
aV142
p1088
aV227
p1089
aV259
p1090
aV260
p1091
aV148
p1092
aV69
p1093
aV185
p1094
aV79
p1095
aV199
p1096
aV142
p1097
aV125
p1098
ag764
aV135
p1099
aV134
p1100
aV136
p1101
aV147
p1102
aV54
p1103
aV130
p1104
aV131
p1105
aV26
p1106
aV27
p1107
aV132
p1108
aV124
p1109
aV72
p1110
aV151
p1111
aV171
p1112
aV148
p1113
aV268
p1114
aV269
p1115
aV270
p1116
aV108
p1117
aV131
p1118
aV141
p1119
aV122
p1120
aV109
p1121
aV131
p1122
aV31
p1123
aV32
p1124
aV190
p1125
aV142
p1126
aV114
p1127
aV197
p1128
aV29
p1129
aV137
p1130
aV216
p1131
aV129
p1132
aV250
p1133
aV128
p1134
aV231
p1135
aV74
p1136
aV75
p1137
aV106
p1138
aV186
p1139
aV187
p1140
aV29
p1141
aV14
p1142
aV49
p1143
aV167
p1144
aV168
p1145
aV169
p1146
aV117
p1147
as.