(dp0
S'rares'
p1
(lp2
VRare
p3
aVRare
p4
aVUncommon
p5
aVRare
p6
aVCommon
p7
aVCommon
p8
aVUncommon
p9
aVRare
p10
aVRare
p11
aVUncommon
p12
aVRare
p13
aVUncommon
p14
aVCommon
p15
aVRare
p16
aVUncommon
p17
aVRare
p18
aVRare
p19
aVCommon
p20
aVUncommon
p21
aVUncommon
p22
aVRare
p23
aVCommon
p24
aVCommon
p25
aVUncommon
p26
aVRare
p27
aVCommon
p28
aVUncommon
p29
aVCommon
p30
aVUncommon
p31
aVUncommon
p32
aVRare
p33
aVUncommon
p34
aVUncommon
p35
aVRare
p36
aVRare
p37
aVCommon
p38
aVRare
p39
aVCommon
p40
aVUncommon
p41
aVRare
p42
aVUncommon
p43
aVRare
p44
aVCommon
p45
aVRare
p46
aVUncommon
p47
aVRare
p48
aVRare
p49
aVUncommon
p50
aVCommon
p51
aVCommon
p52
aVCommon
p53
aVCommon
p54
aVCommon
p55
aVCommon
p56
aVRare
p57
aVCommon
p58
aVUncommon
p59
aVUncommon
p60
aVRare
p61
aVUncommon
p62
aVUncommon
p63
aVCommon
p64
aVRare
p65
aVCommon
p66
aVUncommon
p67
aVMythic Rare
p68
aVCommon
p69
aVRare
p70
aVCommon
p71
aVUncommon
p72
aVCommon
p73
aVUncommon
p74
aVRare
p75
aVRare
p76
aVCommon
p77
aVRare
p78
aVRare
p79
aVRare
p80
aVUncommon
p81
aVRare
p82
aVRare
p83
aVUncommon
p84
aVUncommon
p85
asS'editns'
p86
(lp87
VLimited Edition Beta
p88
aVMorningtide
p89
aVMorningtide
p90
aVFourth Edition
p91
aVAlliances
p92
aVAlliances
p93
aVBorn of the Gods
p94
aVTempest
p95
aVTenth Edition
p96
aVTenth Edition
p97
aVMercadian Masques
p98
aVMercadian Masques
p99
aVVintage Masters
p100
aVVintage Masters
p101
aVVintage Masters
p102
aVMasters Edition III
p103
aVRevised Edition
p104
aVNinth Edition
p105
aVEventide
p106
aVEventide
p107
aVEventide
p108
aVEventide
p109
aVEventide
p110
aVEventide
p111
aVConflux
p112
aVPlanechase 2012 Edition
p113
aVPlanechase 2012 Edition
p114
aVOnslaught
p115
aVOnslaught
p116
aVChampions of Kamigawa
p117
aVBetrayers of Kamigawa
p118
aVOdyssey
p119
aVOdyssey
p120
aVTime Spiral
p121
aVUnlimited Edition
p122
aVIce Age
p123
aVTorment
p124
aVZendikar
p125
aVSeventh Edition
p126
aVSeventh Edition
p127
aVProphecy
p128
aVUrza's Legacy
p129
aVDarksteel
p130
aVRise of the Eldrazi
p131
aVRise of the Eldrazi
p132
aVJudgment
p133
aVNew Phyrexia
p134
aVNew Phyrexia
p135
aVStarter 1999
p136
aVStarter 1999
p137
aVScourge
p138
aVPortal Second Age
p139
aVPortal Second Age
p140
aVPortal Second Age
p141
aVPortal Second Age
p142
aVPortal Second Age
p143
aVPlanechase
p144
aVLegions
p145
aVUrza's Saga
p146
aVUrza's Saga
p147
aVWeatherlight
p148
aVMagic: The Gathering\u2014Conspiracy
p149
aVEighth Edition
p150
aVEighth Edition
p151
aVNemesis
p152
aVWorldwake
p153
aVInvasion
p154
aVInvasion
p155
aVArchenemy
p156
aVKhans of Tarkir
p157
aVMirage
p158
aVMirage
p159
aVLimited Edition Alpha
p160
aVDragon's Maze
p161
aVStronghold
p162
aVLegends
p163
aVLegends
p164
aVDissension
p165
aVDissension
p166
aVLorwyn
p167
aVDuel Decks: Heroes vs. Monsters
p168
aVPortal
p169
aVPlaneshift
p170
asS'ids'
p171
(lp172
V556
p173
aV152579
p174
aV152844
p175
aV2352
p176
aV3205
p177
aV3206
p178
aV378502
p179
aV4835
p180
aV130547
p181
aV136283
p182
aV19695
p183
aV19786
p184
aV383031
p185
aV383032
p186
aV383033
p187
aV201214
p188
aV1355
p189
aV83188
p190
aV152032
p191
aV153448
p192
aV154258
p193
aV157286
p194
aV158899
p195
aV159066
p196
aV179434
p197
aV226540
p198
aV271144
p199
aV39710
p200
aV39732
p201
aV75265
p202
aV74100
p203
aV29805
p204
aV29902
p205
aV113512
p206
aV858
p207
aV2479
p208
aV32208
p209
aV171001
p210
aV25633
p211
aV13166
p212
aV24686
p213
aV12408
p214
aV46076
p215
aV198180
p216
aV198296
p217
aV34241
p218
aV233050
p219
aV230067
p220
aV21054
p221
aV21052
p222
aV45834
p223
aV6615
p224
aV6618
p225
aV6620
p226
aV6634
p227
aV6636
p228
aV205420
p229
aV44276
p230
aV8809
p231
aV8802
p232
aV4490
p233
aV382318
p234
aV45224
p235
aV45409
p236
aV21262
p237
aV197857
p238
aV23111
p239
aV23147
p240
aV212624
p241
aV386619
p242
aV3505
p243
aV3301
p244
aV260
p245
aV368973
p246
aV5196
p247
aV1415
p248
aV1416
p249
aV97091
p250
aV97099
p251
aV140239
p252
aV373336
p253
aV4233
p254
aV26478
p255
asS'texts'
p256
(lp257
VW
p258
aVProwl {5}{U} <i>(You may cast this for its prowl cost if you dealt combat damage to a player this turn with a Rogue.)</i><br>Put X 1/1 black Faerie Rogue creature tokens with flying onto the battlefield, where X is the damage dealt to your opponents this turn. If Notorious Throng's prowl cost was paid, take an extra turn after this one.
p259
aVProwl {1}{B} <i>(You may cast this for its prowl cost if you dealt combat damage to a player this turn with a Rogue.)</i><br>Target player reveals three cards from his or her hand. You choose two of them. That player discards those cards.
p260
aVWhenever Pit Scorpion deals damage to a player, that player gets a poison counter. <i>(A player with ten or more poison counters loses the game.)</i>
p261
aVPut up to three target creature cards from your graveyard on top of your library.
p262
aVEnchant creature<br>Enchanted creature gets +2/+1 as long as it's black. Otherwise, it gets -1/-2.
p263
aVBestow {4}{B} <i>(If you cast this card for its bestow cost, it's an Aura spell with enchant creature. It becomes a creature again if it's not attached to a creature.)</i><br>Enchanted creature gets +2/+1.
p264
aV{T}: Opportunist deals 1 damage to target creature that was dealt damage this turn.
p265
aV{U}, {T}: Return target permanent you control to its owner's hand.
p266
aVU
p267
aVSacrifice a creature: Regenerate Cateran Overlord.<br>{6}, {T}: Search your library for a Mercenary permanent card with converted mana cost 6 or less and put it onto the battlefield. Then shuffle your library.
p268
aV{3}{U}, {T}, Discard a card: Untap target creature and gain control of it until end of turn. That creature gains haste until end of turn.
p269
aVAs an additional cost to cast Nostalgic Dreams, discard X cards.<br>Return X target cards from your graveyard to your hand. Exile Nostalgic Dreams.
p270
aVActivated abilities of artifacts can't be activated.
p271
aVAt the beginning of each player's upkeep, that player chooses target player who controls more creatures than he or she does and is his or her opponent. The first player may reveal cards from the top of his or her library until he or she reveals a creature card. If he or she does, that player puts that card onto the battlefield and all other cards revealed this way into his or her graveyard.
p272
ag258
aVEnchant enchantment<br>At the beginning of the upkeep of enchanted enchantment's controller, that player may pay any amount of mana. Power Leak deals 2 damage to that player. Prevent X of that damage, where X is the amount of mana that player paid this way.
p273
aV{W}, {T}: Search your library for a land card, reveal it, and put it into your hand. Then shuffle your library. Activate this ability only if an opponent controls more lands than you.
p274
aVWhen Noggle Ransacker enters the battlefield, each player draws two cards, then discards a card at random.
p275
aVNoxious Hatchling enters the battlefield with four -1/-1 counters on it.<br>Wither <i>(This deals damage to creatures in the form of -1/-1 counters.)</i><br>Whenever you cast a black spell, remove a -1/-1 counter from Noxious Hatchling.<br>Whenever you cast a green spell, remove a -1/-1 counter from Noxious Hatchling.
p276
aVFlying<br>Attacking creatures you control get +2/+0.
p277
aVNoggle Bandit can't be blocked except by creatures with defender.
p278
aVWhen Noggle Bridgebreaker enters the battlefield, return a land you control to its owner's hand.
p279
aVWhen Noggle Hedge-Mage enters the battlefield, if you control two or more Islands, you may tap two target permanents.<br>When Noggle Hedge-Mage enters the battlefield, if you control two or more Mountains, you may have Noggle Hedge-Mage deal 2 damage to target player.
p280
aV{1}{W}, {T}: You gain 5 life.<br>{1}{U}, {T}: Draw a card, then discard a card.<br>{1}{B}, {T}: Target creature gets -2/-2 until end of turn.<br>{1}{R}, {T}: Obelisk of Alara deals 3 damage to target player.<br>{1}{G}, {T}: Target creature gets +4/+4 until end of turn.
p281
aVWhen you planeswalk away from Norn's Dominion, destroy each nonland permanent without a fate counter on it, then remove all fate counters from all permanents.<br>Whenever you roll chaos, you may put a fate counter on target permanent.
p282
aV{T}: Return two target cards from an opponent's graveyard to his or her hand. Destroy target artifact or enchantment.
p283
aV{T}, Sacrifice Nosy Goblin: Destroy target face-down creature.
p284
aV{2}{W}, {T}, Sacrifice Nova Cleric: Destroy all enchantments.
p285
aVIf a creature dealt damage by Kumano's Pupils this turn would die, exile it instead.
p286
aVYou may exile a green card with converted mana cost X from your hand rather than pay Nourishing Shoal's mana cost.<br>You gain X life.
p287
aV{W}: Luminous Guardian gets +0/+1 until end of turn.<br>{2}: Luminous Guardian can block an additional creature this turn.
p288
aV{T}: Add {U} to your mana pool. Cephalid Coliseum deals 1 damage to you.<br>Threshold- {U}, {T}, Sacrifice Cephalid Coliseum: Target player draws three cards, then discards three cards. Activate this ability only if seven or more cards are in your graveyard.
p289
aVWhen a player casts a spell or a creature attacks, exile Norin the Wary. Return it to the battlefield under its owner's control at the beginning of the next end step.
p290
aVEnchant enchantment<br>At the beginning of the upkeep of enchanted enchantment's controller, that player may pay any amount of mana. Power Leak deals 2 damage to that player. Prevent X of that damage, where X is the amount of mana that player paid this way.
p291
aV{T}: Untap target blue creature.<br>{T}: Choose target non-Wall creature the active player has controlled continuously since the beginning of the turn. That creature attacks this turn if able. If it doesn't, destroy it at the beginning of the next end step. Activate this ability only before attackers are declared.
p292
aVAs an additional cost to cast Nostalgic Dreams, discard X cards.<br>Return X target cards from your graveyard to your hand. Exile Nostalgic Dreams.
p293
aVLandfall- Whenever a land enters the battlefield under your control, you may have target player lose 3 life. If you do, put three +1/+1 counters on Ob Nixilis, the Fallen.
p294
aVDefender <i>(This creature can't attack.)</i><br>{B}: Regenerate Wall of Bone. <i>(The next time this creature would be destroyed this turn, it isn't. Instead tap it, remove all damage from it, and remove it from combat.)</i>
p295
aVPyrotechnics deals 4 damage divided as you choose among any number of target creatures and/or players.
p296
aVEnchant land<br>Enchanted land has "{T}: This land deals 1 damage to each creature and each player."
p297
aVWhenever a creature deals damage to you, destroy it.
p298
aVYou gain 6 life.
p299
aVEquipped creature gets +5/+0.<br>Equip {5}
p300
aVWhen Ondu Giant enters the battlefield, you may search your library for a basic land card, put it onto the battlefield tapped, then shuffle your library.
p301
aV{W}, {T}: Put target Aura card from a graveyard onto the battlefield under your control attached to a creature you control.
p302
aVEnchant artifact or creature<br>Enchanted permanent doesn't untap during its controller's untap step.<br>At the beginning of the upkeep of enchanted permanent's controller, that player loses 1 life.
p303
aVInfect <i>(This creature deals damage to creatures in the form of -1/-1 counters and to players in the form of poison counters.)</i><br>{R}: Ogre Menial gets +1/+0 until end of turn.
p304
aVWhen Serpent Warrior enters the battlefield, you lose 3 life.
p305
aVLook at the top two cards of your library. Put one of them into your hand and the other on the bottom of your library.
p306
aVVigilance<br>Plainscycling {2} <i>({2}, Discard this card: Search your library for a Plains card, reveal it, and put it into your hand. Then shuffle your library.)</i>
p307
aVBee Sting deals 2 damage to target creature or player.
p308
aVYou may have Deathcoil Wurm assign its combat damage as though it weren't blocked.
p309
aVWhenever Razorclaw Bear becomes blocked, it gets +2/+2 until end of turn.
p310
aVReturn target creature card from your graveyard to the battlefield.
p311
aVB
p312
aVWhenever Noxious Ghoul or another Zombie enters the battlefield, all non-Zombie creatures get -1/-1 until end of turn.
p313
aVWhenever Noxious Ghoul or another Zombie enters the battlefield, all non-Zombie creatures get -1/-1 until end of turn.
p314
aVAt the beginning of each player's upkeep, that player returns a permanent he or she controls to its owner's hand unless he or she pays 2 life.
p315
aVEnchant creature<br>Enchanted creature can't attack or block.
p316
aVWhen Noble Benefactor dies, each player may search his or her library for a card and put that card into his or her hand. Then each player who searched his or her library this way shuffles it.
p317
aVOrcish Cannonade deals 2 damage to target creature or player and 3 damage to you.<br>Draw a card.
p318
aVSneaky Homunculus can't block or be blocked by creatures with power 2 or greater.
p319
aVEnchant creature <i>(Target a creature as you cast this. This card enters the battlefield attached to that creature.)</i><br>Enchanted creature has first strike. <i>(It deals combat damage before creatures without first strike.)</i>
p320
aVWhenever a creature you control blocks, you gain 2 life.
p321
aVDefender<br>Whenever a creature you control with defender blocks, you may gain 2 life.
p322
aV{1}{G}: Add one mana of any color to your mana pool.
p323
aV{1}: Noble Panther gains first strike until end of turn.
p324
aV<i>(An ongoing scheme remains face up until it's abandoned.)</i><br>If a source an opponent controls would deal damage to you, prevent 1 of that damage.<br>At the beginning of each end step, if you've been dealt 5 or more damage this turn, abandon this scheme.
p325
aVOpulent Palace enters the battlefield tapped.<br>{T}: Add {B}, {G}, or {U} to your mana pool.
p326
aVAs Null Chamber enters the battlefield, you and an opponent each name a card other than a basic land card.<br>The named cards can't be played.
p327
aVEnchant creature<br>Enchanted creature can't attack or block.
p328
aVFirst strike <i>(This creature deals combat damage before creatures without first strike.)</i><br>Protection from black <i>(This creature can't be blocked, targeted, dealt damage, or enchanted by anything black.)</i>
p329
aVWhen Opal Lake Gatekeepers enters the battlefield, if you control two or more Gates, you may draw a card.
p330
aV{0}: The next 1 damage that would be dealt to Nomads en-Kor this turn is dealt to target creature you control instead.
p331
aV{4}, {T}: For one spell this turn, you may spend mana as though it were mana of any color to pay that spell's mana cost. <i>(Additional costs are still paid normally.)</i>
p332
aV{3}, {T}: The next time a source of your choice would deal damage to you this turn, that damage is dealt to target creature of an opponent's choice instead.
p333
aVGraft 4 <i>(This creature enters the battlefield with four +1/+1 counters on it. Whenever another creature enters the battlefield, you may move a +1/+1 counter from this creature onto it.)</i><br>{1}, Remove two +1/+1 counters from among creatures you control: Draw a card.
p334
aV{T}: Add {1} to your mana pool.<br>{G}{U}, {T}: Put a +1/+1 counter on each creature that entered the battlefield this turn.
p335
aVTrample<br>Champion an Elemental <i>(When this enters the battlefield, sacrifice it unless you exile another Elemental you control. When this leaves the battlefield, that card returns to the battlefield.)</i>
p336
aVFlying<br>Attacking creatures you control get +2/+0.
p337
aVWhen Noxious Toad dies, each opponent discards a card.
p338
aVEach player reveals his or her hand and chooses one card of each color from it, then discards all other nonland cards.
p339
asS'costs'
p340
(lp341
V{2}{W}{W}
p342
aV{3}{U}
p343
aV{2}{B}{B}
p344
aV{2}{W}{W}
p345
aV{2}{W}
p346
aV{2}{W}
p347
aV{4}{G}{G}
p348
aV{3}{R}
p349
aV{2}{W}
p350
aV{1}{B}
p351
aV{3}{B}
p352
aV{3}{W}{W}
p353
aV{4}
p354
aV{1}{B}
p355
aV{5}{W}
p356
aV{4}
p357
aV{2}{W}{W}
p358
aV{G}
p359
aV{2}{U/R}
p360
aV{3}{B/G}
p361
aV{R/W}{R/W}{R/W}{R/W}{R/W}
p362
aV{1}{U/R}{U/R}
p363
aV{2}{U/R}{U/R}
p364
aV{2}{U/R}
p365
aV{4}{U}{B}{B}{R}
p366
aS'0'
p367
aV{2}{U/R}
p368
aV{2}{R}
p369
aV{W}
p370
aV{2}
p371
aV{X}{G}{G}
p372
aV{2}{W}
p373
ag367
aV{R}
p374
aV{2}{W}{W}
p375
aV{3}{B}
p376
aV{G}{G}
p377
aV{2}{G}{G}
p378
aV{2}{B}{B}
p379
aV{2}{W}{W}
p380
aV{1}{B}{B}
p381
aV{2}{B}{B}
p382
aV{G}{G}
p383
aV{4}{B}{B}
p384
aV{4}{W}{W}
p385
aV{2}{W}
p386
aV{6}
p387
aV{3}{WP}{WP}
p388
aV{3}{G}
p389
aV{G}
p390
aV{5}{W}
p391
aV{3}{G}
p392
aV{3}{G}
p393
aV{2}{G}
p394
aV{2}{G}{G}
p395
aV{G}
p396
aV{3}{B}{B}
p397
aV{3}{B}{B}
p398
aV{4}
p399
aV{1}{B}
p400
aV{2}{U}
p401
aV{2}{B}{B}
p402
aV{3}{W}{W}
p403
aV{G}
p404
aV{4}{W}
p405
aV{4}{B}{B}
p406
aV{1}{G}
p407
aV{1}{G}{W}
p408
ag367
ag367
aV{3}{W}
p409
aV{2}{B}{B}
p410
aV{2}{W}{W}
p411
aV{2}{U}{B}
p412
aV{W}
p413
aV{4}
p414
aV{4}
p415
aV{4}{U}{U}
p416
ag367
aV{3}{G}{G}{G}
p417
aV{R/W}{R/W}{R/W}{R/W}{R/W}
p418
aV{2}{B}
p419
aV{1}{B}{B}
p420
asS'names'
p421
(lp422
VNorthern Paladin
p423
aVNotorious Throng
p424
aVNoggin Whack
p425
aVNorthern Paladin
p426
aVNoble Steeds
p427
aVNoble Steeds
p428
aVNoble Quarry
p429
aVNo Quarter
p430
aVNomad Mythmaker
p431
aVNo Rest for the Wicked
p432
aVNotorious Assassin
p433
aVNoble Purpose
p434
aVNoble Templar
p435
aVNorwood Priestess
p436
aVNostalgic Dreams
p437
aVNova Pentacle
p438
aVNorthern Paladin
p439
aVNorwood Ranger
p440
aVNoggle Ransacker
p441
aVNoxious Hatchling
p442
aVNobilis of War
p443
aVNoggle Bandit
p444
aVNoggle Bridgebreaker
p445
aVNoggle Hedge-Mage
p446
aVNoble Hierarch
p447
aVNorn's Dominion
p448
aVNoggle Ransacker
p449
aVNosy Goblin
p450
aVNova Cleric
p451
aVNo-Dachi
p452
aVNourishing Shoal
p453
aVNomad Decoy
p454
aVNomad Stadium
p455
aVNorin the Wary
p456
aVNorthern Paladin
p457
aVNorritt
p458
aVNostalgic Dreams
p459
aVNoble Vestige
p460
aVNocturnal Raid
p461
aVNorthern Paladin
p462
aVNoxious Field
p463
aVNo Mercy
p464
aVNourish
p465
aVNomads' Assembly
p466
aVNot of This World
p467
aVNomad Mythmaker
p468
aVNorn's Annex
p469
aVNoxious Revival
p470
aVNorwood Archers
p471
aVNorwood Ranger
p472
aVNoble Templar
p473
aVNorwood Riders
p474
aVNorwood Archers
p475
aVNorwood Warrior
p476
aVNorwood Priestess
p477
aVNorwood Ranger
p478
aVNoxious Ghoul
p479
aVNoxious Ghoul
p480
aVNoetic Scales
p481
aVNo Rest for the Wicked
p482
aVNoble Benefactor
p483
aVNoble Templar
p484
aVNoble Purpose
p485
aVNorwood Ranger
p486
aVNoble Stand
p487
aVNovablast Wurm
p488
aVNomadic Elf
p489
aVNoble Panther
p490
aVNothing Can Stop Me Now
p491
aVNomad Outpost
p492
aVNoble Elephant
p493
aVNocturnal Raid
p494
aVNorthern Paladin
p495
aVNotion Thief
p496
aVNomads en-Kor
p497
aVNorth Star
p498
aVNova Pentacle
p499
aVNovijen Sages
p500
aVNovijen, Heart of Progress
p501
aVNova Chaser
p502
aVNobilis of War
p503
aVNoxious Toad
p504
aVNoxious Vapors
p505
asS'toughs'
p506
(lp507
V3
p508
aS'N/A'
p509
ag509
aV5
p510
ag509
ag509
ag509
ag509
aV2
p511
ag509
ag511
ag509
aV1
p512
ag511
ag509
ag509
ag512
ag512
ag512
aV6
p513
aV4
p514
ag511
ag512
ag512
ag513
ag509
ag514
ag513
ag508
ag509
ag509
ag511
ag509
ag512
ag508
ag508
ag509
ag511
ag509
ag508
ag509
ag509
ag509
ag509
ag509
ag511
ag509
ag509
ag508
ag511
ag513
ag508
ag508
ag511
ag512
ag511
ag510
ag508
ag509
ag509
ag511
ag511
ag509
ag513
ag509
ag508
ag511
ag508
ag509
ag509
ag512
ag509
ag508
ag512
ag512
ag509
ag509
ag512
ag509
ag513
ag514
ag512
ag509
asS'artists'
p515
(lp516
VDouglas Schuler
p517
aVThomas Denmark
p518
aVAlan Pollack
p519
aVDouglas Shuler
p520
aVRebecca Guay
p521
aVRebecca Guay
p522
aVMichael C. Hayes
p523
aVDoug Chaffee
p524
aVDarrell Riche
p525
aVCarl Critchlow
p526
aVHeather Hudson
p527
aVKev Walker
p528
aVAlex Horley-Orlandelli
p529
aVMelissa A. Benson
p530
aVDarrell Riche
p531
aVSusan Van Camp
p532
aVDouglas Shuler
p533
aVRon Spencer
p534
aVAlex Horley-Orlandelli
p535
aVNils Hamm
p536
aVChristopher Moeller
p537
aVThomas Denmark
p538
aVThomas M. Baxa
p539
aVLarry MacDougall
p540
aVMark Zug
p541
aVJohn Avon
p542
aS''
p543
aVThomas M. Baxa
p544
aVAlan Pollack
p545
aVChristopher Rush
p546
aVGreg Staples
p547
aVPete Venters
p548
aVDavid Martin
p549
aVHeather Hudson
p550
aVDouglas Schuler
p551
aVMike Raabe
p552
aVDarrell Riche
p553
aVJason Chan
p554
aVPete Venters
p555
aVCarl Critchlow
p556
aVEric Peterson
p557
aVMark Tedin
p558
aVScott M. Fischer
p559
aVErica Yang
p560
aVIzzy
p561
aVEric Peterson
p562
ag543
ag543
aVRebecca Guay
p563
aVRon Spencer
p564
aVAlex Horley-Orlandelli
p565
aVRebecca Guay
p566
aVRebecca Guay
p567
aVRebecca Guay
p568
aVMelissa A. Benson
p569
aVRon Spencer
p570
aVLuca Zontini
p571
aVLuca Zontini
p572
aVAndrew Robinson
p573
aVCarl Critchlow
p574
aVDiTerlizzi
p575
aVAlex Horley-Orlandelli
p576
aVKev Walker
p577
aVRon Spencer
p578
aVGreg & Tim Hildebrandt
p579
aVMichael Komarck
p580
aVD. J. Cleland-Hura
p581
aVMatt Cavotta
p582
aVJesper Ejsing
p583
aVNoah Bradley
p584
aVTony Roberts
p585
aVJohn Matson
p586
aVDouglas Schuler
p587
aVClint Cearley
p588
aVVal Mayerik
p589
aVKaja Foglio
p590
aVRichard Thomas
p591
aVLuca Zontini
p592
aVMartina Pilcerova
p593
aVDan Scott
p594
aVChristopher Moeller
p595
aVAdrian Smith
p596
aVBen Thompson
p597
asS'powers'
p598
(lp599
g508
ag509
ag509
ag508
ag509
ag509
ag509
ag509
ag508
ag509
ag511
ag509
ag508
ag512
ag509
ag509
ag512
ag512
ag511
ag513
ag508
ag511
ag512
ag511
ag513
ag509
ag514
ag513
ag511
ag509
ag509
ag512
ag509
ag511
ag508
ag508
ag509
ag511
ag509
ag508
ag509
ag509
ag509
ag509
ag509
ag511
ag509
ag509
ag508
ag512
ag508
ag508
ag508
ag511
ag512
ag512
ag513
ag508
ag509
ag509
ag511
ag511
ag509
ag510
ag509
ag511
ag511
ag508
ag509
ag509
ag512
ag509
ag508
ag508
ag512
ag509
ag509
ag512
ag509
aV10
p600
ag508
ag512
ag509
asS'types'
p601
(lp602
VCreature - Human Knight
p603
aVTribal Sorcery - Rogue
p604
aVTribal Sorcery - Rogue
p605
aVCreature - Human Knight
p606
aVEnchantment
p607
aVEnchantment
p608
aVEnchantment Creature - Unicorn
p609
aVEnchantment
p610
aVCreature - Human Nomad Cleric
p611
aVEnchantment
p612
aVCreature - Human Spellshaper Assassin
p613
aVEnchantment
p614
aVCreature - Human Cleric Soldier
p615
aVCreature - Elf Druid
p616
aVSorcery
p617
aVArtifact
p618
aVCreature - Human Knight
p619
aVCreature - Elf Scout
p620
aVCreature - Noggle Rogue
p621
aVCreature - Elemental
p622
aVCreature - Spirit Avatar
p623
aVCreature - Noggle Rogue
p624
aVCreature - Noggle Rogue
p625
aVCreature - Noggle Wizard
p626
aVCreature - Human Druid
p627
aVPlane - New Phyrexia
p628
aVCreature - Noggle Rogue
p629
aVCreature - Goblin
p630
aVCreature - Human Cleric
p631
aVArtifact - Equipment
p632
aVInstant - Arcane
p633
aVCreature - Human Nomad
p634
aVLand
p635
aVLegendary Creature - Human Warrior
p636
aVCreature - Human Knight
p637
aVCreature - Imp
p638
aVSorcery
p639
aVCreature - Spirit
p640
aVInstant
p641
aVCreature - Human Knight
p642
aVEnchantment - Aura
p643
aVEnchantment
p644
aVInstant
p645
aVSorcery
p646
aVTribal Instant - Eldrazi
p647
aVCreature - Human Nomad Cleric
p648
aVArtifact
p649
aVInstant
p650
aVCreature - Elf Archer
p651
aVCreature - Elf Scout
p652
aVCreature - Human Cleric Soldier
p653
aVCreature - Elf
p654
aVCreature - Elf Archer
p655
aVCreature - Elf Warrior
p656
aVCreature - Elf Druid
p657
aVCreature - Elf Scout
p658
aVCreature - Zombie
p659
aVCreature - Zombie
p660
aVArtifact
p661
aVEnchantment
p662
aVCreature - Human Cleric
p663
aVCreature - Human Cleric Soldier
p664
aVEnchantment
p665
aVCreature - Elf Scout
p666
aVEnchantment
p667
aVCreature - Wurm
p668
aVCreature - Elf Nomad
p669
aVCreature - Cat
p670
aVOngoing Scheme
p671
aVLand
p672
aVCreature - Elephant
p673
aVInstant
p674
aVCreature - Human Knight
p675
aVCreature - Human Rogue
p676
aVCreature - Kor Nomad Soldier
p677
aVArtifact
p678
aVArtifact
p679
aVCreature - Human Advisor Mutant
p680
aVLand
p681
aVCreature - Elemental Warrior
p682
aVCreature - Spirit Avatar
p683
aVCreature - Frog
p684
aVSorcery
p685
asS'numbers'
p686
(lp687
V187
p688
aV45
p689
aV70
p690
aV282
p691
aV99
p692
aV168
p693
aV130
p694
aV161
p695
aV30
p696
aV165
p697
aV150
p698
aV32
p699
aV36
p700
aV221
p701
aV222
p702
aV200
p703
aV202
p704
aV260
p705
aV109
p706
aV124
p707
aV144
p708
aV106
p709
aV107
p710
aV108
p711
aV87
p712
aV23
p713
aV126
p714
aV220
p715
aV45
p716
aV264
p717
aV137
p718
aV37
p719
aV322
p720
aV171
p721
aV189
p722
aV59
p723
aV135
p724
aV29
p725
aV151
p726
aV28
p727
aV70
p728
aV56
p729
aV78
p730
aV39
p731
aV8
p732
aV15
p733
aV17
p734
aV118
p735
aV137
p736
aV138
p737
aV19
p738
aV69
p739
aV72
p740
aV73
p741
aV82
p742
aV132
p743
aV35
p744
aV77
p745
aV304
p746
aV142
p747
aV47
p748
aV75
p749
aV31
p750
aV271
p751
aV14
p752
aV119
p753
aV200
p754
aV257
p755
aV33
p756
aV237
p757
aV185
p758
aV310
p759
aV54
p760
aV88
p761
aV64
p762
aV12
p763
aV13
p764
aV27
p765
aV175
p766
aV187
p767
aV15
p768
aV15
p769
aV49
p770
as.