(dp0
S'rares'
p1
(lp2
VCommon
p3
aVCommon
p4
asS'editns'
p5
(lp6
VMirrodin Besieged
p7
aVDissension
p8
asS'ids'
p9
(lp10
V214036
p11
aV107328
p12
asS'texts'
p13
(lp14
VWhen Peace Strider enters the battlefield, you gain 3 life.
p15
aVEnchant creature<br>Enchanted creature has "{T}: Draw a card."<br>{W}: Enchanted creature gains vigilance until end of turn.
p16
asS'costs'
p17
(lp18
V{1}{U}
p19
aV{3}{U}
p20
asS'names'
p21
(lp22
VOculus
p23
aVOcular Halo
p24
asS'toughs'
p25
(lp26
V4
p27
aS'N/A'
p28
asS'artists'
p29
(lp30
S''
p31
aVRalph Horsley
p32
asS'powers'
p33
(lp34
V3
p35
ag28
asS'types'
p36
(lp37
VCreature - Homunculus
p38
aVEnchantment - Aura
p39
asS'numbers'
p40
(lp41
V29
p42
aV28
p43
as.