(dp0
S'rares'
p1
(lp2
VRare
p3
aVMythic Rare
p4
aVCommon
p5
aVMythic Rare
p6
aVRare
p7
asS'editns'
p8
(lp9
VMasters Edition III
p10
aVCommander 2013 Edition
p11
aVShadowmoor
p12
aVInnistrad
p13
aVArabian Nights
p14
asS'ids'
p15
(lp16
V201144
p17
aV376436
p18
aV142007
p19
aV247235
p20
aV937
p21
asS'texts'
p22
(lp23
V{T}: Add {U} to your mana pool.
p24
aVAt the beginning of your upkeep, you gain 2 life.<br>Whenever you gain life, you may pay {1}. If you do, draw a card and each opponent loses 1 life.<br>At the beginning of your upkeep, if Oloro, Ageless Ascetic is in the command zone, you gain 2 life.
p25
aVWanderbrine Rootcutters can't be blocked by green creatures.
p26
aVOrchard Spirit can't be blocked except by creatures with flying or reach.
p27
aVYou may choose not to untap Old Man of the Sea during your untap step.<br>{T}: Gain control of target creature with power less than or equal to Old Man of the Sea's power for as long as Old Man of the Sea remains tapped and that creature's power remains less than or equal to Old Man of the Sea's power.
p28
asS'costs'
p29
(lp30
V{1}{U}{U}
p31
aV{3}{W}{U}{B}
p32
aV{3}{G/W}{G/W}
p33
aV{2}{B}
p34
aV{1}{U}{U}
p35
asS'names'
p36
(lp37
VOld Man of the Sea
p38
aVOloro, Ageless Ascetic
p39
aVOld Ghastbark
p40
aVOlivia Voldaren
p41
aVOld Man of the Sea
p42
asS'toughs'
p43
(lp44
V7
p45
aV4
p46
aV6
p47
aV1
p48
aV3
p49
asS'artists'
p50
(lp51
VEdward P. Beard, Jr.
p52
aVEric Deschamps
p53
aVThomas M. Baxa
p54
aVEric Deschamps
p55
aVSusan Van Camp
p56
asS'powers'
p57
(lp58
g45
aV2
p59
ag49
ag46
ag59
asS'types'
p60
(lp61
VCreature - Djinn
p62
aVLegendary Creature - Giant Soldier
p63
aVCreature - Treefolk Warrior
p64
aVLegendary Creature - Vampire
p65
aVCreature - Djinn
p66
asS'numbers'
p67
(lp68
V45
p69
aV203
p70
aV232
p71
aV215
p72
aV14
p73
as.