(dp0
S'rares'
p1
(lp2
VSpecial
p3
aVCommon
p4
aVRare
p5
aVCommon
p6
aVUncommon
p7
aVCommon
p8
aVUncommon
p9
aVUncommon
p10
aVUncommon
p11
aVCommon
p12
aVUncommon
p13
aVUncommon
p14
aVUncommon
p15
aVRare
p16
aVCommon
p17
aVCommon
p18
aVCommon
p19
aVRare
p20
aVUncommon
p21
aVCommon
p22
aVUncommon
p23
aVUncommon
p24
aVRare
p25
aVRare
p26
aVUncommon
p27
aVUncommon
p28
aVUncommon
p29
aVCommon
p30
aVCommon
p31
aVUncommon
p32
aVUncommon
p33
aVCommon
p34
aVCommon
p35
aVCommon
p36
aVUncommon
p37
aVCommon
p38
aVCommon
p39
aVCommon
p40
aVCommon
p41
aVCommon
p42
aVCommon
p43
aVCommon
p44
aVCommon
p45
aVCommon
p46
aVCommon
p47
aVRare
p48
aVCommon
p49
aVUncommon
p50
aVUncommon
p51
aVUncommon
p52
aVUncommon
p53
aVUncommon
p54
aVUncommon
p55
aVUncommon
p56
aVUncommon
p57
aVUncommon
p58
aVCommon
p59
aVCommon
p60
aVCommon
p61
aVRare
p62
aVCommon
p63
aVRare
p64
aVUncommon
p65
aVRare
p66
aVCommon
p67
aVCommon
p68
aVCommon
p69
aVUncommon
p70
aVUncommon
p71
aVUncommon
p72
aVCommon
p73
aVRare
p74
aVUncommon
p75
aVUncommon
p76
aVCommon
p77
aVCommon
p78
aVUncommon
p79
aVCommon
p80
aVCommon
p81
aVCommon
p82
aVUncommon
p83
aVUncommon
p84
aVRare
p85
aVCommon
p86
aVRare
p87
aVRare
p88
aVCommon
p89
aVRare
p90
aVCommon
p91
aVCommon
p92
aVCommon
p93
aVUncommon
p94
aVUncommon
p95
aVCommon
p96
aVUncommon
p97
aVCommon
p98
aVUncommon
p99
aVUncommon
p100
aVUncommon
p101
aVUncommon
p102
aVRare
p103
aVCommon
p104
aVCommon
p105
aVCommon
p106
aVRare
p107
aVRare
p108
aVUncommon
p109
aVCommon
p110
aVRare
p111
aVCommon
p112
aVCommon
p113
aVRare
p114
aVRare
p115
aVUncommon
p116
aVUncommon
p117
aVUncommon
p118
aVUncommon
p119
aVUncommon
p120
aVUncommon
p121
aVCommon
p122
aVCommon
p123
aVRare
p124
aVRare
p125
aVRare
p126
aVUncommon
p127
aVCommon
p128
aVUncommon
p129
aVUncommon
p130
aVUncommon
p131
aVCommon
p132
aVCommon
p133
aVUncommon
p134
aVUncommon
p135
aVUncommon
p136
aVUncommon
p137
aVUncommon
p138
aVUncommon
p139
aVCommon
p140
aVRare
p141
aVCommon
p142
aVUncommon
p143
aVCommon
p144
aVRare
p145
aVCommon
p146
aVUncommon
p147
aVCommon
p148
aVUncommon
p149
aVCommon
p150
aVCommon
p151
aVUncommon
p152
aVRare
p153
aVRare
p154
aVUncommon
p155
aVUncommon
p156
aVRare
p157
aVUncommon
p158
aVCommon
p159
aVSpecial
p160
aVSpecial
p161
aVSpecial
p162
aVCommon
p163
aVUncommon
p164
aVUncommon
p165
aVUncommon
p166
aVCommon
p167
aVCommon
p168
aVUncommon
p169
aVUncommon
p170
aVSpecial
p171
aVSpecial
p172
aVCommon
p173
aVUncommon
p174
aVRare
p175
asS'editns'
p176
(lp177
VAnthologies
p178
aVMagic: The Gathering-Commander
p179
aVMagic: The Gathering-Commander
p180
aVMagic: The Gathering-Commander
p181
aVMagic: The Gathering-Commander
p182
aVMagic: The Gathering-Commander
p183
aVLimited Edition Beta
p184
aVLimited Edition Beta
p185
aVMorningtide
p186
aVMorningtide
p187
aVFourth Edition
p188
aVFourth Edition
p189
aVFourth Edition
p190
aVPlanar Chaos
p191
aVAntiquities
p192
aVAntiquities
p193
aVScars of Mirrodin
p194
aVBorn of the Gods
p195
aVBorn of the Gods
p196
aVBorn of the Gods
p197
aVBorn of the Gods
p198
aVMagic 2010
p199
aVTempest
p200
aVTempest
p201
aVTempest
p202
aVTenth Edition
p203
aVTenth Edition
p204
aVMercadian Masques
p205
aVVintage Masters
p206
aVThe Dark
p207
aVStarter 2000
p208
aVFallen Empires
p209
aVFallen Empires
p210
aVFallen Empires
p211
aVFallen Empires
p212
aVFallen Empires
p213
aVFallen Empires
p214
aVFallen Empires
p215
aVFallen Empires
p216
aVFallen Empires
p217
aVFallen Empires
p218
aVFallen Empires
p219
aVFallen Empires
p220
aVFallen Empires
p221
aVFallen Empires
p222
aVFallen Empires
p223
aVApocalypse
p224
aVApocalypse
p225
aVApocalypse
p226
aVApocalypse
p227
aVRevised Edition
p228
aVRevised Edition
p229
aVRevised Edition
p230
aVMasters Edition II
p231
aVMasters Edition II
p232
aVMasters Edition II
p233
aVMasters Edition II
p234
aVMasters Edition II
p235
aVMasters Edition II
p236
aVMasters Edition II
p237
aVMasters Edition II
p238
aVMasters Edition II
p239
aVMasters Edition II
p240
aVGuildpact
p241
aVGuildpact
p242
aVGuildpact
p243
aVGuildpact
p244
aVGuildpact
p245
aVGuildpact
p246
aVGuildpact
p247
aVNinth Edition
p248
aVNinth Edition
p249
aVNinth Edition
p250
aVNinth Edition
p251
aVPlanechase 2012 Edition
p252
aVPlanechase 2012 Edition
p253
aVChampions of Kamigawa
p254
aVChampions of Kamigawa
p255
aVChampions of Kamigawa
p256
aVChampions of Kamigawa
p257
aVChampions of Kamigawa
p258
aVChampions of Kamigawa
p259
aVChampions of Kamigawa
p260
aVChampions of Kamigawa
p261
aVBetrayers of Kamigawa
p262
aVBetrayers of Kamigawa
p263
aVRavnica: City of Guilds
p264
aVCommander 2013 Edition
p265
aVCommander 2013 Edition
p266
aVCommander 2013 Edition
p267
aVTime Spiral
p268
aVGatecrash
p269
aVGatecrash
p270
aVGatecrash
p271
aVGatecrash
p272
aVColdsnap
p273
aVUnlimited Edition
p274
aVUnlimited Edition
p275
aVIce Age
p276
aVIce Age
p277
aVIce Age
p278
aVIce Age
p279
aVIce Age
p280
aVIce Age
p281
aVIce Age
p282
aVIce Age
p283
aVIce Age
p284
aVTorment
p285
aVZendikar
p286
aVZendikar
p287
aVZendikar
p288
aVZendikar
p289
aVClassic Sixth Edition
p290
aVClassic Sixth Edition
p291
aVClassic Sixth Edition
p292
aVClassic Sixth Edition
p293
aVMirrodin
p294
aVSeventh Edition
p295
aVSeventh Edition
p296
aVMagic 2015 Core Set
p297
aVMagic 2015 Core Set
p298
aVShadowmoor
p299
aVShadowmoor
p300
aVFuture Sight
p301
aVPlanechase
p302
aVPlanechase
p303
aVPlanechase
p304
aVUrza's Saga
p305
aVMasters Edition
p306
aVMasters Edition
p307
aVMasters Edition
p308
aVTheros
p309
aVTheros
p310
aVTheros
p311
aVTheros
p312
aVTheros
p313
aVWeatherlight
p314
aVMagic: The Gathering\u2014Conspiracy
p315
aVEighth Edition
p316
aVEighth Edition
p317
aVEighth Edition
p318
aVNemesis
p319
aVNemesis
p320
aVInvasion
p321
aVInvasion
p322
aVJourney into Nyx
p323
aVFifth Edition
p324
aVFifth Edition
p325
aVFifth Edition
p326
aVFifth Edition
p327
aVFifth Edition
p328
aVFifth Edition
p329
aVFifth Edition
p330
aVFifth Edition
p331
aVFifth Edition
p332
aVFifth Edition
p333
aVDuel Decks: Jace vs. Vraska
p334
aVVanguard
p335
aVVanguard
p336
aVVanguard
p337
aVInnistrad
p338
aVLimited Edition Alpha
p339
aVLimited Edition Alpha
p340
aVMasters Edition IV
p341
aVDragon's Maze
p342
aVDragon's Maze
p343
aVMagic 2011
p344
aVHomelands
p345
aVTime Spiral "Timeshifted"
p346
aVTime Spiral "Timeshifted"
p347
aVDuel Decks: Heroes vs. Monsters
p348
aVDuel Decks: Heroes vs. Monsters
p349
aVPlaneshift
p350
asS'ids'
p351
(lp352
V-2146729929
p353
aV247161
p354
aV247363
p355
aV247283
p356
aV247284
p357
aV247285
p358
aV508
p359
aV509
p360
aV152991
p361
aV153463
p362
aV2064
p363
aV2297
p364
aV2298
p365
aV136170
p366
aV1062
p367
aV1016
p368
aV210239
p369
aV378475
p370
aV378419
p371
aV378394
p372
aV378395
p373
aV191337
p374
aV4889
p375
aV4890
p376
aV4891
p377
aV129663
p378
aV129665
p379
aV19547
p380
aV383038
p381
aV1799
p382
aV25540
p383
aV1863
p384
aV1967
p385
aV2000
p386
aV1960
p387
aV1963
p388
aV1962
p389
aV1961
p390
aV1965
p391
aV1964
p392
aV1939
p393
aV2002
p394
aV2001
p395
aV1864
p396
aV1862
p397
aV1968
p398
aV28751
p399
aV27167
p400
aV27168
p401
aV-27167
p402
aV1309
p403
aV1310
p404
aV1131
p405
aV184774
p406
aV184652
p407
aV184505
p408
aV184653
p409
aV184654
p410
aV184656
p411
aV184657
p412
aV184701
p413
aV184658
p414
aV184659
p415
aV96844
p416
aV96870
p417
aV96871
p418
aV96893
p419
aV96921
p420
aV96938
p421
aV97206
p422
aV82943
p423
aV83192
p424
aV83193
p425
aV95220
p426
aV226524
p427
aV226507
p428
aV50261
p429
aV50308
p430
aV50319
p431
aV75403
p432
aV78975
p433
aV78984
p434
aV80241
p435
aV50487
p436
aV74512
p437
aV74607
p438
aV87902
p439
aV376441
p440
aV376442
p441
aV376443
p442
aV114902
p443
aV366259
p444
aV366436
p445
aV366374
p446
aV366479
p447
aV121232
p448
aV810
p449
aV811
p450
aV2641
p451
aV2644
p452
aV2645
p453
aV2646
p454
aV2642
p455
aV2643
p456
aV2647
p457
aV2705
p458
aV2706
p459
aV32238
p460
aV185737
p461
aV185696
p462
aV178138
p463
aV190417
p464
aV11429
p465
aV11423
p466
aV14635
p467
aV14767
p468
aV46016
p469
aV15812
p470
aV11427
p471
aV383333
p472
aV383334
p473
aV146007
p474
aV159414
p475
aV136210
p476
aV-205384
p477
aV205385
p478
aV205384
p479
aV5625
p480
aV159117
p481
aV159188
p482
aV159193
p483
aV373646
p484
aV373619
p485
aV373553
p486
aV373647
p487
aV373696
p488
aV4558
p489
aV382319
p490
aV45210
p491
aV45351
p492
aV45366
p493
aV22293
p494
aV22030
p495
aV22945
p496
aV23187
p497
aV380466
p498
aV4075
p499
aV4076
p500
aV4077
p501
aV4078
p502
aV4079
p503
aV4080
p504
aV4146
p505
aV4074
p506
aV4145
p507
aV3805
p508
aV380248
p509
aV12141
p510
aV191307
p511
aV4966
p512
aV234855
p513
aV213
p514
aV214
p515
aV221110
p516
aV369078
p517
aV369079
p518
aV206331
p519
aV3007
p520
aV106646
p521
aV108833
p522
aV373399
p523
aV373406
p524
aV26852
p525
asS'texts'
p526
(lp527
VFlying<br><br>Vigilance (Attacking doesn't cause this creature to tap.)
p528
aVKicker {R} <i>(You may pay an additional {R} as you cast this spell.)</i><br>Destroy target artifact or enchantment. If Orim's Thunder was kicked, it deals damage equal to that permanent's converted mana cost to target creature.
p529
aVFlying<br>Whenever Oros, the Avenger deals combat damage to a player, you may pay {2}{W}. If you do, Oros deals 3 damage to each nonwhite creature.
p530
aVOrzhov Basilica enters the battlefield tapped.<br>When Orzhov Basilica enters the battlefield, return a land you control to its owner's hand.<br>{T}: Add {W}{B} to your mana pool.
p531
aV{2}{W}: Target player gains 1 life.<br>{2}{B}: Each player loses 1 life.
p532
aV{1}, {T}: Add {W}{B} to your mana pool.
p533
aVAt the beginning of each player's upkeep, Power Surge deals X damage to that player, where X is the number of untapped lands he or she controlled at the beginning of this turn.
p534
aV{T}: Prodigal Sorcerer deals 1 damage to target creature or player.
p535
aVWhen Ambassador Oak enters the battlefield, put a 1/1 green Elf Warrior creature token onto the battlefield.
p536
aV<i>({T}: Add {G} to your mana pool.)</i><br>As Murmuring Bosk enters the battlefield, you may reveal a Treefolk card from your hand. If you don't, Murmuring Bosk enters the battlefield tapped.<br>{T}: Add {W} or {B} to your mana pool. Murmuring Bosk deals 1 damage to you.
p537
aVFlying
p538
aVW
p539
ag539
aVFlying<br>Whenever Oros, the Avenger deals combat damage to a player, you may pay {2}{W}. If you do, Oros deals 3 damage to each nonwhite creature.
p540
aV{T}, Sacrifice an artifact: Orcish Mechanics deals 2 damage to target creature or player.
p541
aVFlying
p542
aVWhenever you cast an artifact spell, you may have target creature get +2/+0 and gain deathtouch until end of turn.
p543
aVInspired- Whenever Oreskos Sun Guide becomes untapped, you gain 2 life.
p544
aVFlying<br>Tribute 2 <i>(As this creature enters the battlefield, an opponent of your choice may place two +1/+1 counters on it.)</i><br>When Ornitharch enters the battlefield, if tribute wasn't paid, put two 1/1 white Bird creature tokens with flying onto the battlefield.
p545
aVInspired- Whenever Pain Seer becomes untapped, reveal the top card of your library and put that card into your hand. You lose life equal to that card's converted mana cost.
p546
aVSearch your library for up to two basic land cards, reveal those cards, and put one onto the battlefield tapped and the other into your hand. Shuffle your library, then scry 1. <i>(Look at the top card of your library. You may put that card on the bottom of your library.)</i>
p547
aVDestroy all nonland permanents.
p548
aV{T}: Prevent the next 3 damage that would be dealt to target creature or player this turn.
p549
aVWhenever one or more creatures attack you, you gain 1 life for each attacking creature.
p550
aV{2}, Discard a card: Put a 1/1 white Pegasus creature token with flying onto the battlefield.
p551
aVTarget player takes two extra turns after this one.
p552
aVSwampwalk <i>(This creature is unblockable as long as defending player controls a Swamp.)</i>
p553
aVTarget player gains 5 life.
p554
aVFlying<br>When Palinchron enters the battlefield, untap up to seven lands.<br>{2}{U}{U}: Return Palinchron to its owner's hand.
p555
aV{T}, Sacrifice another Orc or Goblin: Other Orc creatures get +1/+1 until end of turn.
p556
aVWhenever a creature dies, you may pay {1}. If you do, you gain 1 life.
p557
aVProtection from white<br>{B}: Order of the Ebon Hand gains first strike until end of turn.<br>{B}{B}: Order of the Ebon Hand gets +1/+0 until end of turn.
p558
aVOrcish Veteran can't block white creatures with power 2 or greater.<br>{R}: Orcish Veteran gains first strike until end of turn.
p559
aVProtection from black<br>{W}: Order of Leitbur gains first strike until end of turn.<br>{W}{W}: Order of Leitbur gets +1/+0 until end of turn.
p560
aV{1}: Flip a coin. If you win the flip, target Orc creature gets +2/+0 until end of turn. If you lose the flip, it gets -0/-2 until end of turn.
p561
aV{T}: Look at the top three cards of target player's library.
p562
aV{T}: Look at the top three cards of target player's library.
p563
aV{T}: Look at the top three cards of target player's library.
p564
aVOrcish Veteran can't block white creatures with power 2 or greater.<br>{R}: Orcish Veteran gains first strike until end of turn.
p565
aVOrcish Veteran can't block white creatures with power 2 or greater.<br>{R}: Orcish Veteran gains first strike until end of turn.
p566
aVOrcish Veteran can't block white creatures with power 2 or greater.<br>{R}: Orcish Veteran gains first strike until end of turn.
p567
aVProtection from black<br>{W}: Order of Leitbur gains first strike until end of turn.<br>{W}{W}: Order of Leitbur gets +1/+0 until end of turn.
p568
aVProtection from black<br>{W}: Order of Leitbur gains first strike until end of turn.<br>{W}{W}: Order of Leitbur gets +1/+0 until end of turn.
p569
aVProtection from white<br>{B}: Order of the Ebon Hand gains first strike until end of turn.<br>{B}{B}: Order of the Ebon Hand gets +1/+0 until end of turn.
p570
aVProtection from white<br>{B}: Order of the Ebon Hand gains first strike until end of turn.<br>{B}{B}: Order of the Ebon Hand gets +1/+0 until end of turn.
p571
aVTrample<br>Orgg can't attack if defending player controls an untapped creature with power 3 or greater.<br>Orgg can't block creatures with power 3 or greater.
p572
aVKicker {R} <i>(You may pay an additional {R} as you cast this spell.)</i><br>Destroy target artifact or enchantment. If Orim's Thunder was kicked, it deals damage equal to that permanent's converted mana cost to target creature.
p573
aVExile target attacking creature.<br>
p574
aVCreatures can't block this turn.
p575
aVCreatures can't block this turn.
p576
aVAt the beginning of each player's upkeep, Power Surge deals X damage to that player, where X is the number of untapped lands he or she controlled at the beginning of this turn.
p577
aVAs Primal Clay enters the battlefield, it becomes your choice of a 3/3 artifact creature, a 2/2 artifact creature with flying, or a 1/6 Wall artifact creature with defender in addition to its other types.
p578
aV{T}: Prodigal Sorcerer deals 1 damage to target creature or player.
p579
aV{1}: Flip a coin. If you win the flip, target Orc creature gets +2/+0 until end of turn. If you lose the flip, it gets -0/-2 until end of turn.
p580
aVOrcish Conscripts can't attack unless at least two other creatures attack.<br><br>Orcish Conscripts can't block unless at least two other creatures block.
p581
aV{T}: Target land becomes a Swamp until its controller's next untap step.
p582
aV{T}, Sacrifice a Forest: Add three mana in any combination of {R} and/or {G} to your mana pool.
p583
aVWhenever Orcish Squatters attacks and isn't blocked, you may gain control of target land defending player controls for as long as you control Orcish Squatters. If you do, Orcish Squatters assigns no combat damage this turn.
p584
aVOrcish Veteran can't block white creatures with power 2 or greater.<br>{R}: Orcish Veteran gains first strike until end of turn.
p585
aV{T}, Pay 1 life: Counter target black spell.
p586
aVProtection from black<br>{W}: Order of the White Shield gains first strike until end of turn.<br>{W}{W}: Order of the White Shield gets +1/+0 until end of turn.
p587
aVCast Panic only during combat before blockers are declared.<br>Target creature can't block this turn.<br>Draw a card at the beginning of the next turn's upkeep.
p588
aVSearch your library for a sorcery card and reveal that card. Shuffle your library, then put the card on top of it.
p589
aVReplicate {1}{R} <i>(When you cast this spell, copy it for each time you paid its replicate cost. You may choose new targets for the copies.)</i><br>Pyromatics deals 1 damage to target creature or player.
p590
aVOrzhov Basilica enters the battlefield tapped.<br>When Orzhov Basilica enters the battlefield, return a land you control to its owner's hand.<br>{T}: Add {W}{B} to your mana pool.
p591
aVWhen Hatching Plans is put into a graveyard from the battlefield, draw three cards.
p592
aV<i>({T}: Add {R} or {G} to your mana pool.)</i><br>As Stomping Ground enters the battlefield, you may pay 2 life. If you don't, Stomping Ground enters the battlefield tapped.
p593
aVWhenever a creature attacks you, its controller loses 1 life.
p594
aVBloodthirst 1 <i>(If an opponent was dealt damage this turn, this creature enters the battlefield with a +1/+1 counter on it.)</i><br>Creatures with power less than Skarrgan Pit-Skulk's power can't block it.
p595
aVAt the beginning of your upkeep, reveal the top card of your library. If it's a creature card, put it onto the battlefield. That creature gains haste until end of turn. Sacrifice it at the beginning of the next end step.
p596
aV{G}: Regenerate Ancient Silverback. <i>(The next time this creature would be destroyed this turn, it isn't. Instead tap it, remove all damage from it, and remove it from combat.)</i>
p597
aVHaste <i>(This creature can attack and {T} as soon as it comes under your control.)</i>
p598
aVReturn target creature card from your graveyard to your hand.
p599
aVSearch your library for a basic land card and put that card onto the battlefield tapped. Then shuffle your library.
p600
aVWhenever a creature you control deals combat damage to a player, you may search your library for a basic land card, put it onto the battlefield tapped, then shuffle your library.<br>Whenever you roll chaos, target creature is unblockable this turn.
p601
aVWhen you planeswalk away from Orzhova, each player returns all creature cards from his or her graveyard to the battlefield.<br>Whenever you roll chaos, for each opponent, exile up to one target creature card from that player's graveyard.
p602
aVReach <i>(This creature can block creatures with flying.)</i><br>Whenever you cast a Spirit or Arcane spell, Orbweaver Kumo gains forestwalk until end of turn.
p603
aVWhenever Orochi Ranger deals combat damage to a creature, tap that creature and it doesn't untap during its controller's next untap step.
p604
aV{G}: Add one mana of any color to your mana pool.
p605
aVFlash<br>Enchant creature<br>Enchanted creature gets +1/+1.<br>{G}: Regenerate enchanted creature.
p606
aVReach <i>(This creature can block creatures with flying.)</i><br>Soulshift 4 <i>(When this creature dies, you may return target Spirit card with converted mana cost 4 or less from your graveyard to your hand.)</i>
p607
aVSearch your library for a legendary creature card, reveal it, and put it into your hand. Then shuffle your library.
p608
aVGlacial Ray deals 2 damage to target creature or player.<br>Splice onto Arcane {1}{R} <i>(As you cast an Arcane spell, you may reveal this card from your hand and pay its splice cost. If you do, add this card's effects to that spell.)</i>
p609
aVDestroy target land.
p610
aVEmpty-Shrine Kannushi has protection from the colors of permanents you control.
p611
aVEnchant creature<br>{1}{W}: The next 1 damage that would be dealt to enchanted creature this turn is dealt to target creature or player instead.
p612
aV{1}: Choose a basic land type. Each land you control becomes that type until end of turn.
p613
aVChoose left or right. Starting with you and proceeding in the chosen direction, each player chooses a creature controlled by the next player in that direction. Each player gains control of the creature he or she chose.
p614
aVOrzhov Basilica enters the battlefield tapped.<br>When Orzhov Basilica enters the battlefield, return a land you control to its owner's hand.<br>{T}: Add {W}{B} to your mana pool.
p615
aVOrzhov Guildgate enters the battlefield tapped.<br>{T}: Add {W} or {B} to your mana pool.
p616
aVOrcish Cannonade deals 2 damage to target creature or player and 3 damage to you.<br>Draw a card.
p617
aVChoose one- Return target creature you control and all Auras you control attached to it to their owner's hand; or destroy target creature and you lose life equal to its toughness; or return target creature card with converted mana cost 1 or less from your graveyard to the battlefield.
p618
aVOrzhov Guildgate enters the battlefield tapped.<br>{T}: Add {W} or {B} to your mana pool.
p619
aV{T}: Add {W} or {B} to your mana pool.<br>{W}{B}: Orzhov Keyrune becomes a 1/4 white and black Thrull artifact creature with lifelink until end of turn.
p620
aVTarget player puts the top three cards of his or her library into his or her graveyard.<br>Cipher <i>(Then you may exile this spell card encoded on a creature you control. Whenever that creature deals combat damage to a player, its controller may cast a copy of the encoded card without paying its mana cost.)</i>
p621
aVR
p622
aVAt the beginning of each player's upkeep, Power Surge deals X damage to that player, where X is the number of untapped lands he or she controlled at the beginning of this turn.
p623
aV{T}: Prodigal Sorcerer deals 1 damage to target creature or player.
p624
aV{R}{R}, {T}: Target creature can't be regenerated this turn.<br>{B}{B}{R}, {T}: Regenerate target black or green creature.<br>{R}{G}{G}, {T}: Regenerate target black or green creature.
p625
aV{R}, {T}: Look at the top eight cards of your library. Exile four of them at random, then put the rest on top of your library in any order.
p626
aV{T}, Sacrifice a Forest: Add three mana in any combination of {R} and/or {G} to your mana pool.
p627
aVEnchant creature<br>Enchanted creature gets +0/+2.<br>{R}: Enchanted creature gets +1/+0 until end of turn.
p628
aV{T}, Pay 1 life: Counter target black spell.
p629
aVProtection from black<br>{W}: Order of the White Shield gains first strike until end of turn.<br>{W}{W}: Order of the White Shield gets +1/+0 until end of turn.
p630
aVCast Panic only during combat before blockers are declared.<br>Target creature can't block this turn.<br>Draw a card at the beginning of the next turn's upkeep.
p631
aV{4}, {T}: The next time a source of your choice would deal damage to you this turn, prevent that damage.
p632
aV{2}, {T}, Sacrifice Pit Trap: Destroy target attacking creature without flying. It can't be regenerated.
p633
aV{T}, Exile three cards from your graveyard: Target player loses 3 life.
p634
aVKicker {2}{G} <i>(You may pay an additional {2}{G} as you cast this spell.)</i><br>Reach <i>(This creature can block creatures with flying.)</i><br>When Oran-Rief Recluse enters the battlefield, if it was kicked, destroy target creature with flying.
p635
aVWhenever Oran-Rief Survivalist or another Ally enters the battlefield under your control, you may put a +1/+1 counter on Oran-Rief Survivalist.
p636
aVOran-Rief, the Vastwood enters the battlefield tapped.<br>{T}: Add {G} to your mana pool.<br>{T}: Put a +1/+1 counter on each green creature that entered the battlefield this turn.
p637
aVEnchant creature<br>Enchanted creature doesn't untap during its controller's untap step.
p638
aV{T}, Pay 1 life: Counter target black spell.
p639
aVCounter target spell unless its controller pays {X}. If he or she doesn't, that player taps all lands with mana abilities he or she controls and empties his or her mana pool.
p640
aVAs Primal Clay enters the battlefield, it becomes your choice of a 3/3 artifact creature, a 2/2 artifact creature with flying, or a 1/6 Wall artifact creature with defender in addition to its other types.
p641
aVPyrotechnics deals 4 damage divided as you choose among any number of target creatures and/or players.
p642
ag539
aVHaste <i>(This creature can attack and {T} as soon as it comes under your control.)</i>
p643
aVReturn target creature card from your graveyard to your hand.
p644
aVOther blue creatures you control get +1/+1.<br>{U}, {T}: Another target blue creature you control gains flying until end of turn.
p645
aVOther white creatures you control get +1/+1.<br>{W}, {T}: Another target white creature you control gains vigilance until end of turn. <i>(Attacking doesn't cause it to tap.)</i>
p646
aVCorrupt deals damage equal to the number of Swamps you control to target creature or player. You gain life equal to the damage dealt this way.
p647
aVG
p648
aVAt the beginning of each opponent's upkeep, that player reveals the top card of his or her library. If it's a creature card, the player puts the card into his or her graveyard and Shapeshifter's Marrow becomes a copy of that card. <i>(If it does, it loses this ability.)</i>
p649
aVCreatures can't block this turn.
p650
aVKicker {R} <i>(You may pay an additional {R} as you cast this spell.)</i><br>Destroy target artifact or enchantment. If Orim's Thunder was kicked, it deals damage equal to that permanent's converted mana cost to target creature.
p651
aVExile target attacking creature.<br>
p652
aVFear <i>(This creature can't be blocked except by artifact creatures and/or black creatures.)</i><br>Whenever Order of Yawgmoth deals damage to a player, that player discards a card.
p653
aV{T}, Sacrifice an artifact: Orcish Mechanics deals 2 damage to target creature or player.
p654
aVProtection from black<br>{W}: Order of Leitbur gains first strike until end of turn.<br>{W}{W}: Order of Leitbur gets +1/+0 until end of turn.
p655
aVProtection from white<br>{B}: Order of the Ebon Hand gains first strike until end of turn.<br>{B}{B}: Order of the Ebon Hand gets +1/+0 until end of turn.
p656
aVEnchant creature<br>Whenever enchanted creature attacks, put a +1/+1 counter on it. Then if it has three or more +1/+1 counters on it, sacrifice Ordeal of Thassa.<br>When you sacrifice Ordeal of Thassa, draw two cards.
p657
aVDestroy target Mountain. Peak Eruption deals 3 damage to that land's controller.
p658
aVHeroic- Whenever you cast a spell that targets Phalanx Leader, put a +1/+1 counter on each creature you control.
p659
aVPharika's Cure deals 2 damage to target creature and you gain 2 life.
p660
aVWhen Pharika's Mender enters the battlefield, you may return target creature or enchantment card from your graveyard to your hand.
p661
aV{X}{X}{R}, {T}, Sacrifice Orcish Settlers: Destroy X target lands.
p662
aVReveal Paliano, the High City as you draft it. The player to your right chooses a color, you choose another color, then the player to your left chooses a third color.<br>{T}: Add one mana to your mana pool of any color chosen as you drafted cards named Paliano, the High City.
p663
aV{T}: Prevent the next 4 damage that would be dealt to target creature or player this turn.
p664
aVUp to three target creatures can't block this turn.
p665
aVHulking Cyclops can't block.
p666
aVProtection from red
p667
aV{T}: All damage that would be dealt to target creature this turn by a source of your choice is dealt to Oracle's Attendants instead.
p668
aVKicker {1} <i>(You may pay an additional {1} as you cast this spell.)</i><br>Prevent the next 2 damage that would be dealt to target creature or player this turn. If Orim's Touch was kicked, prevent the next 4 damage that would be dealt to that creature or player this turn instead.
p669
aVDomain- Put a 1/1 blue Bird creature token with flying onto the battlefield for each basic land type among lands you control.
p670
aVStrive- Phalanx Formation costs {1}{W} more to cast for each target beyond the first.<br>Any number of target creatures each gain double strike until end of turn. <i>(They deal both first-strike and regular combat damage.)</i>
p671
aVWhenever Orcish Squatters attacks and isn't blocked, you may gain control of target land defending player controls for as long as you control Orcish Squatters. If you do, Orcish Squatters assigns no combat damage this turn.
p672
aVTrample<br>Orgg can't attack if defending player controls an untapped creature with power 3 or greater.<br>Orgg can't block creatures with power 3 or greater.
p673
aVCast Panic only during combat before blockers are declared.<br>Target creature can't block this turn.<br>Draw a card at the beginning of the next turn's upkeep.
p674
aVPrimordial Ooze attacks each turn if able.<br>At the beginning of your upkeep, put a +1/+1 counter on Primordial Ooze. Then you may pay {X}, where X is the number of +1/+1 counters on it. If you don't, tap Primordial Ooze and it deals X damage to you.
p675
aVChoose one- Counter target spell if it's blue; or destroy target permanent if it's blue.
p676
aVDestroy all artifacts. They can't be regenerated.
p677
aVPrevent the next 3 damage that would be dealt to target creature this turn. At the beginning of the next end step, put a +0/+1 counter on that creature for each 1 damage prevented this way.
p678
aVPirate Ship can't attack unless defending player controls an Island.<br>{T}: Pirate Ship deals 1 damage to target creature or player.<br>When you control no Islands, sacrifice Pirate Ship.
p679
aVPlague Rats's power and toughness are each equal to the number of creatures named Plague Rats on the battlefield.
p680
ag539
aVKicker {2}{G} <i>(You may pay an additional {2}{G} as you cast this spell.)</i><br>Reach <i>(This creature can block creatures with flying.)</i><br>When Oran-Rief Recluse enters the battlefield, if it was kicked, destroy target creature with flying.
p681
aV{0}: Untap target attacking creature you control and remove it from combat.
p682
aVAt the beginning of your precombat main phase, add {X} to your mana pool, where X is the number of lands target opponent controls.
p683
aVCreatures you control have reach.
p684
aVDestroy all enchantments. You gain 1 life for each enchantment destroyed this way.
p685
aVTarget blocking creature gets +7/+7 until end of turn.
p686
aV{3}, {T}: Rod of Ruin deals 1 damage to target creature or player.
p687
aVFlying<br>At the beginning of your upkeep, sacrifice Phantasmal Forces unless you pay {U}.
p688
aVTarget creature gets +5/+5 until end of turn.
p689
aVTarget player puts the top two cards of his or her library into his or her graveyard. Draw two cards.
p690
aVFlying<br>You can't lose the game and your opponents can't win the game.
p691
aVChoose two target creatures an opponent controls. That player chooses and sacrifices one of those creatures. Put a -1/-1 counter on the other.
p692
aVTrample<br>Orgg can't attack if defending player controls an untapped creature with power 3 or greater.<br>Orgg can't block creatures with power 3 or greater.
p693
aV{R}, {T}: Look at the top eight cards of your library. Exile four of them at random, then put the rest on top of your library in any order.
p694
aV{T}, Sacrifice a Forest: Add three mana in any combination of {R} and/or {G} to your mana pool.
p695
aVEnchant creature<br>Whenever enchanted creature attacks, put a +1/+1 counter on it. Then if it has three or more +1/+1 counters on it, sacrifice Ordeal of Purphoros.<br>When you sacrifice Ordeal of Purphoros, it deals 3 damage to target creature or player.
p696
aVKicker {W} <i>(You may pay an additional {W} as you cast this spell.)</i><br>Target player can't cast spells this turn.<br>If Orim's Chant was kicked, creatures can't attack this turn.
p697
asS'costs'
p698
(lp699
V{W}{W}
p700
aV{5}{R}
p701
aV{2}{W}
p702
aS'0'
p703
aV{3}{W}{B}{R}
p704
aV{W/B}{W/B}
p705
aV{1}{R}{R}
p706
aV{3}{R}
p707
aV{4}{G}{G}
p708
aV{1}{W}
p709
aV{0}
p710
aV{1}{R}{R}
p711
aV{3}{R}
p712
aV{3}{W}{B}{R}
p713
aV{2}{R}
p714
aV{0}
p715
aV{2}
p716
aV{2}{B}
p717
aV{2}{R}{R}
p718
aV{3}{U}
p719
aV{1}{W}
p720
aV{1}{G}
p721
aV{1}{W}
p722
aV{1}{W}{W}
p723
aV{1}{W}{W}
p724
aV{1}{R}{R}
p725
aV{0}
p726
aV{1}{W}
p727
aV{U}
p728
aV{2}{R}
p729
aV{3}{R}
p730
aV{B}{B}
p731
aV{2}{R}
p732
aV{W}{W}
p733
aV{R}
p734
aV{R}
p735
aV{R}
p736
aV{R}
p737
aV{2}{R}
p738
aV{2}{R}
p739
aV{2}{R}
p740
aV{W}{W}
p741
aV{W}{W}
p742
aV{B}{B}
p743
aV{B}{B}
p744
aV{3}{R}{R}
p745
aV{2}{W}
p746
aV{3}{W}
p747
aV{2}{R}
p748
aV{2}{R}
p749
aV{1}{R}{R}
p750
aV{3}{R}
p751
aV{0}
p752
aV{2}{R}
p753
aV{1}{R}{R}
p754
aV{R}
p755
aV{R}
p756
aV{1}{R}{R}
p757
aV{R}
p758
aV{4}{R}
p759
aV{2}{R}
p760
aV{1}{W}{W}
p761
aV{W}{W}
p762
aV{1}{W}{B}
p763
aV{2}
p764
ag703
aV{2}{B}
p765
aV{W/B}{W/B}
p766
aV{W}
p767
ag703
aV{3}{G}
p768
aV{3}{W}
p769
aV{1}{R}{R}
p770
aV{0}
p771
ag703
ag703
aV{4}{G}{G}
p772
aV{1}{G}
p773
aV{G}
p774
aV{1}{G}
p775
aV{2}{G}
p776
aV{3}{R}{R}
p777
aV{X}{X}
p778
aV{3}{G}
p779
aV{5}
p780
aV{3}
p781
aV{3}{R}
p782
aV{3}{U}
p783
ag703
ag703
aV{1}{R}{R}
p784
aV{2}{W}{B}
p785
aV{3}{G}
p786
ag703
aV{2}{R}{W}
p787
aV{2}{R}
p788
aV{1}{R}{R}
p789
aV{3}{R}
p790
aV{1}{R}{R}
p791
aV{R}{R}
p792
aV{1}{R}
p793
aV{R}
p794
aV{R}
p795
aV{1}{R}{R}
p796
aV{4}{R}
p797
aV{1}{W}{W}
p798
aV{W}{W}
p799
aV{2}{B}
p800
aV{1}{R}{R}{R}
p801
aV{1}{W}
p802
aV{3}{G}
p803
ag703
aV{1}{W}{W}
p804
aV{1}{R}{R}
p805
aV{3}{R}
p806
aV{0}
p807
aV{0}
p808
aV{1}{R}{R}
p809
aV{3}{R}
p810
aV{4}{U}
p811
aV{3}{G}{G}
p812
aV{1}{W}{W}
p813
aV{2}{G/W}
p814
aV{1}{W}{W}
p815
aV{2}{R}
p816
aV{2}{W}
p817
aV{3}{W}
p818
aV{2}{B}{B}
p819
aV{2}{R}
p820
aV{W}{W}
p821
aV{B}{B}
p822
aV{1}{U}
p823
aV{3}
p824
aV{1}{B}
p825
aV{1}{W}
p826
aV{1}{G}
p827
aV{1}{R}
p828
aV{5}{W}
p829
aV{3}{W}
p830
aV{R}
p831
aV{1}{R}{R}
p832
aV{3}{U}
p833
aV{3}{W}
p834
aV{W}
p835
aV{3}{W}{U}
p836
aV{W}
p837
aV{R}
p838
aV{R}
p839
aV{1}{R}{R}
p840
aV{3}{R}
p841
aV{4}{R}
p842
aV{3}{R}{R}
p843
aV{W}{W}
p844
aV{1}{R}{R}
p845
aV{1}{W}{W}
p846
aV{0}
p847
aV{1}{G}{G}
p848
ag703
ag703
ag703
aV{2}{B}{R}
p849
aV{1}{R}{R}
p850
aV{3}{R}
p851
aV{2}{R}
p852
aV{3}
p853
ag703
aV{2}{B}{B}
p854
aV{1}{R}{R}
p855
aV{3}{R}{R}
p856
aV{1}{R}
p857
aV{R}
p858
aV{1}{R}
p859
aV{W}
p860
asS'names'
p861
(lp862
VOrder of the White Shield
p863
aVOrim's Thunder
p864
aVOros, the Avenger
p865
aVOrzhov Basilica
p866
aVOrzhov Guildmage
p867
aVOrzhov Signet
p868
aVOrcish Artillery
p869
aVOrcish Oriflamme
p870
aVOrchard Warden
p871
aVOrder of the Golden Cricket
p872
aVOrnithopter
p873
aVOrcish Artillery
p874
aVOrcish Oriflamme
p875
aVOros, the Avenger
p876
aVOrcish Mechanics
p877
aVOrnithopter
p878
aVOrigin Spellbomb
p879
aVOracle of Bones
p880
aVOracle's Insight
p881
aVOreskos Sun Guide
p882
aVOrnitharch
p883
aVOrnithopter
p884
aVOracle en-Vec
p885
aVOrim, Samite Healer
p886
aVOrim's Prayer
p887
aVOrcish Artillery
p888
aVOrnithopter
p889
aVOrim's Cure
p890
aVOrcish Lumberjack
p891
aVOrc General
p892
aVOrcish Oriflamme
p893
aVOrder of the Ebon Hand
p894
aVOrcish Veteran
p895
aVOrder of Leitbur
p896
aVOrcish Captain
p897
aVOrcish Spy
p898
aVOrcish Spy
p899
aVOrcish Spy
p900
aVOrcish Veteran
p901
aVOrcish Veteran
p902
aVOrcish Veteran
p903
aVOrder of Leitbur
p904
aVOrder of Leitbur
p905
aVOrder of the Ebon Hand
p906
aVOrder of the Ebon Hand
p907
aVOrgg
p908
aVOrim's Thunder
p909
aVOrder // Chaos (Order)
p910
aVOrder // Chaos (Chaos)
p911
aVOrder // Chaos (Chaos)
p912
aVOrcish Artillery
p913
aVOrcish Oriflamme
p914
aVOrnithopter
p915
aVOrc General
p916
aVOrcish Cannoneers
p917
aVOrcish Captain
p918
aVOrcish Conscripts
p919
aVOrcish Farmer
p920
aVOrcish Lumberjack
p921
aVOrcish Squatters
p922
aVOrcish Veteran
p923
aVOrder of the Sacred Torch
p924
aVOrder of the White Shield
p925
aVOrzhov Pontiff
p926
aVOrzhov Signet
p927
aVOrzhov Basilica
p928
aVOrzhov Euthanist
p929
aVOrzhov Guildmage
p930
aVOrder of the Stars
p931
aVOrzhova, the Church of Deals
p932
aVOrder of the Sacred Bell
p933
aVOracle's Attendants
p934
aVOrcish Artillery
p935
aVOrnithopter
p936
aVOrochi Colony
p937
aVOrzhova
p938
aVOrbweaver Kumo
p939
aVOrochi Ranger
p940
aVOrochi Leafcaller
p941
aVOrochi Sustainer
p942
aVOrochi Eggwatcher (Shidako, Broodmistress)
p943
aVOre Gorger
p944
aVOrochi Hatchery
p945
aVOrder of the Sacred Bell
p946
aVOrnate Kanzashi
p947
aVOrb of Dreams
p948
aVOrdruun Commando
p949
aVOrder of Succession
p950
aVOrzhov Basilica
p951
aVOrzhov Guildgate
p952
aVOrcish Cannonade
p953
aVOrdruun Veteran
p954
aVOrzhov Charm
p955
aVOrzhov Guildgate
p956
aVOrzhov Keyrune
p957
aVOrcish Bloodpainter
p958
aVOrcish Artillery
p959
aVOrcish Oriflamme
p960
aVOrcish Cannoneers
p961
aVOrcish Healer
p962
aVOrcish Librarian
p963
aVOrcish Lumberjack
p964
aVOrcish Conscripts
p965
aVOrcish Farmer
p966
aVOrcish Squatters
p967
aVOrder of the Sacred Torch
p968
aVOrder of the White Shield
p969
aVOrgan Grinder
p970
aVOracle of Mul Daya
p971
aVOran-Rief Recluse
p972
aVOran-Rief Survivalist
p973
aVOran-Rief, the Vastwood
p974
aVOrder of the Sacred Torch
p975
aVOrcish Artillery
p976
aVOrcish Oriflamme
p977
aVOrnithopter
p978
aVOrnithopter
p979
aVOrcish Artillery
p980
aVOrcish Oriflamme
p981
aVOreskos Swiftclaw
p982
aVOrnithopter
p983
aVOrder of Whiteclay
p984
aVOracle of Nectars
p985
aVOriss, Samite Guardian
p986
aVOrder // Chaos (Chaos)
p987
aVOrim's Thunder
p988
aVOrder // Chaos (Order)
p989
aVOrder of Yawgmoth
p990
aVOrcish Mechanics
p991
aVOrder of Leitbur
p992
aVOrder of the Ebon Hand
p993
aVOrdeal of Erebos
p994
aVOrdeal of Heliod
p995
aVOrdeal of Nylea
p996
aVOrdeal of Purphoros
p997
aVOrdeal of Thassa
p998
aVOrcish Settlers
p999
aVOrcish Cannonade
p1000
aVOracle's Attendants
p1001
aVOrcish Spy
p1002
aVOrcish Artillery
p1003
aVOraxid
p1004
aVOracle's Attendants
p1005
aVOrim's Touch
p1006
aVOrdered Migration
p1007
aVOreskos Swiftclaw
p1008
aVOrcish Captain
p1009
aVOrcish Conscripts
p1010
aVOrcish Farmer
p1011
aVOrcish Oriflamme
p1012
aVOrcish Squatters
p1013
aVOrgg
p1014
aVOrder of the White Shield
p1015
aVOrcish Artillery
p1016
aVOrder of the Sacred Torch
p1017
aVOrnithopter
p1018
aVOran-Rief Recluse
p1019
aVOracle
p1020
aVOrcish Squatters Avatar
p1021
aVOrim
p1022
aVOrchard Spirit
p1023
aVOrcish Artillery
p1024
aVOrcish Oriflamme
p1025
aVOrcish Mechanics
p1026
aVOrzhov Cluestone
p1027
aVOrzhov Guildgate
p1028
aVOrnithopter
p1029
aVOrcish Mine
p1030
aVOrgg
p1031
aVOrcish Librarian
p1032
aVOrcish Lumberjack
p1033
aVOrdeal of Purphoros
p1034
aVOrim's Chant
p1035
asS'toughs'
p1036
(lp1037
V3
p1038
aS'N/A'
p1039
aV6
p1040
ag1039
aV2
p1041
ag1039
ag1040
ag1039
ag1040
ag1041
ag1039
aV8
p1042
ag1039
ag1040
aV1+*
p1043
ag1039
ag1039
ag1038
ag1039
ag1041
aV1
p1044
ag1039
aV4
p1045
ag1041
ag1039
ag1041
ag1039
ag1039
ag1038
ag1045
ag1039
ag1044
ag1041
ag1044
ag1044
ag1044
ag1044
ag1044
ag1041
ag1041
ag1041
ag1044
ag1044
ag1044
ag1044
ag1040
ag1039
ag1039
ag1039
ag1039
ag1044
ag1039
ag1039
ag1038
ag1044
ag1041
ag1041
ag1044
ag1038
ag1041
ag1041
ag1044
aV5
p1046
ag1044
ag1039
ag1039
ag1041
ag1041
ag1044
ag1039
ag1038
ag1046
ag1038
ag1039
ag1039
ag1039
ag1045
ag1044
ag1044
ag1041
ag1038
ag1044
ag1039
ag1038
ag1039
ag1039
ag1038
ag1039
ag1039
ag1039
ag1039
ag1038
ag1039
ag1039
ag1039
ag1038
ag1040
ag1039
ag1044
ag1044
ag1044
ag1041
ag1044
ag1044
ag1044
ag1044
ag1044
ag1044
ag1038
ag1045
ag1044
ag1039
ag1041
ag1044
ag1039
ag1039
ag1039
ag1038
ag1039
ag1038
ag1039
ag1038
ag1041
ag1041
ag1039
ag1039
ag1039
ag1044
ag1044
ag1041
ag1044
ag1039
ag1039
ag1039
ag1039
ag1039
ag1044
ag1039
ag1046
ag1044
ag1038
ag1045
ag1041
ag1039
ag1039
ag1041
ag1038
ag1041
ag1044
ag1039
ag1044
ag1041
ag1038
aV7
p1047
ag1044
ag1039
ag1038
ag1039
ag1039
ag1039
ag1046
ag1040
ag1039
ag1038
ag1039
ag1039
ag1039
ag1039
ag1040
ag1044
ag1044
ag1039
ag1039
asS'artists'
p1048
(lp1049
VRuth Thompson
p1050
aVCarl Critchlow
p1051
aVDaren Bader
p1052
aVJohn Avon
p1053
aVGreg Staples
p1054
aVGreg Hildebrandt
p1055
aVAnson Maddocks
p1056
aVDan Frazier
p1057
aVRebecca Guay
p1058
aVMark Zug
p1059
aVAmy Weber
p1060
aVAnson Maddocks
p1061
aVDan Frazier
p1062
aVDaren Bader
p1063
aVPete Venters
p1064
aVAmy Weber
p1065
aVFranz Vohwinkel
p1066
aVGreg Staples
p1067
aVRaymond Swanland
p1068
aVMathias Kollros
p1069
aVClint Cearley
p1070
aVFranz Vohwinkel
p1071
aVDan Frazier
p1072
aVKaja Foglio
p1073
aVDonato Giancola
p1074
aVJeff Miracola
p1075
aVDana Knutson
p1076
aVDon Hazeltine
p1077
aVSteve Prescott
p1078
aVJesper Myrfors
p1079
aVDan Frazier
p1080
aVMelissa Benson
p1081
aVDouglas Shuler
p1082
aVBryon Wackwitz
p1083
aVMark Tedin
p1084
aVPete Venters
p1085
aVSusan Van Camp
p1086
aVDaniel Gelon
p1087
aVDan Frazier
p1088
aVMelissa Benson
p1089
aVQuinton Hoover
p1090
aVRandy Asplund-Faith
p1091
aVBryon Wackwitz
p1092
aVRon Spencer
p1093
aVChristopher Rush
p1094
aVDaniel Gelon
p1095
aVCarl Critchlow
p1096
aVGreg & Tim Hildebrandt
p1097
aVGreg & Tim Hildebrandt
p1098
aVChristopher Moeller
p1099
aVAnson Maddocks
p1100
aVDan Frazier
p1101
aVAmy Weber
p1102
aVJesper Myrfors
p1103
aVDan Frazier
p1104
aVMark Tedin
p1105
aVDouglas Shuler
p1106
aVDan Frazier
p1107
aVDan Frazier
p1108
aVRichard Kane Ferguson
p1109
aVQuinton Hoover
p1110
aVRuth Thompson
p1111
aVRuth Thompson
p1112
aVAdam Rex
p1113
aVTim Hildebrandt
p1114
aVJohn Avon
p1115
aVZoltan Boros & Gabor Szikszai
p1116
aVGreg Staples
p1117
aVHeather Hudson
p1118
aVMartina Pilcerova
p1119
aVCarl Critchlow
p1120
aVDany Orizio
p1121
aVJeff Miracola
p1122
aVDana Knutson
p1123
aVJim Nelson
p1124
aVJim Nelson
p1125
aVDan Scott
p1126
aVGreg Hildebrandt
p1127
aVJoel Thomas
p1128
aVrk post
p1129
aVDan Scott
p1130
aVrk post
p1131
aVAlex Horley-Orlandelli
p1132
aVCarl Critchlow
p1133
aVHeather Hudson
p1134
aVDany Orizio
p1135
aVStephen Tappin
p1136
aVMagali Villeneuve
p1137
aVJohn Avon
p1138
aVJohn Avon
p1139
aVPete Venters
p1140
aVGreg Staples
p1141
aVZoltan Boros
p1142
aVJohn Avon
p1143
aVDaniel Ljunggren
p1144
aVAlan Pollack
p1145
aVAnson Maddocks
p1146
aVDan Frazier
p1147
aVDan Frazier
p1148
aVQuinton Hoover
p1149
aVPhil Foglio
p1150
aVDan Frazier
p1151
aVDouglas Shuler
p1152
aVDan Frazier
p1153
aVRichard Kane Ferguson
p1154
aVRuth Thompson
p1155
aVRuth Thompson
p1156
aVAdam Rex
p1157
aVVance Kovacs
p1158
aVLars Grant-West
p1159
aVKev Walker
p1160
aVMike Bierek
p1161
aVRuth Thompson
p1162
aVDan Frazier
p1163
aVDan Frazier
p1164
aVAmy Weber
p1165
aVDana Knutson
p1166
aVDan Frazier
p1167
aVBen Thompson
p1168
aVJames Ryman
p1169
aVFranz Vohwinkel
p1170
aVSteven Belledin
p1171
aVBrandon Kitkouski
p1172
aVMichael Komarck
p1173
aVTim Hildebrandt
p1174
aVCarl Critchlow
p1175
aVTim Hildebrandt
p1176
aVChippy
p1177
aVPete Venters
p1178
aVRandy Asplund
p1179
aVRon Spencer
p1180
aVTyler Jacobson
p1181
aVLucas Graciano
p1182
aVDavid Palumbo
p1183
aVMaciej Kuciara
p1184
aVHoward Lyon
p1185
aVPete Venters
p1186
aVPete Venters
p1187
aVDany Orizio
p1188
aVGreg Staples
p1189
aVDan Frazier
p1190
aVDave Dorman
p1191
aVOrizio Daniele
p1192
aVRoger Raupp
p1193
aVHeather Hudson
p1194
aVJames Ryman
p1195
aVCharles Gillespie
p1196
aVDouglas Shuler
p1197
aVDan Frazier
p1198
aVDan Frazier
p1199
aVRichard Kane Ferguson
p1200
aVDaniel Gelon
p1201
aVRuth Thompson
p1202
aVDan Frazier
p1203
aVRuth Thompson
p1204
aVAmy Weber
p1205
aVLars Grant-West
p1206
aVDan Frazier
p1207
aVUDON
p1208
aVRebecca Guay
p1209
aVHoward Lyon
p1210
aVAnson Maddocks
p1211
aVDan Frazier
p1212
aVPete Venters
p1213
aVRaoul Vitale
p1214
aVJohn Avon
p1215
aVFranz Vohwinkel
p1216
aVKaja Foglio
p1217
aVDaniel Gelon
p1218
aVPhil Foglio
p1219
aVSteve Prescott
p1220
aVMaciej Kuciara
p1221
aVKev Walker
p1222
asS'powers'
p1223
(lp1224
g1038
ag1039
ag1041
ag1039
ag1040
ag1039
ag1045
ag1039
ag1045
ag1041
ag1039
ag1040
ag1039
ag1040
aV1+*
p1225
ag1039
ag1039
ag1038
ag1039
ag1041
ag1044
ag1039
ag1046
ag1041
ag1039
ag1041
ag1039
ag1039
ag1044
ag1045
ag1039
ag1041
ag1041
ag1041
ag1044
ag1044
ag1044
ag1044
ag1041
ag1041
ag1041
ag1041
ag1041
ag1041
ag1041
ag1040
ag1039
ag1039
ag1039
ag1039
ag1044
ag1039
ag1039
ag1044
ag1044
ag1041
ag1041
ag1044
ag1041
ag1041
ag1041
ag1041
ag1044
ag1044
ag1039
ag1039
ag1041
ag1041
aV0
p1226
ag1039
ag1045
ag1044
ag1044
ag1039
ag1039
ag1039
ag1038
ag1041
ag1044
ag1044
ag1038
ag1038
ag1039
ag1045
ag1039
ag1039
ag1038
ag1039
ag1039
ag1039
ag1039
ag1046
ag1039
ag1039
ag1039
aV*
p1227
ag1045
ag1039
ag1044
ag1044
ag1044
ag1041
ag1041
ag1044
ag1044
ag1044
ag1044
ag1038
ag1044
ag1041
ag1044
ag1039
ag1041
ag1044
ag1039
ag1039
ag1039
ag1044
ag1039
ag1227
ag1039
ag1038
ag1041
ag1041
ag1039
ag1039
ag1039
ag1044
ag1044
ag1041
ag1044
ag1039
ag1039
ag1039
ag1039
ag1039
ag1044
ag1039
ag1044
ag1044
ag1044
ag1041
ag1041
ag1039
ag1039
ag1041
ag1041
ag1041
ag1044
ag1039
ag1044
ag1041
ag1038
ag1047
ag1041
ag1039
ag1041
ag1039
ag1039
ag1039
ag1044
ag1046
ag1039
ag1041
ag1039
ag1039
ag1039
ag1039
ag1040
ag1044
ag1044
ag1039
ag1039
asS'types'
p1228
(lp1229
VCreature - Human Knight
p1230
aVInstant
p1231
aVLegendary Creature - Dragon
p1232
aVLand
p1233
aVCreature - Human Wizard
p1234
aVArtifact
p1235
aVCreature - Orc Warrior
p1236
aVEnchantment
p1237
aVCreature - Treefolk Shaman
p1238
aVCreature - Kithkin Knight
p1239
aVArtifact Creature - Thopter
p1240
aVCreature - Orc Warrior
p1241
aVEnchantment
p1242
aVLegendary Creature - Dragon
p1243
aVCreature - Orc
p1244
aVArtifact Creature - Thopter
p1245
aVArtifact
p1246
aVCreature - Minotaur Shaman
p1247
aVEnchantment - Aura
p1248
aVCreature - Cat Monk
p1249
aVCreature - Archon
p1250
aVArtifact Creature - Thopter
p1251
aVCreature - Human Wizard
p1252
aVLegendary Creature - Human Cleric
p1253
aVEnchantment
p1254
aVCreature - Orc Warrior
p1255
aVArtifact Creature - Thopter
p1256
aVInstant
p1257
aVCreature - Orc
p1258
aVCreature - Orc Warrior
p1259
aVEnchantment
p1260
aVCreature - Cleric Knight
p1261
aVCreature - Orc
p1262
aVCreature - Human Cleric Knight
p1263
aVCreature - Orc Warrior
p1264
aVCreature - Orc Rogue
p1265
aVCreature - Orc Rogue
p1266
aVCreature - Orc Rogue
p1267
aVCreature - Orc
p1268
aVCreature - Orc
p1269
aVCreature - Orc
p1270
aVCreature - Human Cleric Knight
p1271
aVCreature - Human Cleric Knight
p1272
aVCreature - Cleric Knight
p1273
aVCreature - Cleric Knight
p1274
aVCreature - Orgg
p1275
aVInstant
p1276
aVInstant
p1277
aVInstant
p1278
aVInstant
p1279
aVCreature - Orc Warrior
p1280
aVEnchantment
p1281
aVArtifact Creature - Thopter
p1282
aVCreature - Orc Warrior
p1283
aVCreature - Orc Warrior
p1284
aVCreature - Orc Warrior
p1285
aVCreature - Orc
p1286
aVCreature - Orc
p1287
aVCreature - Orc
p1288
aVCreature - Orc
p1289
aVCreature - Orc
p1290
aVCreature - Human Knight
p1291
aVCreature - Human Knight
p1292
aVCreature - Human Cleric
p1293
aVArtifact
p1294
aVLand
p1295
aVCreature - Human Assassin
p1296
aVCreature - Human Wizard
p1297
aVCreature - Human Cleric
p1298
aVLand
p1299
aVCreature - Human Monk
p1300
aVCreature - Human Soldier
p1301
aVCreature - Orc Warrior
p1302
aVArtifact Creature - Thopter
p1303
aVPlane - Kamigawa
p1304
aVPlane - Ravnica
p1305
aVCreature - Spirit
p1306
aVCreature - Snake Warrior
p1307
aVCreature - Snake Shaman
p1308
aVCreature - Snake Shaman
p1309
aVLegendary Creature- Snake Shaman
p1310
aVCreature - Spirit
p1311
aVArtifact
p1312
aVCreature - Human Monk
p1313
aVArtifact
p1314
aVArtifact
p1315
aVCreature - Minotaur Soldier
p1316
aVSorcery
p1317
aVLand
p1318
aVLand - Gate
p1319
aVInstant
p1320
aVCreature - Minotaur Soldier
p1321
aVInstant
p1322
aVLand - Gate
p1323
aVArtifact
p1324
aVCreature - Orc Shaman
p1325
aVCreature - Orc Warrior
p1326
aVEnchantment
p1327
aVCreature - Orc Warrior
p1328
aVCreature - Orc Cleric
p1329
aVCreature - Orc
p1330
aVCreature - Orc
p1331
aVCreature - Orc
p1332
aVCreature - Orc
p1333
aVCreature - Orc
p1334
aVCreature - Human Knight
p1335
aVCreature - Human Knight
p1336
aVCreature - Zombie
p1337
aVCreature - Elf Shaman
p1338
aVCreature - Spider
p1339
aVCreature - Human Warrior Ally
p1340
aVLand
p1341
aVCreature - Human Knight
p1342
aVCreature - Orc Warrior
p1343
aVEnchantment
p1344
aVArtifact Creature - Thopter
p1345
aVArtifact Creature - Thopter
p1346
aVCreature - Orc Warrior
p1347
aVEnchantment
p1348
aVCreature - Cat Warrior
p1349
aVArtifact Creature - Thopter
p1350
aVCreature - Kithkin Cleric
p1351
aVCreature - Elf Cleric
p1352
aVLegendary Creature - Human Cleric
p1353
aVInstant
p1354
aVInstant
p1355
aVInstant
p1356
aVCreature - Zombie Knight
p1357
aVCreature - Orc
p1358
aVCreature - Human Cleric Knight
p1359
aVCreature - Cleric Knight
p1360
aVEnchantment - Aura
p1361
aVEnchantment - Aura
p1362
aVEnchantment - Aura
p1363
aVEnchantment - Aura
p1364
aVEnchantment - Aura
p1365
aVCreature - Orc
p1366
aVInstant
p1367
aVCreature - Human Soldier
p1368
aVCreature - Orc Rogue
p1369
aVCreature - Orc Warrior
p1370
aVCreature - Crab Beast
p1371
aVCreature - Human Soldier
p1372
aVInstant
p1373
aVSorcery
p1374
aVCreature - Cat Warrior
p1375
aVCreature - Orc Warrior
p1376
aVCreature - Orc
p1377
aVCreature - Orc
p1378
aVEnchantment
p1379
aVCreature - Orc
p1380
aVCreature - Orgg
p1381
aVCreature - Human Knight
p1382
aVCreature - Orc Warrior
p1383
aVCreature - Human Knight
p1384
aVArtifact Creature - Thopter
p1385
aVCreature - Spider
p1386
aVVanguard
p1387
aVVanguard
p1388
aVVanguard
p1389
aVCreature - Spirit
p1390
aVCreature - Orc Warrior
p1391
aVEnchantment
p1392
aVCreature - Orc
p1393
aVArtifact
p1394
aVLand - Gate
p1395
aVArtifact Creature - Thopter
p1396
aVEnchantment - Aura
p1397
aVCreature - Orgg
p1398
aVCreature - Orc
p1399
aVCreature - Orc
p1400
aVEnchantment - Aura
p1401
aVInstant
p1402
asS'numbers'
p1403
(lp1404
V55
p1405
aV24
p1406
aV216
p1407
aV283
p1408
aV217
p1409
aV255
p1410
aV189
p1411
aV190
p1412
aV131
p1413
aV19
p1414
aV33
p1415
aV285
p1416
aV286
p1417
aV161
p1418
aV26
p1419
aV69
p1420
aV189
p1421
aV103
p1422
aV47
p1423
aV22
p1424
aV23
p1425
aV216
p1426
aV188
p1427
aV189
p1428
aV190
p1429
aV220
p1430
aV336
p1431
aV33
p1432
aV179
p1433
aV53
p1434
aV34
p1435
aV16
p1436
aV57
p1437
aV70
p1438
aV156
p1439
aV157
p1440
aV158
p1441
aV159
p1442
aV160
p1443
aV161
p1444
aV162
p1445
aV163
p1446
aV164
p1447
aV165
p1448
aV166
p1449
aV167
p1450
aV15
p1451
aV132
p1452
aV132
p1453
aV131
p1454
aV204
p1455
aV205
p1456
aV206
p1457
aV137
p1458
aV138
p1459
aV139
p1460
aV140
p1461
aV141
p1462
aV142
p1463
aV143
p1464
aV144
p1465
aV25
p1466
aV26
p1467
aV124
p1468
aV155
p1469
aV161
p1470
aV54
p1471
aV147
p1472
aV13
p1473
aV162
p1474
aV261
p1475
aV30
p1476
aV206
p1477
aV305
p1478
aV25
p1479
aV26
p1480
aV231
p1481
aV235
p1482
aV234
p1483
aV236
p1484
aV233
p1485
aV182
p1486
aV266
p1487
aV232
p1488
aV157
p1489
aV156
p1490
aV137
p1491
aV52
p1492
aV311
p1493
aV312
p1494
aV172
p1495
aV184
p1496
aV185
p1497
aV244
p1498
aV233
p1499
aV94
p1500
aV191
p1501
aV192
p1502
aV168
p1503
aV169
p1504
aV170
p1505
aV171
p1506
aV326
p1507
aV327
p1508
aV328
p1509
aV329
p1510
aV330
p1511
aV75
p1512
aV172
p1513
aV173
p1514
aV174
p1515
aV221
p1516
aV32
p1517
aV196
p1518
aV197
p1519
aV303
p1520
aV224
p1521
aV205
p1522
aV206
p1523
aV22
p1524
aV223
p1525
aV16
p1526
aV233
p1527
aV28
p1528
aV104
p1529
ag1046
aV104
p1530
aV144
p1531
aV106
p1532
aV22
p1533
aV78
p1534
aV99
p1535
aV25
p1536
aV170
p1537
aV131
p1538
aV58
p1539
aV93
p1540
aV148
p1541
aV32
p1542
aV208
p1543
aV207
p1544
aV35
p1545
aV16
p1546
aV23
p1547
aV258
p1548
aV20
p1549
aV148
p1550
aV149
p1551
aV150
p1552
aV151
p1553
aV152
p1554
aV153
p1555
aV188
p1556
aV351
p1557
aV352
p1558
aV353
p1559
aV54
p1560
aV70
p1561
aV84
p1562
aV72
p1563
aV198
p1564
aV217
p1565
aV218
p1566
aV129
p1567
aV142
p1568
aV153
p1569
aV211
p1570
aV61
p1571
aV67
p1572
aV66
p1573
aV44
p1574
aV23
p1575
aV11
p1576
as.