(dp0
S'rares'
p1
(lp2
VRare
p3
asS'editns'
p4
(lp5
VBetrayers of Kamigawa
p6
asS'ids'
p7
(lp8
V74027
p9
asS'texts'
p10
(lp11
VFlying<br>Whenever you cast a Spirit or Arcane spell, put a 3/3 white Spirit creature token with flying onto the battlefield.
p12
asS'costs'
p13
(lp14
V{6}{W}
p15
asS'names'
p16
(lp17
VOyobi, Who Split the Heavens
p18
asS'toughs'
p19
(lp20
V6
p21
asS'artists'
p22
(lp23
VChristopher Moeller
p24
asS'powers'
p25
(lp26
V3
p27
asS'types'
p28
(lp29
VLegendary Creature - Spirit
p30
asS'numbers'
p31
(lp32
V18
p33
as.