(dp0
S'rares'
p1
(lp2
VCommon
p3
aVUncommon
p4
aVRare
p5
aVUncommon
p6
aVCommon
p7
aVUncommon
p8
aVCommon
p9
aVRare
p10
aVUncommon
p11
aVUncommon
p12
aVCommon
p13
aVUncommon
p14
aVUncommon
p15
aVCommon
p16
aVRare
p17
aVRare
p18
aVCommon
p19
aVCommon
p20
aVRare
p21
aVRare
p22
aVCommon
p23
aVCommon
p24
aVCommon
p25
aVCommon
p26
aVCommon
p27
aVMythic Rare
p28
aVUncommon
p29
aVCommon
p30
aVUncommon
p31
aVUncommon
p32
aVRare
p33
aVUncommon
p34
aVUncommon
p35
aVRare
p36
aVUncommon
p37
aVCommon
p38
aVUncommon
p39
aVCommon
p40
aVUncommon
p41
aVUncommon
p42
aVCommon
p43
aVRare
p44
aVCommon
p45
aVRare
p46
aVUncommon
p47
aVCommon
p48
aVRare
p49
aVRare
p50
aVRare
p51
aVRare
p52
aVUncommon
p53
aVCommon
p54
aVCommon
p55
aVUncommon
p56
aVUncommon
p57
aVCommon
p58
aVCommon
p59
aVUncommon
p60
aVRare
p61
aVUncommon
p62
aVUncommon
p63
aVRare
p64
aVUncommon
p65
aVUncommon
p66
aVUncommon
p67
aVCommon
p68
aVCommon
p69
aVRare
p70
aVRare
p71
aVRare
p72
aVUncommon
p73
aVRare
p74
aVUncommon
p75
aVUncommon
p76
aVUncommon
p77
aVCommon
p78
aVUncommon
p79
aVUncommon
p80
aVUncommon
p81
aVUncommon
p82
aVRare
p83
aVUncommon
p84
aVUncommon
p85
aVUncommon
p86
aVRare
p87
aVUncommon
p88
aVCommon
p89
aVUncommon
p90
aVUncommon
p91
aVUncommon
p92
aVCommon
p93
aVUncommon
p94
aVRare
p95
aVUncommon
p96
aVUncommon
p97
aVRare
p98
aVRare
p99
aVCommon
p100
aVCommon
p101
aVUncommon
p102
aVCommon
p103
aVUncommon
p104
aVRare
p105
aVUncommon
p106
aVCommon
p107
aVUncommon
p108
aVCommon
p109
aVRare
p110
aVUncommon
p111
aVRare
p112
aVCommon
p113
aVRare
p114
aVRare
p115
aVMythic Rare
p116
aVRare
p117
aVRare
p118
aVUncommon
p119
aVRare
p120
aVUncommon
p121
aVRare
p122
aVCommon
p123
aVRare
p124
aVRare
p125
aVRare
p126
aVRare
p127
aVCommon
p128
aVUncommon
p129
aVCommon
p130
aVRare
p131
aVCommon
p132
aVUncommon
p133
aVCommon
p134
aVUncommon
p135
aVCommon
p136
aVUncommon
p137
aVUncommon
p138
aVCommon
p139
aVMythic Rare
p140
aVRare
p141
aVRare
p142
aVUncommon
p143
aVUncommon
p144
aVRare
p145
aVUncommon
p146
aVCommon
p147
aVRare
p148
aVCommon
p149
aVCommon
p150
aVCommon
p151
aVRare
p152
aVRare
p153
aVRare
p154
aVCommon
p155
aVUncommon
p156
aVMythic Rare
p157
aVCommon
p158
aVCommon
p159
aVRare
p160
aVUncommon
p161
aVCommon
p162
aVUncommon
p163
aVCommon
p164
aVUncommon
p165
aVRare
p166
aVRare
p167
aVRare
p168
aVUncommon
p169
aVSpecial
p170
aVUncommon
p171
aVUncommon
p172
aVCommon
p173
aVRare
p174
aVCommon
p175
aVCommon
p176
aVCommon
p177
aVCommon
p178
aVCommon
p179
aVRare
p180
aVRare
p181
aVCommon
p182
aVRare
p183
aVRare
p184
asS'editns'
p185
(lp186
VMagic 2012
p187
aVMagic 2012
p188
aVMagic 2012
p189
aVLimited Edition Beta
p190
aVLimited Edition Beta
p191
aVLimited Edition Beta
p192
aVBattle Royale Box Set
p193
aVMagic 2013
p194
aVMagic 2013
p195
aVFourth Edition
p196
aVFourth Edition
p197
aVFourth Edition
p198
aVPlanar Chaos
p199
aVAntiquities
p200
aVAlliances
p201
aVAlliances
p202
aVAlliances
p203
aVAlliances
p204
aVAlliances
p205
aVAlliances
p206
aVAlliances
p207
aVAlliances
p208
aVAlliances
p209
aVAlliances
p210
aVBorn of the Gods
p211
aVBorn of the Gods
p212
aVBorn of the Gods
p213
aVBorn of the Gods
p214
aVMagic 2010
p215
aVMagic 2014 Core Set
p216
aVTempest
p217
aVTempest
p218
aVTempest
p219
aVTenth Edition
p220
aVTenth Edition
p221
aVTenth Edition
p222
aVTenth Edition
p223
aVVintage Masters
p224
aVVintage Masters
p225
aVModern Masters
p226
aVMirrodin Besieged
p227
aVMirrodin Besieged
p228
aVMirrodin Besieged
p229
aVMirrodin Besieged
p230
aVMirrodin Besieged
p231
aVMirrodin Besieged
p232
aVMirrodin Besieged
p233
aVMirrodin Besieged
p234
aVMirrodin Besieged
p235
aVApocalypse
p236
aVApocalypse
p237
aVApocalypse
p238
aVRevised Edition
p239
aVRevised Edition
p240
aVRevised Edition
p241
aVMasters Edition II
p242
aVMasters Edition II
p243
aVMasters Edition II
p244
aVMasters Edition II
p245
aVNinth Edition
p246
aVNinth Edition
p247
aVNinth Edition
p248
aVNinth Edition
p249
aVEventide
p250
aVDuel Decks: Sorin vs. Tibalt
p251
aVBetrayers of Kamigawa
p252
aVUrza's Destiny
p253
aVUrza's Destiny
p254
aVRavnica: City of Guilds
p255
aVCommander 2013 Edition
p256
aVCommander 2013 Edition
p257
aVCommander 2013 Edition
p258
aVCommander 2013 Edition
p259
aVCommander 2013 Edition
p260
aVOdyssey
p261
aVOdyssey
p262
aVTime Spiral
p263
aVTime Spiral
p264
aVTime Spiral
p265
aVReturn to Ravnica
p266
aVColdsnap
p267
aVColdsnap
p268
aVColdsnap
p269
aVColdsnap
p270
aVColdsnap
p271
aVUnlimited Edition
p272
aVUnlimited Edition
p273
aVUnlimited Edition
p274
aVIce Age
p275
aVClassic Sixth Edition
p276
aVClassic Sixth Edition
p277
aVClassic Sixth Edition
p278
aVSeventh Edition
p279
aVSeventh Edition
p280
aVSeventh Edition
p281
aVMagic 2015 Core Set
p282
aVMagic 2015 Core Set
p283
aVUrza's Legacy
p284
aVUrza's Legacy
p285
aVUrza's Legacy
p286
aVUrza's Legacy
p287
aVUrza's Legacy
p288
aVUrza's Legacy
p289
aVRise of the Eldrazi
p290
aVJudgment
p291
aVJudgment
p292
aVJudgment
p293
aVJudgment
p294
aVJudgment
p295
aVJudgment
p296
aVNew Phyrexia
p297
aVNew Phyrexia
p298
aVNew Phyrexia
p299
aVNew Phyrexia
p300
aVNew Phyrexia
p301
aVNew Phyrexia
p302
aVNew Phyrexia
p303
aVStarter 1999
p304
aVFuture Sight
p305
aVPlanechase
p306
aVPlanechase
p307
aVLegions
p308
aVUrza's Saga
p309
aVUrza's Saga
p310
aVUrza's Saga
p311
aVUrza's Saga
p312
aVMasters Edition
p313
aVMasters Edition
p314
aVMasters Edition
p315
aVMasters Edition
p316
aVTheros
p317
aVTheros
p318
aVTheros
p319
aVTheros
p320
aVWeatherlight
p321
aVWeatherlight
p322
aVWeatherlight
p323
aVMagic: The Gathering\u2014Conspiracy
p324
aVEighth Edition
p325
aVEighth Edition
p326
aVEighth Edition
p327
aVEighth Edition
p328
aVEighth Edition
p329
aVNemesis
p330
aVNemesis
p331
aVInvasion
p332
aVInvasion
p333
aVInvasion
p334
aVInvasion
p335
aVInvasion
p336
aVInvasion
p337
aVInvasion
p338
aVInvasion
p339
aVJourney into Nyx
p340
aVJourney into Nyx
p341
aVJourney into Nyx
p342
aVJourney into Nyx
p343
aVJourney into Nyx
p344
aVFifth Edition
p345
aVFifth Edition
p346
aVFifth Edition
p347
aVDuel Decks: Jace vs. Vraska
p348
aVDuel Decks: Jace vs. Vraska
p349
aVMirage
p350
aVMirage
p351
aVMirage
p352
aVMirage
p353
aVVanguard
p354
aVLimited Edition Alpha
p355
aVLimited Edition Alpha
p356
aVLimited Edition Alpha
p357
aVVisions
p358
aVVisions
p359
aVMasters Edition IV
p360
aVMasters Edition IV
p361
aVDragon's Maze
p362
aVMagic 2011
p363
aVMagic 2011
p364
aVPortal
p365
aVPlaneshift
p366
aVPlaneshift
p367
aVPlaneshift
p368
asS'ids'
p369
(lp370
V220251
p371
aV220068
p372
aV220099
p373
aV410
p374
aV411
p375
aV412
p376
aV21164
p377
aV271386
p378
aV279990
p379
aV2171
p380
aV2172
p381
aV2173
p382
aV124472
p383
aV1042
p384
aV3051
p385
aV3052
p386
aV3086
p387
aV3087
p388
aV3113
p389
aV3227
p390
aV3085
p391
aV3088
p392
aV3054
p393
aV3053
p394
aV378476
p395
aV378524
p396
aV378505
p397
aV378506
p398
aV189892
p399
aV370650
p400
aV4621
p401
aV4623
p402
aV4622
p403
aV106427
p404
aV132064
p405
aV135189
p406
aV135281
p407
aV383044
p408
aV383045
p409
aV370383
p410
aV213797
p411
aV213724
p412
aV213743
p413
aV214060
p414
aV214038
p415
aV213804
p416
aV214048
p417
aV220589
p418
aV214074
p419
aV27663
p420
aV26699
p421
aV27660
p422
aV1212
p423
aV1211
p424
aV1213
p425
aV190426
p426
aV184708
p427
aV184563
p428
aV184564
p429
aV84393
p430
aV83200
p431
aV83201
p432
aV83203
p433
aV151113
p434
aV368546
p435
aV74496
p436
aV19113
p437
aV5559
p438
aV88969
p439
aV376444
p440
aV376445
p441
aV376446
p442
aV376447
p443
aV376448
p444
aV31792
p445
aV31814
p446
aV108822
p447
aV109758
p448
aV118868
p449
aV270374
p450
aV121121
p451
aV121127
p452
aV121142
p453
aV121146
p454
aV121160
p455
aV712
p456
aV713
p457
aV714
p458
aV2524
p459
aV15436
p460
aV16431
p461
aV14540
p462
aV15860
p463
aV12997
p464
aV25656
p465
aV383343
p466
aV383344
p467
aV12392
p468
aV12614
p469
aV12696
p470
aV12697
p471
aV12945
p472
aV12940
p473
aV198174
p474
aV34890
p475
aV34932
p476
aV34934
p477
aV34948
p478
aV35073
p479
aV37113
p480
aV214379
p481
aV214384
p482
aV214375
p483
aV214386
p484
aV218086
p485
aV218058
p486
aV218015
p487
aV21039
p488
aV126160
p489
aV205417
p490
aV205389
p491
aV40545
p492
aV10677
p493
aV5610
p494
aV8865
p495
aV5652
p496
aV159098
p497
aV159268
p498
aV159097
p499
aV159741
p500
aV373592
p501
aV373722
p502
aV373569
p503
aV373657
p504
aV4438
p505
aV4494
p506
aV4495
p507
aV382324
p508
aV45327
p509
aV45339
p510
aV45471
p511
aV45250
p512
aV45490
p513
aV22029
p514
aV22379
p515
aV23022
p516
aV23023
p517
aV23036
p518
aV23040
p519
aV23226
p520
aV23231
p521
aV26372
p522
aV22983
p523
aV380468
p524
aV380469
p525
aV380470
p526
aV380471
p527
aV380472
p528
aV3927
p529
aV3928
p530
aV3929
p531
aV380219
p532
aV380215
p533
aV3263
p534
aV3303
p535
aV3544
p536
aV3264
p537
aV182305
p538
aV115
p539
aV117
p540
aV116
p541
aV3599
p542
aV3600
p543
aV202458
p544
aV221553
p545
aV369054
p546
aV205017
p547
aV205034
p548
aV4272
p549
aV26280
p550
aV26281
p551
aV26477
p552
asS'texts'
p553
(lp554
VTrample<br>Whenever Primeval Titan enters the battlefield or attacks, you may search your library for up to two land cards, put them onto the battlefield tapped, then shuffle your library.
p555
aVPrimordial Hydra enters the battlefield with X +1/+1 counters on it.<br>At the beginning of your upkeep, double the number of +1/+1 counters on Primordial Hydra.<br>Primordial Hydra has trample as long as it has ten or more +1/+1 counters on it.
p556
aV{4}, {T}: You may put a creature card from your hand onto the battlefield.
p557
aVChoose one- Counter target blue spell; or destroy target blue permanent.
p558
aVEnchant creature<br>Enchanted creature has protection from red. This effect doesn't remove Red Ward.
p559
aVEnchant creature <i>(Target a creature as you cast this. This card enters the battlefield attached to that creature.)</i><br>{G}: Regenerate enchanted creature. <i>(The next time that creature would be destroyed this turn, it isn't. Instead tap it, remove all damage from it, and remove it from combat.)</i>
p560
aVSacrifice a creature: Phyrexian Ghoul gets +2/+2 until end of turn.
p561
aVExalted <i>(Whenever a creature you control attacks alone, that creature gets +1/+1 until end of turn.)</i>
p562
aV{1}, {T}, Discard a card: You gain 4 life.<br>{1}, {T}, Pay 1 life: Put a 0/1 white Goat creature token onto the battlefield.<br>{1}, {T}, Sacrifice a creature: Return target artifact card from your graveyard to your hand.<br>{1}, {T}, Sacrifice an artifact: Draw a card.
p563
aVPyrotechnics deals 4 damage divided as you choose among any number of target creatures and/or players.
p564
aV{T}: Target creature loses flying until end of turn.
p565
aV{B}{B}{B}, {T}: Target opponent reveals his or her hand and discards a creature card at random. Activate this ability only during your turn.
p566
aVWhen you cast Phantasmagorian, any player may discard three cards. If a player does, counter Phantasmagorian.<br>Discard three cards: Return Phantasmagorian from your graveyard to your hand.
p567
aVYou may choose not to untap Phyrexian Gremlins during your untap step.<br>{T}: Tap target artifact. It doesn't untap during its controller's untap step for as long as Phyrexian Gremlins remains tapped.
p568
aVWhen Phyrexian Devourer's power is 7 or greater, sacrifice it.<br>Exile the top card of your library: Put X +1/+1 counters on Phyrexian Devourer, where X is the exiled card's converted mana cost.
p569
aV{3}: If your library has ten or more cards in it, target opponent looks at the top ten cards of your library and separates them into two face-down piles. Exile one of those piles. Search the other pile for a card, put it into your hand, then shuffle the rest of that pile into your library.
p570
aV{B}: Phantasmal Fiend gets +1/-1 until end of turn.<br>{1}{U}: Switch Phantasmal Fiend's power and toughness until end of turn.
p571
aVEnchant creature<br>Enchanted creature gets +2/+1 as long as it's black. Otherwise, it gets -1/-2.
p572
aVFlying<br>At the beginning of your upkeep, put a +1/+1 counter on Phantasmal Sphere, then sacrifice Phantasmal Sphere unless you pay {1} for each +1/+1 counter on it.<br>When Phantasmal Sphere leaves the battlefield, put a blue Orb creature token with flying onto the battlefield under target opponent's control. That creature's power and toughness are each equal to the number of +1/+1 counters on Phantasmal Sphere.
p573
aVAs an additional cost to cast Surge of Strength, discard a red or green card.<br>Target creature gains trample and gets +X/+0 until end of turn, where X is that creature's converted mana cost.
p574
aVWhen Phyrexian War Beast leaves the battlefield, sacrifice a land and Phyrexian War Beast deals 1 damage to you.
p575
aVWhen Phyrexian War Beast leaves the battlefield, sacrifice a land and Phyrexian War Beast deals 1 damage to you.
p576
aVDestroy target artifact or land. It can't be regenerated.
p577
aVPut up to three target creature cards from your graveyard on top of your library.
p578
aVInspired- Whenever Pheres-Band Raiders becomes untapped, you may pay {2}{G}. If you do, put a 3/3 green Centaur enchantment creature token onto the battlefield.
p579
aVInspired- Whenever Pheres-Band Tromper becomes untapped, put a +1/+1 counter on it.
p580
aVDefender<br>As long as Pillar of War is enchanted, it can attack as though it didn't have defender.
p581
aVPinnacle of Rage deals 3 damage to each of two target creatures and/or players.
p582
aV{T}: Prodigal Pyromancer deals 1 damage to target creature or player.
p583
aVSliver creatures you control get +1/+1.
p584
aV{2}, {T}: Choose one- flying; first strike; shadow; or trample. Target creature with that ability loses it until end of turn and another target creature gains it until end of turn.
p585
aV{2}, {T}: You may tap or untap target creature.
p586
aVW
p587
aVWhen Phage the Untouchable enters the battlefield, if you didn't cast it from your hand, you lose the game.<br>Whenever Phage deals combat damage to a creature, destroy that creature. It can't be regenerated. <br>Whenever Phage deals combat damage to a player, that player loses the game.
p588
aVFlying, vigilance <i>(This creature can't be blocked except by creatures with flying or reach, and attacking doesn't cause this creature to tap.)</i>
p589
aVFlying<br>When Sage Owl enters the battlefield, look at the top four cards of your library, then put them back in any order.
p590
aVFlying<br>As Voice of All enters the battlefield, choose a color. <br>Voice of All has protection from the chosen color.
p591
aVWhenever Pianna, Nomad Captain attacks, attacking creatures get +1/+1 until end of turn.
p592
aVWhen Pillaging Horde enters the battlefield, sacrifice it unless you discard a card at random.
p593
aVDestroy target creature. Its controller loses life equal to its power plus its toughness.<br>Suspend 5\u2014{1}{B} <i>(Rather than cast this card from your hand, you may pay {1}{B} and exile it with five time counters on it. At the beginning of your upkeep, remove a time counter. When the last is removed, cast it without paying its mana cost.)</i>
p594
aVInfect <i>(This creature deals damage to creatures in the form of -1/-1 counters and to players in the form of poison counters.)</i>
p595
aVInfect <i>(This creature deals damage to creatures in the form of -1/-1 counters and to players in the form of poison counters.)</i><br>If damage would be dealt to Phyrexian Hydra, prevent that damage. Put a -1/-1 counter on Phyrexian Hydra for each 1 damage prevented this way.
p596
aVInfect <i>(This creature deals damage to creatures in the form of -1/-1 counters and to players in the form of poison counters.)</i><br>Phyrexian Juggernaut attacks each turn if able.
p597
aVWhen Phyrexian Rager enters the battlefield, you draw a card and you lose 1 life.
p598
aVDestroy all creatures, then put an X/X colorless Horror artifact creature token onto the battlefield, where X is the number of creatures destroyed this way.
p599
aVAs Phyrexian Revoker enters the battlefield, name a nonland card.<br>Activated abilities of sources with the chosen name can't be activated.
p600
aVInfect <i>(This creature deals damage to creatures in the form of -1/-1 counters and to players in the form of poison counters.)</i><br>At the beginning of your upkeep, you get a poison counter.
p601
aVWhen Pierce Strider enters the battlefield, target opponent loses 3 life.
p602
aVWhen Piston Sledge enters the battlefield, attach it to target creature you control.<br>Equipped creature gets +3/+1.<br>Equip\u2014Sacrifice an artifact.
p603
aVAt the beginning of your upkeep, you draw a card and you lose 1 life.
p604
aVWhen Phyrexian Gargantua enters the battlefield, you draw two cards and you lose 2 life.
p605
aVWhen Phyrexian Rager enters the battlefield, you draw a card and you lose 1 life.
p606
aVReturn target artifact card from your graveyard to your hand.
p607
aVEnchant creature<br>Enchanted creature has protection from red. This effect doesn't remove Red Ward.
p608
aVEnchant creature <i>(Target a creature as you cast this. This card enters the battlefield attached to that creature.)</i><br>{G}: Regenerate enchanted creature. <i>(The next time that creature would be destroyed this turn, it isn't. Instead tap it, remove all damage from it, and remove it from combat.)</i>
p609
aVWhen Phyrexian Devourer's power is 7 or greater, sacrifice it.<br>Exile the top card of your library: Put X +1/+1 counters on Phyrexian Devourer, where X is the exiled card's converted mana cost.
p610
aV{3}: If your library has ten or more cards in it, target opponent looks at the top ten cards of your library and separates them into two face-down piles. Exile one of those piles. Search the other pile for a card, put it into your hand, then shuffle the rest of that pile into your library.
p611
aVDestroy target artifact or land. It can't be regenerated.
p612
aVLook at the top three cards of target player's library, then put them back in any order. You may have that player shuffle his or her library.<br>Draw a card at the beginning of the next turn's upkeep.
p613
aVPut target creature on top of its owner's library.
p614
aVEnchant creature <i>(Target a creature as you cast this. This card enters the battlefield attached to that creature.)</i><br>{G}: Regenerate enchanted creature. <i>(The next time that creature would be destroyed this turn, it isn't. Instead tap it, remove all damage from it, and remove it from combat.)</i>
p615
aVUntap all creatures that attacked this turn. After this main phase, there is an additional combat phase followed by an additional main phase.
p616
aVTarget player shuffles his or her graveyard into his or her library.
p617
aVChroma- Reveal any number of cards in your hand. You gain 2 life for each green mana symbol in those cards' mana costs.
p618
aVCreature tokens you control get +1/+1.
p619
aVCounter target instant or sorcery spell. Search its controller's graveyard, hand, and library for all cards with the same name as that spell and exile them. Then that player shuffles his or her library.
p620
aV{B}: Regenerate Phyrexian Monitor.
p621
aVTrample<br>Whenever Phyrexian Negator is dealt damage, sacrifice that many permanents.
p622
aVWhen Netherborn Phalanx enters the battlefield, each opponent loses 1 life for each creature he or she controls.<br>Transmute {1}{B}{B} <i>({1}{B}{B}, Discard this card: Search your library for a card with the same converted mana cost as this card, reveal it, and put it into your hand. Then shuffle your library. Transmute only as a sorcery.)</i>
p623
aVTrample<br>Phantom Nantuko enters the battlefield with two +1/+1 counters on it.<br>If damage would be dealt to Phantom Nantuko, prevent that damage. Remove a +1/+1 counter from Phantom Nantuko.<br>{T}: Put a +1/+1 counter on Phantom Nantuko.
p624
aVDestroy target creature. Its controller loses life equal to its power plus its toughness.<br>Suspend 5\u2014{1}{B} <i>(Rather than cast this card from your hand, you may pay {1}{B} and exile it with five time counters on it. At the beginning of your upkeep, remove a time counter. When the last is removed, cast it without paying its mana cost.)</i>
p625
aVWhen Phyrexian Delver enters the battlefield, return target creature card from your graveyard to the battlefield. You lose life equal to that card's converted mana cost.
p626
aVWhen Phyrexian Gargantua enters the battlefield, you draw two cards and you lose 2 life.
p627
aV{1}{B}, Pay 2 life: Return target creature card from your graveyard to your hand.
p628
aVExile two cards from your graveyard: Sarcatog gets +1/+1 until end of turn.<br>Sacrifice an artifact: Sarcatog gets +1/+1 until end of turn.
p629
aVFlying<br>Your maximum hand size is reduced by four.
p630
aV{T}: Add {B} to your mana pool.<br>{2}{B}: Phyrexian Totem becomes a 5/5 black Horror artifact creature with trample until end of turn.<br>Whenever Phyrexian Totem is dealt damage, if it's a creature, sacrifice that many permanents.
p631
aVDestroy target creature. Its controller loses life equal to its power plus its toughness.<br>Suspend 5\u2014{1}{B} <i>(Rather than cast this card from your hand, you may pay {1}{B} and exile it with five time counters on it. At the beginning of your upkeep, remove a time counter. When the last is removed, cast it without paying its mana cost.)</i>
p632
aVPhantom Wurm enters the battlefield with four +1/+1 counters on it.<br>If damage would be dealt to Phantom Wurm, prevent that damage. Remove a +1/+1 counter from Phantom Wurm.
p633
aVShuffle all cards from your graveyard into your library. Target player puts that many cards from the top of his or her library into his or her graveyard.
p634
aVCumulative upkeep {B} <i>(At the beginning of your upkeep, put an age counter on this permanent, then sacrifice it unless you pay its upkeep cost for each age counter on it.)</i><br>At the beginning of your end step, draw a card for each age counter on Phyrexian Etchings.<br>When Phyrexian Etchings is put into a graveyard from the battlefield, you lose 2 life for each age counter on it.
p635
aVPhyrexian Ironfoot doesn't untap during your untap step.<br>{1}{snow}: Untap Phyrexian Ironfoot. <i>({snow} can be paid with one mana from a snow permanent.)</i>
p636
aVPhyrexian Snowcrusher attacks each turn if able.<br>{1}{snow}: Phyrexian Snowcrusher gets +1/+0 until end of turn. <i>({snow} can be paid with one mana from a snow permanent.)</i>
p637
aVFlying; fear <i>(This creature can't be blocked except by artifact creatures and/or black creatures.)</i><br>Cumulative upkeep {B} <i>(At the beginning of your upkeep, put an age counter on this permanent, then sacrifice it unless you pay its upkeep cost for each age counter on it.)</i>
p638
aVCumulative upkeep\u2014Sacrifice a creature. <i>(At the beginning of your upkeep, put an age counter on this permanent, then sacrifice it unless you pay its upkeep cost for each age counter on it.)</i>
p639
aVReturn target creature card from your graveyard to your hand.
p640
aVEnchant creature <i>(Target a creature as you cast this. This card enters the battlefield attached to that creature.)</i><br>{G}: Regenerate enchanted creature. <i>(The next time that creature would be destroyed this turn, it isn't. Instead tap it, remove all damage from it, and remove it from combat.)</i>
p641
aVReturn target card from your graveyard to your hand.
p642
aVFlying<br>{T}: Target creature you control with toughness 2 or less gets +1/+1 and gains flying until end of turn. When Phantasmal Mount leaves the battlefield this turn, sacrifice that creature. When the creature leaves the battlefield this turn, sacrifice Phantasmal Mount.
p643
aVMarble Diamond enters the battlefield tapped.<br>{T}: Add {W} to your mana pool.
p644
aVReturn target creature card from your graveyard to your hand.
p645
aVDiscard X cards, then return a card from your graveyard to your hand for each card discarded this way. Exile Recall.
p646
aVWhenever a black card is put into an opponent's graveyard from anywhere, you may draw a card.
p647
aVPut target card from your graveyard on top of your library.
p648
aVEnchant creature <i>(Target a creature as you cast this. This card enters the battlefield attached to that creature.)</i><br>{G}: Regenerate enchanted creature. <i>(The next time that creature would be destroyed this turn, it isn't. Instead tap it, remove all damage from it, and remove it from combat.)</i>
p649
aVUntil end of turn, each creature target player controls loses all abilities and becomes a blue Frog with base power and toughness 1/1.
p650
aVFirst strike <i>(This creature deals combat damage before creatures without first strike.)</i><br>Whenever Preeminent Captain attacks, you may put a Soldier creature card from your hand onto the battlefield tapped and attacking.
p651
aV{1}, Sacrifice a creature: Put a +1/+1 counter on Phyrexian Broodlings.
p652
aV{T}, Sacrifice Phyrexian Denouncer: Target creature gets -1/-1 until end of turn.
p653
aV{T}, Sacrifice Phyrexian Defiler: Target creature gets -3/-3 until end of turn.
p654
aVFlying<br><br>{T}, Sacrifice Phyrexian Debaser: Target creature gets -2/-2 until end of turn.
p655
aV{1}{B}, Pay 2 life: Return target creature card from your graveyard to your hand.
p656
aVSwampwalk <i>(This creature is unblockable as long as defending player controls a Swamp.)</i>
p657
aVDestroy target attacking or blocking creature with power 3 or less.
p658
aVPhantom Nomad enters the battlefield with two +1/+1 counters on it.<br>If damage would be dealt to Phantom Nomad, prevent that damage. Remove a +1/+1 counter from Phantom Nomad.
p659
aVFlying<br>Phantom Flock enters the battlefield with three +1/+1 counters on it.<br>If damage would be dealt to Phantom Flock, prevent that damage. Remove a +1/+1 counter from Phantom Flock.
p660
aVPhantom Tiger enters the battlefield with two +1/+1 counters on it.<br>If damage would be dealt to Phantom Tiger, prevent that damage. Remove a +1/+1 counter from Phantom Tiger.
p661
aVTrample<br>Phantom Nantuko enters the battlefield with two +1/+1 counters on it.<br>If damage would be dealt to Phantom Nantuko, prevent that damage. Remove a +1/+1 counter from Phantom Nantuko.<br>{T}: Put a +1/+1 counter on Phantom Nantuko.
p662
aVProtection from black<br>Phantom Centaur enters the battlefield with three +1/+1 counters on it.<br>If damage would be dealt to Phantom Centaur, prevent that damage. Remove a +1/+1 counter from Phantom Centaur.
p663
aVTrample<br>Phantom Nishoba enters the battlefield with seven +1/+1 counters on it.<br>Whenever Phantom Nishoba deals damage, you gain that much life.<br>If damage would be dealt to Phantom Nishoba, prevent that damage. Remove a +1/+1 counter from Phantom Nishoba.
p664
aVTrample<br>Whenever a source deals damage to Phyrexian Obliterator, that source's controller sacrifices that many permanents.
p665
aVInfect <i>(This creature deals damage to creatures in the form of -1/-1 counters and to players in the form of poison counters.)</i><br>At the beginning of your upkeep, put a 1/1 green Insect creature token with infect onto the battlefield for each poison counter your opponents have.
p666
aVYou don't lose the game for having 0 or less life.<br>As long as you have 0 or less life, all damage is dealt to you as though its source had infect. <i>(Damage is dealt to you in the form of poison counters.)</i>
p667
aV{T}: Add {1} to your mana pool.<br>{1}, {T}, Sacrifice an artifact: You gain 1 life.
p668
aV<i>({BP} can be paid with either {B} or 2 life.)</i><br>When Pith Driller enters the battlefield, put a -1/-1 counter on target creature.
p669
aV<i>({WP} can be paid with either {W} or 2 life.)</i><br>First strike
p670
aV<i>({BP} can be paid with either {B} or 2 life.)</i><br>Return target creature card with converted mana cost X from your graveyard to the battlefield. It gains haste. Exile it at the beginning of the next end step.
p671
aVSquall deals 2 damage to each creature with flying.
p672
aVEach Sliver card in each player's hand has slivercycling {3}.<br>Slivercycling {3} <i>({3}, Discard this card: Search your library for a Sliver card, reveal it, and put it into your hand. Then shuffle your library.)</i>
p673
aVAt the beginning of your upkeep, you draw a card and you lose 1 life.
p674
aVSacrifice a creature: Phyrexian Ghoul gets +2/+2 until end of turn.
p675
aV{7}{W}: You gain 5 life.
p676
aV{T}: Add {1} to your mana pool.<br>{T}, Sacrifice a creature: Add {B}{B} to your mana pool.
p677
aVAs Phyrexian Processor enters the battlefield, pay any amount of life.<br>{4}, {T}: Put an X/X black Minion creature token onto the battlefield, where X is the life paid as Phyrexian Processor entered the battlefield.
p678
ag587
ag587
aVWhen Phyrexian War Beast leaves the battlefield, sacrifice a land and Phyrexian War Beast deals 1 damage to you.
p679
aVFlying
p680
aV{G}: Phelddagrif gains trample until end of turn. Target opponent puts a 1/1 green Hippo creature token onto the battlefield.<br>{W}: Phelddagrif gains flying until end of turn. Target opponent gains 2 life.<br>{U}: Return Phelddagrif to its owner's hand. Target opponent may draw a card.
p681
aVEnchant creature<br>Enchanted creature gets +2/+1 as long as it's black. Otherwise, it gets -1/-2.
p682
aVTrample, protection from enchantments<br>{4}{R}{G}: Monstrosity 3. <i>(If this creature isn't monstrous, put three +1/+1 counters on it and it becomes monstrous.)</i><br>Whenever Polis Crusher deals combat damage to a player, if Polis Crusher is monstrous, destroy target enchantment that player controls.
p683
aV{X}{X}{G}: Monstrosity X. <i>(If this creature isn't monstrous, put X +1/+1 counters on it and it becomes monstrous.)</i><br>When Polukranos, World Eater becomes monstrous, it deals X damage divided as you choose among any number of target creatures your opponents control. Each of those creatures deals damage equal to its power to Polukranos.
p684
aVGain control of target creature until end of turn. Untap that creature. It gains haste until end of turn. Scry 1. <i>(Look at the top card of your library. You may put that card on the bottom of your library.)</i>
p685
aVFlying<br>Whenever you cast an instant or sorcery spell, scry 1. <i>(Look at the top card of your library. You may put that card on the bottom of your library.)</i>
p686
aV{T}: Exile the bottom card of target player's graveyard.<br>{1}, Sacrifice Phyrexian Furnace: Exile target card from a graveyard. Draw a card.
p687
aVPhantom Warrior is unblockable.
p688
aVEnchant creature<br>Enchanted creature has flying.<br>Sacrifice Phantom Wings: Return enchanted creature to its owner's hand.
p689
aVWhen Pitchburn Devils dies, it deals 3 damage to target creature or player.
p690
aVWhenever a creature you control deals combat damage to a player, that player discards a card.
p691
aVSacrifice Shock Troops: Shock Troops deals 2 damage to target creature or player.
p692
aVIf a source would deal damage to you, prevent 1 of that damage.
p693
aVWhen Rukh Egg dies, put a 4/4 red Bird creature token with flying onto the battlefield at the beginning of the next end step.
p694
aVWhenever a spell or ability an opponent controls causes a land to be put into your graveyard from the battlefield, return that card to the battlefield.
p695
aVFading 3 <i>(This creature enters the battlefield with three fade counters on it. At the beginning of your upkeep, remove a fade counter from it. If you can't, sacrifice it.)</i><br>Remove a fade counter from Phyrexian Prowler: Phyrexian Prowler gets +1/+1 until end of turn.
p696
aVWhen Phyrexian Driver enters the battlefield, other Mercenary creatures get +1/+1 until end of turn.
p697
aVWhen Phyrexian Delver enters the battlefield, return target creature card from your graveyard to the battlefield. You lose life equal to that card's converted mana cost.
p698
aVFlying<br>{B}: Phyrexian Battleflies gets +1/+0 until end of turn. Activate this ability no more than twice each turn.
p699
aVWhenever Phyrexian Reaper becomes blocked by a green creature, destroy that creature. It can't be regenerated.
p700
aVFlying<br><br>Whenever Phyrexian Slayer becomes blocked by a white creature, destroy that creature. It can't be regenerated.
p701
aVSacrifice a creature: Add one mana of any color to your mana pool.
p702
aV{T}, Pay 1 life: Add one mana of any color to your mana pool.
p703
aV{2}{U}{U}: Exchange control of Phyrexian Infiltrator and target creature. <i>(This effect lasts indefinitely.)</i>
p704
aVEnchant land<br>As Phantasmal Terrain enters the battlefield, choose a basic land type.<br>Enchanted land is the chosen type.
p705
aVDeathtouch <i>(Any amount of damage this deals to a creature is enough to destroy it.)</i>
p706
aVHeroic- Whenever you cast a spell that targets Pheres-Band Thunderhoof, put two +1/+1 counters on Pheres-Band Thunderhoof.
p707
aVVigilance, trample<br>Other Centaur creatures you control get +1/+1 and have vigilance and trample.
p708
aVEnchant creature<br>Enchanted creature gets -6/-0.
p709
aVStrive- Polymorphous Rush costs {1}{U} more to cast for each target beyond the first.<br>Choose a creature on the battlefield. Any number of target creatures you control each become a copy of that creature until end of turn.
p710
aV{1}{G}, {T}: Target creature gets -2/-0 until end of turn.
p711
aVAs Primal Clay enters the battlefield, it becomes your choice of a 3/3 artifact creature, a 2/2 artifact creature with flying, or a 1/6 Wall artifact creature with defender in addition to its other types.
p712
aV{T}: Prodigal Sorcerer deals 1 damage to target creature or player.
p713
aVWhen Phantasmal Bear becomes the target of a spell or ability, sacrifice it.
p714
aVFlying<br>When Phantasmal Dragon becomes the target of a spell or ability, sacrifice it.
p715
aVTrample<br>When Phyrexian Dreadnought enters the battlefield, sacrifice it unless you sacrifice any number of creatures with total power 12 or greater.
p716
aVAs an additional cost to cast Phyrexian Tribute, sacrifice two creatures.<br>Destroy target artifact.
p717
aVChoose a color. X target creatures gain protection from the chosen color until end of turn.
p718
ag587
aVPay 1 life: Until end of turn, whenever a creature deals combat damage to you, destroy that creature.<br>Pay 1 life: Until end of turn, whenever target creature you control deals combat damage to a creature, destroy the damaged creature.
p719
aVFlying
p720
aVPirate Ship can't attack unless defending player controls an Island.<br>{T}: Pirate Ship deals 1 damage to target creature or player.<br>When you control no Islands, sacrifice Pirate Ship.
p721
aV{T}: Prevent the next 1 damage that would be dealt to target creature or player this turn.
p722
aVPhyrexian Marauder enters the battlefield with X +1/+1 counters on it.<br>Phyrexian Marauder can't block.<br>Phyrexian Marauder can't attack unless you pay {1} for each +1/+1 counter on it.
p723
aVEach player skips his or her untap step.<br>At the beginning of each player's upkeep, that player simultaneously untaps each tapped artifact, creature, and land he or she controls and taps each untapped artifact, creature, and land he or she controls.
p724
aV{T}: Prodigal Sorcerer deals 1 damage to target creature or player.
p725
aVProwling Nightstalker can't be blocked except by black creatures.
p726
aVCounter target spell. At the beginning of your next precombat main phase, add X mana in any combination of colors to your mana pool, where X is that spell's converted mana cost.
p727
aVTrample<br>Whenever Primeval Titan enters the battlefield or attacks, you may search your library for up to two land cards, put them onto the battlefield tapped, then shuffle your library.
p728
aVAll creatures able to block Prized Unicorn do so.
p729
aVDestroy target land.
p730
aVWhen Phyrexian Bloodstock leaves the battlefield, destroy target white creature. It can't be regenerated.
p731
aVWhenever a player draws a card, that player loses 2 life unless he or she pays {2}.
p732
aVKicker\u2014Pay 3 life. <i>(You may pay 3 life in addition to any other costs as you cast this spell.)</i><br>If Phyrexian Scuta was kicked, it enters the battlefield with two +1/+1 counters on it.
p733
asS'costs'
p734
(lp735
V{1}{W}
p736
aV{7}
p737
aV{4}{W}
p738
aV{3}{U}
p739
aV{U}{U}
p740
aV{3}{U}
p741
aV{2}{B}
p742
aV{1}{B}{B}
p743
aV{5}
p744
aV{3}{U}
p745
aV{U}{U}
p746
aV{3}{U}
p747
aV{5}{B}{B}
p748
aV{2}{B}
p749
aV{6}
p750
aV{3}
p751
aV{3}{B}
p752
aV{2}{B}
p753
aV{1}{U}
p754
aV{1}{G}{W}{U}
p755
aV{3}{B}
p756
aV{2}{B}
p757
aV{3}
p758
aV{3}
p759
aV{4}{U}
p760
aV{4}{R}
p761
aV{3}{U}{B}
p762
aV{5}{G}
p763
aV{0}
p764
aV{2}{R}{R}
p765
aV{3}
p766
aV{2}
p767
aV{6}
p768
aV{3}{B}{B}{B}{B}
p769
aV{1}{U}{U}
p770
aV{2}{B}
p771
aV{3}
p772
aV{B}
p773
aV{5}{G}{G}
p774
aV{3}{B}{B}{B}{B}
p775
aV{1}{B}
p776
aV{1}{B}{B}
p777
aV{3}
p778
aV{3}{G}{G}
p779
aV{6}
p780
aV{2}{B}
p781
aV{4}{W}{W}
p782
aV{2}
p783
aV{2}{B}{B}
p784
aV{1}{B}{B}
p785
aV{4}{B}{B}
p786
aV{2}{B}
p787
aV{U}{U}
p788
aV{3}{U}
p789
aV{3}{U}
p790
aV{3}{B}
p791
aV{1}{U}
p792
aV{6}
p793
aV{3}
p794
aV{4}{B}{B}
p795
aV{1}{U}{U}
p796
aV{1}{B}{B}
p797
aV{6}
p798
aV{2}{G}{G}{G}
p799
aV{3}{W}
p800
aV{1}{U}
p801
aV{3}{B}
p802
aV{2}{B}
p803
aV{2}{G}{W}{W}
p804
aV{2}{G}
p805
aV{3}{B}{B}{B}{B}
p806
aV{3}{B}{B}
p807
aV{4}{B}{B}
p808
aV{B}
p809
aV{1}{W}{U}
p810
aV{1}{U}
p811
aV{3}
p812
aV{3}{B}{B}{B}{B}
p813
aV{4}{G}{G}
p814
aV{2}{B}{B}
p815
aV{B}{B}{B}
p816
aV{3}
p817
aV{6}
p818
aV{1}{B}{B}
p819
aV{3}
p820
aV{3}{U}
p821
aV{U}{U}
p822
aV{3}{U}
p823
aV{1}{U}
p824
aV{3}
p825
aV{U}{U}
p826
aV{1}{U}{U}
p827
aV{7}
p828
aV{1}{U}{U}
p829
aV{6}
p830
aV{3}{R}
p831
aV{3}{U}
p832
aV{1}{B}{B}
p833
aV{1}{B}
p834
aV{2}{B}{B}
p835
aV{3}{B}
p836
aV{B}
p837
aV{3}{B}{B}
p838
aV{5}{B}{B}{B}
p839
aV{1}{W}
p840
aV{3}{W}{W}
p841
aV{2}{G}
p842
aV{2}{G}
p843
aV{2}{G}{G}
p844
aV{5}{G}{W}
p845
aV{5}
p846
aV{6}
p847
aV{6}{U}
p848
aV{3}{UP}
p849
aV{B}{B}{B}{B}
p850
aV{4}{G}{G}
p851
aS'0'
p852
aV{1}{U}{U}
p853
aV{2}{G}{G}{G}
p854
aV{1}{B}{B}
p855
aV{2}{B}
p856
aV{3}{B}{B}{B}{B}
p857
ag852
aV{4}
p858
aV{7}
p859
aV{2}{B}
p860
aV{3}
p861
aV{3}{U}
p862
aV{1}{G}{W}{U}
p863
aV{2}{B}
p864
aV{1}{U}
p865
aV{2}{R}
p866
aV{W}{W}
p867
aV{B}{B}
p868
aV{1}
p869
aV{1}{U}{U}
p870
aV{1}{U}
p871
aV{1}{B}{G}
p872
aV{3}{B}{B}
p873
aV{1}{B}{B}
p874
aV{6}
p875
aV{1}{U}{U}
p876
aV{7}
p877
aV{3}{B}
p878
aV{2}{B}
p879
aV{3}{B}{B}
p880
aV{B}
p881
aV{4}{B}
p882
aV{3}{B}
p883
aV{3}
p884
aV{3}
p885
aV{2}{B}
p886
aV{U}{U}
p887
aV{2}{R}
p888
aV{2}{W}
p889
aV{1}{B}{G}
p890
aV{B}
p891
aV{4}{G}
p892
aV{3}{U}
p893
aV{U}{U}
p894
aV{3}{U}
p895
aV{2}{G}
p896
aV{U}
p897
aV{1}
p898
aV{2}{B}
p899
aV{2}{B}{R}
p900
aV{3}
p901
ag852
aV{3}{U}
p902
aV{3}{U}
p903
aV{U}{U}
p904
aV{X}
p905
aV{0}
p906
aV{3}{U}
p907
aV{U}{U}
p908
aV{1}{G}
p909
aV{2}{G}{G}
p910
aV{0}
p911
aV{1}{U}{U}
p912
aV{4}{B}
p913
aV{U}{B}{R}
p914
aV{3}{B}
p915
asS'names'
p916
(lp917
VPhantasmal Bear
p918
aVPhantasmal Dragon
p919
aVPhantasmal Image
p920
aVPhantasmal Forces
p921
aVPhantasmal Terrain
p922
aVPhantom Monster
p923
aVPhyrexian Ghoul
p924
aVPhylactery Lich
p925
aVPhyrexian Hulk
p926
aVPhantasmal Forces
p927
aVPhantasmal Terrain
p928
aVPhantom Monster
p929
aVPhantasmagorian
p930
aVPhyrexian Gremlins
p931
aVPhyrexian Devourer
p932
aVPhyrexian Portal
p933
aVPhantasmal Fiend
p934
aVPhyrexian Boon
p935
aVPhantasmal Sphere
p936
aVPhelddagrif
p937
aVPhantasmal Fiend
p938
aVPhyrexian Boon
p939
aVPhyrexian War Beast
p940
aVPhyrexian War Beast
p941
aVPharagax Giant
p942
aVPhenax, God of Deception
p943
aVPheres-Band Raiders
p944
aVPheres-Band Tromper
p945
aVPhantom Warrior
p946
aVPhantom Warrior
p947
aVPhyrexian Grimoire
p948
aVPhyrexian Splicer
p949
aVPhyrexian Hulk
p950
aVPhage the Untouchable
p951
aVPhantom Warrior
p952
aVPhyrexian Rager
p953
aVPhyrexian Vault
p954
aVPhantom Nomad
p955
aVPhyrexian Defiler
p956
aVPhthisis
p957
aVPhyresis
p958
aVPhyrexian Crusader
p959
aVPhyrexian Digester
p960
aVPhyrexian Hydra
p961
aVPhyrexian Juggernaut
p962
aVPhyrexian Rager
p963
aVPhyrexian Rebirth
p964
aVPhyrexian Revoker
p965
aVPhyrexian Vatmother
p966
aVPhyrexian Arena
p967
aVPhyrexian Gargantua
p968
aVPhyrexian Rager
p969
aVPhantasmal Terrain
p970
aVPhantasmal Forces
p971
aVPhantom Monster
p972
aVPhantasmal Fiend
p973
aVPhantasmal Mount
p974
aVPhyrexian Devourer
p975
aVPhyrexian Portal
p976
aVPhyrexian Gargantua
p977
aVPhantom Warrior
p978
aVPhyrexian Arena
p979
aVPhyrexian Hulk
p980
aVPhosphorescent Feast
p981
aVPhantom General
p982
aVPhantom Wings
p983
aVPhyrexian Monitor
p984
aVPhyrexian Negator
p985
aVPhytohydra
p986
aVPhantom Nantuko
p987
aVPhthisis
p988
aVPhyrexian Delver
p989
aVPhyrexian Gargantua
p990
aVPhyrexian Reclamation
p991
aVPhantatog
p992
aVPhantom Whelp
p993
aVPhyrexian Totem
p994
aVPhthisis
p995
aVPhantom Wurm
p996
aVPhantom General
p997
aVPhyrexian Etchings
p998
aVPhyrexian Ironfoot
p999
aVPhyrexian Snowcrusher
p1000
aVPhobian Phantasm
p1001
aVPhyrexian Soulgorger
p1002
aVPhantasmal Forces
p1003
aVPhantasmal Terrain
p1004
aVPhantom Monster
p1005
aVPhantasmal Mount
p1006
aVPhyrexian Vault
p1007
aVPhantasmal Terrain
p1008
aVPhantom Warrior
p1009
aVPhyrexian Colossus
p1010
aVPhantom Warrior
p1011
aVPhyrexian Hulk
p1012
aVPhyrexian Revoker
p1013
aVPhytotitan
p1014
aVPhyrexian Broodlings
p1015
aVPhyrexian Denouncer
p1016
aVPhyrexian Defiler
p1017
aVPhyrexian Debaser
p1018
aVPhyrexian Reclamation
p1019
aVPhyrexian Plaguelord
p1020
aVPhantasmal Abomination
p1021
aVPhantom Nomad
p1022
aVPhantom Flock
p1023
aVPhantom Tiger
p1024
aVPhantom Nantuko
p1025
aVPhantom Centaur
p1026
aVPhantom Nishoba
p1027
aVPhyrexian Hulk
p1028
aVPhyrexian Ingester
p1029
aVPhyrexian Metamorph
p1030
aVPhyrexian Obliterator
p1031
aVPhyrexian Swarmlord
p1032
aVPhyrexian Unlife
p1033
aVPhyrexia's Core
p1034
aVPhantom Warrior
p1035
aVPhosphorescent Feast
p1036
aVPhyrexian Arena
p1037
aVPhyrexian Ghoul
p1038
aVPhage the Untouchable
p1039
aVPhyrexian Tower
p1040
aVPhyrexian Processor
p1041
aVPhyrexian Colossus
p1042
aVPhyrexian Ghoul
p1043
aVPhyrexian War Beast
p1044
aVPhantom Monster
p1045
aVPhelddagrif
p1046
aVPhyrexian Boon
p1047
aVPhalanx Leader
p1048
aVPharika's Cure
p1049
aVPharika's Mender
p1050
aVPheres-Band Centaurs
p1051
aVPhyrexian Furnace
p1052
aVPhantom Warrior
p1053
aVPhantom Wings
p1054
aVPhage the Untouchable
p1055
aVPhyrexian Plaguelord
p1056
aVPhyrexian Arena
p1057
aVPhyrexian Hulk
p1058
aVPhantom Warrior
p1059
aVPhyrexian Colossus
p1060
aVPhyrexian Prowler
p1061
aVPhyrexian Driver
p1062
aVPhyrexian Delver
p1063
aVPhyrexian Battleflies
p1064
aVPhyrexian Reaper
p1065
aVPhyrexian Slayer
p1066
aVPhyrexian Altar
p1067
aVPhyrexian Lens
p1068
aVPhyrexian Infiltrator
p1069
aVPhantasmal Terrain
p1070
aVPhalanx Formation
p1071
aVPharika, God of Affliction
p1072
aVPharika's Chosen
p1073
aVPheres-Band Thunderhoof
p1074
aVPheres-Band Warchief
p1075
aVPhantasmal Forces
p1076
aVPhantasmal Terrain
p1077
aVPhantom Monster
p1078
aVPhantasmal Bear
p1079
aVPhantasmal Dragon
p1080
aVPhyrexian Dreadnought
p1081
aVPhyrexian Tribute
p1082
aVPhyrexian Purge
p1083
aVPhyrexian Vault
p1084
aVPhage the Untouchable Avatar
p1085
aVPhantasmal Forces
p1086
aVPhantom Monster
p1087
aVPhantasmal Terrain
p1088
aVPhyrexian Marauder
p1089
aVPhyrexian Walker
p1090
aVPhantasmal Forces
p1091
aVPhantasmal Terrain
p1092
aVPhytoburst
p1093
aVPhantom Beast
p1094
aVPhylactery Lich
p1095
aVPhantom Warrior
p1096
aVPhyrexian Bloodstock
p1097
aVPhyrexian Tyranny
p1098
aVPhyrexian Scuta
p1099
asS'toughs'
p1100
(lp1101
V1
p1102
aV2
p1103
ag1103
aV6
p1104
aS'N/A'
p1105
ag1102
ag1103
aV3
p1106
ag1105
ag1102
ag1105
ag1103
ag1104
aV4
p1107
ag1105
ag1105
ag1102
ag1105
aV5
p1108
ag1106
ag1106
ag1105
ag1105
ag1105
aV7
p1109
ag1105
ag1103
ag1103
ag1103
ag1103
ag1105
ag1105
ag1105
ag1107
ag1102
ag1102
ag1105
ag1102
ag1106
ag1105
ag1105
ag1108
ag1105
ag1107
ag1105
ag1103
ag1105
ag1105
ag1106
ag1105
ag1106
ag1104
ag1105
ag1102
ag1106
ag1102
ag1102
ag1105
ag1105
ag1107
ag1103
ag1105
ag1105
ag1105
ag1106
ag1105
ag1106
ag1103
ag1104
ag1103
ag1105
ag1108
ag1103
ag1105
ag1106
ag1102
ag1105
ag1105
ag1102
ag1107
ag1105
ag1105
ag1105
ag1106
ag1105
ag1104
ag1105
ag1102
ag1102
ag1105
ag1105
ag1102
ag1105
ag1106
ag1105
ag1105
ag1106
ag1103
ag1102
ag1106
ag1103
ag1105
ag1103
ag1109
aV0
p1110
ag1110
ag1110
ag1110
ag1110
ag1110
ag1105
ag1104
ag1105
ag1106
ag1102
ag1105
ag1105
ag1103
ag1105
ag1105
ag1102
ag1107
ag1105
ag1105
ag1105
ag1106
ag1105
ag1102
ag1107
ag1105
ag1106
ag1105
ag1103
ag1103
ag1105
ag1107
ag1105
ag1110
ag1107
ag1105
ag1105
ag1103
ag1105
ag1103
ag1106
ag1103
ag1102
ag1106
ag1103
ag1105
ag1105
ag1106
ag1105
ag1105
ag1105
ag1106
ag1103
ag1107
ag1102
ag1105
ag1102
ag1102
ag1106
ag1105
ag1105
ag1105
ag1105
ag1105
ag1102
ag1106
ag1105
ag1105
ag1105
ag1106
ag1105
ag1105
ag1102
ag1107
ag1103
ag1102
ag1105
ag1108
asS'artists'
p1111
(lp1112
S''
p1113
ag1113
ag1113
aVMark Poole
p1114
aVDameon Willich
p1115
aVJesper Myrfors
p1116
aVPete Venters
p1117
aVMichael Komarck
p1118
aVLucas Graciano
p1119
aVMark Poole
p1120
aVDameon Willich
p1121
aVJesper Myrfors
p1122
aVSteve Ellis
p1123
aVAmy Weber
p1124
aVMark Tedin
p1125
aVPete Venters
p1126
aVScott Kirschner
p1127
aVMark Tedin
p1128
aVMark Tedin
p1129
aVAmy Weber
p1130
aVScott Kirschner
p1131
aVMark Tedin
p1132
aVBill Sienkiewicz
p1133
aVBill Sienkiewicz
p1134
aVRyan Pancoast
p1135
aVRyan Barger
p1136
aVRyan Barger
p1137
aVVolkan Baga
p1138
aVGreg Staples
p1139
aVGreg Staples
p1140
aVDoug Chaffee
p1141
aVBrom
p1142
aVMatthew Wilson
p1143
aVRon Spears
p1144
aVGreg Staples
p1145
aVMark Tedin
p1146
aVHannibal King
p1147
aVJim Nelson
p1148
aVDiTerlizzi
p1149
ag1113
ag1113
ag1113
ag1113
ag1113
ag1113
ag1113
ag1113
ag1113
ag1113
aVPete Venters
p1150
aVCarl Critchlow
p1151
aVMark Tedin
p1152
aVDameon Willich
p1153
aVMark Poole
p1154
aVJesper Myrfors
p1155
aVScott Kirschner
p1156
aVMelissa A. Benson
p1157
aVMark Tedin
p1158
aVPete Venters
p1159
aVCarl Critchlow
p1160
aVGreg Staples
p1161
aVCarl Critchlow
p1162
aVMatthew D. Wilson
p1163
aVRon Spencer
p1164
aVChristopher Moeller
p1165
aVGreg Staples
p1166
aVCarl Critchlow
p1167
aVJohn Zeleznik
p1168
aVJim Murray
p1169
aVWayne England
p1170
aVCarl Critchlow
p1171
aVIgor Kieryluk
p1172
aVIgor Kieryluk
p1173
aVrk post
p1174
aVGlen Angus
p1175
aVWayne England
p1176
aVJohn Zeleznik
p1177
aVCarl Critchlow
p1178
aVAlan Pollack
p1179
aVChristopher Moeller
p1180
aVRon Spears
p1181
aVStephan Martiniere
p1182
aVDave Allsop
p1183
aVSteven Belledin
p1184
aVBrian Snoddy
p1185
aVMark Poole
p1186
aVDameon Willich
p1187
aVJesper Myrfors
p1188
aVMelissa Benson
p1189
aVHannibal King
p1190
aVDavid A. Cherry
p1191
aVJohn Matson
p1192
aVMark Tedin
p1193
aVGreg Staples
p1194
aVBrian Snoddy
p1195
aVKev Walker
p1196
aVMarco Nelor
p1197
aVDaren Bader
p1198
aVBrian Snoddy
p1199
aVDiTerlizzi
p1200
aVMark Tedin
p1201
aVrk post
p1202
aVKev Walker
p1203
aVGoran Josic
p1204
aVJim Nelson
p1205
aVDavid Martin
p1206
aVBrian Snoddy
p1207
aVWayne England
p1208
aVCarl Critchlow
p1209
aVArnie Swekel
p1210
ag1113
ag1113
ag1113
ag1113
ag1113
ag1113
ag1113
aVJohn Matson
p1211
aVDavid Hudnut
p1212
aVCarl Critchlow
p1213
aVPete Venters
p1214
aVRon Spears
p1215
aVChippy
p1216
aVRon Spencer
p1217
aVMark Tedin
p1218
aVPete Venters
p1219
aVBill Sienkiewicz
p1220
aVJesper Myrfors
p1221
aVAmy Weber
p1222
aVMark Tedin
p1223
aVDavid Palumbo
p1224
aVIgor Kieryluk
p1225
aVPeter Mohrbacher
p1226
aVMark Winters
p1227
aVGeorge Pratt
p1228
aVJohn Matson
p1229
aVUna Fricker
p1230
aVRon Spears
p1231
aVKev Walker
p1232
aVCarl Critchlow
p1233
aVMatthew D. Wilson
p1234
aVGreg Staples
p1235
aVMark Tedin
p1236
aVMark Zug
p1237
aVChippy
p1238
aVDana Knutson
p1239
aVDan Frazier
p1240
aVSam Wood
p1241
aVSam Wood
p1242
aVRon Spears
p1243
aVMatt Cavotta
p1244
aVDarrell Riche
p1245
aVDana Knutson
p1246
aVDan Scott
p1247
aVPeter Mohrbacher
p1248
aVJonas De Ro
p1249
aVChristopher Moeller
p1250
aVJames Ryman
p1251
aVMark Poole
p1252
aVDavid A. Cherry
p1253
aVRebecca Guay
p1254
aVRyan Yee
p1255
aVWayne Reynolds
p1256
aVPete Venters
p1257
aVJohn Matson
p1258
aVRobert Bliss
p1259
aVHannibal King
p1260
aVUDON
p1261
aVMark Poole
p1262
aVJesper Myrfors
p1263
aVDameon Willich
p1264
aVDavid Seeley
p1265
aVBryan Talbot
p1266
aVMark Poole
p1267
aVDameon Willich
p1268
aVIzzy
p1269
aVRyan Yee
p1270
aVMichael Komarck
p1271
aVDan Frazier
p1272
aVMark Tedin
p1273
aVKev Walker
p1274
aVScott M. Fischer
p1275
asS'powers'
p1276
(lp1277
g1110
ag1103
ag1103
ag1104
ag1105
ag1107
ag1103
ag1108
ag1105
ag1102
ag1105
ag1103
ag1104
ag1107
ag1105
ag1105
ag1102
ag1105
ag1102
ag1110
ag1106
ag1105
ag1105
ag1105
ag1104
ag1105
ag1103
ag1103
ag1102
ag1106
ag1105
ag1105
ag1105
ag1107
ag1103
ag1102
ag1105
ag1102
ag1102
ag1105
ag1105
ag1104
ag1105
ag1107
ag1105
ag1103
ag1105
ag1105
ag1102
ag1105
ag1106
ag1104
ag1105
ag1102
ag1106
ag1102
ag1102
ag1105
ag1105
ag1107
ag1110
ag1105
ag1105
ag1105
ag1103
ag1105
ag1106
ag1103
ag1110
ag1103
ag1105
ag1107
ag1103
ag1105
ag1106
ag1102
ag1105
ag1105
ag1102
ag1103
ag1105
ag1105
ag1105
ag1106
ag1105
ag1104
ag1105
ag1107
ag1102
ag1105
ag1105
ag1102
ag1105
ag1103
ag1105
ag1105
ag1103
ag1103
ag1102
ag1106
ag1103
ag1105
ag1103
ag1109
ag1110
ag1110
ag1102
ag1110
ag1103
ag1110
ag1105
ag1110
ag1105
ag1103
ag1107
ag1105
ag1105
ag1103
ag1105
ag1105
ag1102
ag1107
ag1105
ag1105
ag1105
ag1102
ag1105
ag1103
ag1106
ag1105
ag1106
ag1105
ag1103
ag1103
ag1105
ag1107
ag1105
ag1107
ag1107
ag1105
ag1105
ag1102
ag1105
ag1103
ag1103
ag1106
ag1110
ag1106
ag1103
ag1105
ag1105
ag1106
ag1105
ag1105
ag1105
ag1107
ag1108
ag1103
ag1102
ag1105
ag1102
ag1102
ag1102
ag1105
ag1105
ag1105
ag1105
ag1105
ag1107
ag1106
ag1105
ag1105
ag1105
ag1108
ag1105
ag1105
ag1107
ag1110
ag1103
ag1102
ag1105
ag1107
asS'types'
p1278
(lp1279
VCreature - Bear Illusion
p1280
aVCreature - Dragon Illusion
p1281
aVCreature - Illusion
p1282
aVCreature - Illusion
p1283
aVEnchantment - Aura
p1284
aVCreature - Illusion
p1285
aVCreature - Zombie
p1286
aVCreature - Zombie
p1287
aVArtifact Creature - Golem
p1288
aVCreature - Illusion
p1289
aVEnchantment - Aura
p1290
aVCreature - Illusion
p1291
aVCreature - Horror
p1292
aVCreature - Gremlin
p1293
aVArtifact Creature - Construct
p1294
aVArtifact
p1295
aVCreature - Illusion
p1296
aVEnchantment - Aura
p1297
aVCreature - Illusion
p1298
aVLegendary Creature - Phelddagrif
p1299
aVCreature - Illusion
p1300
aVEnchantment - Aura
p1301
aVArtifact Creature - Beast
p1302
aVArtifact Creature - Beast
p1303
aVCreature - Giant
p1304
aVLegendary Enchantment Creature - God
p1305
aVCreature - Centaur Warrior
p1306
aVCreature - Centaur Warrior
p1307
aVCreature - Illusion Warrior
p1308
aVCreature - Illusion Warrior
p1309
aVArtifact
p1310
aVArtifact
p1311
aVArtifact Creature - Golem
p1312
aVLegendary Creature - Zombie Minion
p1313
aVCreature - Illusion Warrior
p1314
aVCreature - Horror
p1315
aVArtifact
p1316
aVCreature - Spirit Nomad
p1317
aVCreature - Carrier
p1318
aVSorcery
p1319
aVEnchantment - Aura
p1320
aVCreature - Zombie Knight
p1321
aVArtifact Creature - Construct
p1322
aVCreature - Hydra
p1323
aVArtifact Creature - Juggernaut
p1324
aVCreature - Horror
p1325
aVSorcery
p1326
aVArtifact Creature - Horror
p1327
aVCreature - Horror
p1328
aVEnchantment
p1329
aVCreature - Horror
p1330
aVCreature - Horror
p1331
aVEnchantment - Aura
p1332
aVCreature - Illusion
p1333
aVCreature - Illusion
p1334
aVCreature - Illusion
p1335
aVCreature - Illusion Horse
p1336
aVArtifact Creature - Construct
p1337
aVArtifact
p1338
aVCreature - Horror
p1339
aVCreature - Illusion Warrior
p1340
aVEnchantment
p1341
aVArtifact Creature - Golem
p1342
aVSorcery
p1343
aVCreature - Spirit Soldier
p1344
aVEnchantment - Aura
p1345
aVCreature - Skeleton
p1346
aVCreature - Horror
p1347
aVCreature - Plant Hydra
p1348
aVCreature - Insect Spirit
p1349
aVSorcery
p1350
aVCreature - Zombie
p1351
aVCreature - Horror
p1352
aVEnchantment
p1353
aVCreature - Atog
p1354
aVCreature - Illusion Hound
p1355
aVArtifact
p1356
aVSorcery
p1357
aVCreature - Wurm Spirit
p1358
aVCreature - Spirit Soldier
p1359
aVEnchantment
p1360
aVSnow Artifact Creature - Construct
p1361
aVSnow Artifact Creature - Juggernaut
p1362
aVCreature - Illusion
p1363
aVSnow Artifact Creature - Construct
p1364
aVCreature - Illusion
p1365
aVEnchantment - Aura
p1366
aVCreature - Illusion
p1367
aVCreature - Illusion Horse
p1368
aVArtifact
p1369
aVEnchantment - Aura
p1370
aVCreature - Illusion Warrior
p1371
aVArtifact Creature - Golem
p1372
aVCreature - Illusion Warrior
p1373
aVArtifact Creature - Golem
p1374
aVArtifact Creature - Horror
p1375
aVCreature - Plant Elemental
p1376
aVCreature - Minion
p1377
aVCreature - Carrier
p1378
aVCreature - Carrier
p1379
aVCreature - Carrier
p1380
aVEnchantment
p1381
aVCreature - Carrier
p1382
aVCreature - Illusion
p1383
aVCreature - Spirit Nomad
p1384
aVCreature - Bird Soldier Spirit
p1385
aVCreature - Cat Spirit
p1386
aVCreature - Insect Spirit
p1387
aVCreature - Centaur Spirit
p1388
aVCreature - Cat Beast Spirit
p1389
aVArtifact Creature - Golem
p1390
aVCreature - Beast
p1391
aVArtifact Creature - Shapeshifter
p1392
aVCreature - Horror
p1393
aVCreature - Insect Horror
p1394
aVEnchantment
p1395
aVLand
p1396
aVCreature - Illusion Warrior
p1397
aVSorcery
p1398
aVEnchantment
p1399
aVCreature - Zombie
p1400
aVLegendary Creature - Zombie Minion
p1401
aVLegendary Land
p1402
aVArtifact
p1403
aVArtifact Creature - Golem
p1404
aVCreature - Zombie
p1405
aVArtifact Creature - Beast
p1406
aVCreature - Illusion
p1407
aVLegendary Creature - Phelddagrif
p1408
aVEnchantment - Aura
p1409
aVCreature - Human Soldier
p1410
aVInstant
p1411
aVCreature - Gorgon
p1412
aVCreature - Centaur Warrior
p1413
aVArtifact
p1414
aVCreature - Illusion Warrior
p1415
aVEnchantment - Aura
p1416
aVLegendary Creature - Avatar Minion
p1417
aVCreature - Carrier
p1418
aVEnchantment
p1419
aVArtifact Creature - Golem
p1420
aVCreature - Illusion Warrior
p1421
aVArtifact Creature - Golem
p1422
aVCreature - Zombie Mercenary
p1423
aVCreature - Zombie Mercenary
p1424
aVCreature - Zombie
p1425
aVCreature - Insect
p1426
aVCreature - Zombie
p1427
aVCreature - Minion
p1428
aVArtifact
p1429
aVArtifact
p1430
aVCreature - Minion
p1431
aVEnchantment - Aura
p1432
aVInstant
p1433
aVLegendary Enchantment Creature - God
p1434
aVCreature - Snake
p1435
aVCreature - Centaur Warrior
p1436
aVCreature - Centaur Warrior
p1437
aVCreature - Illusion
p1438
aVEnchantment - Aura
p1439
aVCreature - Illusion
p1440
aVCreature - Bear Illusion
p1441
aVCreature - Dragon Illusion
p1442
aVArtifact Creature - Dreadnought
p1443
aVSorcery
p1444
aVSorcery
p1445
aVArtifact
p1446
aVVanguard
p1447
aVCreature - Illusion
p1448
aVCreature - Illusion
p1449
aVEnchantment - Aura
p1450
aVArtifact Creature - Construct
p1451
aVArtifact Creature - Construct
p1452
aVCreature - Illusion
p1453
aVEnchantment - Aura
p1454
aVSorcery
p1455
aVCreature - Illusion Beast
p1456
aVCreature - Zombie
p1457
aVCreature - Illusion Warrior
p1458
aVCreature - Zombie
p1459
aVEnchantment
p1460
aVCreature - Zombie
p1461
asS'numbers'
p1462
(lp1463
V70
p1464
aV71
p1465
aV72
p1466
aV195
p1467
aV196
p1468
aV197
p1469
aV32
p1470
aV104
p1471
aV209
p1472
aV291
p1473
aV292
p1474
aV293
p1475
aV77
p1476
aV15
p1477
aV9
p1478
aV10
p1479
aV32
p1480
aV33
p1481
aV46
p1482
aV114
p1483
aV169
p1484
aV170
p1485
aV171
p1486
aV172
p1487
aV104
p1488
aV152
p1489
aV133
p1490
aV134
p1491
aV66
p1492
aV67
p1493
aV23
p1494
aV24
p1495
aV301
p1496
aV166
p1497
aV96
p1498
aV167
p1499
aV337
p1500
aV38
p1501
aV133
p1502
ag1113
aV49
p1503
aV50
p1504
aV120
p1505
aV85
p1506
aV121
p1507
aV51
p1508
aV15
p1509
aV122
p1510
aV52
p1511
aV47
p1512
aV48
p1513
aV49
p1514
aV29
p1515
aV211
p1516
aV212
p1517
aV108
p1518
aV59
p1519
aV216
p1520
aV217
p1521
aV153
p1522
aV88
p1523
aV152
p1524
aV306
p1525
aV72
p1526
aV14
p1527
aV46
p1528
aV64
p1529
aV65
p1530
aV218
p1531
aV160
p1532
aV85
p1533
aV86
p1534
aV87
p1535
aV88
p1536
aV291
p1537
aV93
p1538
aV261
p1539
aV122
p1540
aV211
p1541
aV16
p1542
aV67
p1543
aV139
p1544
aV140
p1545
aV66
p1546
aV141
p1547
aV197
p1548
aV198
p1549
aV199
p1550
aV92
p1551
aV306
p1552
aV84
p1553
aV85
p1554
aV311
p1555
aV93
p1556
aV312
p1557
aV225
p1558
aV191
p1559
aV58
p1560
aV61
p1561
aV60
p1562
aV59
p1563
aV63
p1564
aV62
p1565
aV80
p1566
aV17
p1567
aV16
p1568
aV129
p1569
aV128
p1570
aV127
p1571
aV140
p1572
aV150
p1573
aV41
p1574
aV42
p1575
aV68
p1576
aV119
p1577
aV18
p1578
aV165
p1579
aV44
p1580
aV149
p1581
aV36
p1582
aV37
p1583
aV78
p1584
aV322
p1585
aV306
p1586
aV306
p1587
aV148
p1588
aV162
p1589
aV43
p1590
aV150
p1591
aV81
p1592
aV26
p1593
aV100
p1594
aV197
p1595
aV171
p1596
ag1478
aV152
p1597
aV153
p1598
aV120
p1599
aV153
p1600
aV152
p1601
aV310
p1602
aV93
p1603
aV309
p1604
aV65
p1605
aV64
p1606
aV115
p1607
aV114
p1608
aV117
p1609
aV118
p1610
aV306
p1611
aV307
p1612
aV116
p1613
aV65
p1614
aV21
p1615
aV154
p1616
aV78
p1617
aV134
p1618
aV135
p1619
aV358
p1620
aV359
p1621
aV360
p1622
ag1107
aV14
p1623
aV15
p1624
aV39
p1625
aV220
p1626
aV315
p1627
aV31
p1628
ag1478
aV10
p1629
aV221
p1630
aV10
p1631
aV11
p1632
aV55
p1633
aV56
p1634
aV46
p1635
aV69
p1636
aV110
p1637
aV173
p1638
aV50
p1639
aV118
p1640
aV51
p1641
as.