(dp0
S'toughs'
p1
(lp2
S'N/A'
p3
ag3
ag3
ag3
ag3
ag3
aV4
p4
ag3
ag3
ag3
ag3
ag3
aV3
p5
ag3
ag3
ag3
ag3
ag3
ag5
ag3
ag3
ag3
ag3
ag3
ag3
ag3
ag3
ag3
ag3
ag3
ag3
ag3
ag3
ag3
aV6
p6
ag3
ag3
ag3
ag3
ag3
ag3
ag3
ag3
ag4
aV1
p7
ag3
aV2
p8
ag3
ag3
ag3
ag3
ag3
ag3
ag3
ag3
ag3
ag3
ag3
ag3
ag3
ag3
ag3
ag3
ag3
ag3
ag3
ag5
ag3
ag3
ag3
ag3
ag3
ag3
ag3
ag3
ag3
ag3
ag3
ag3
ag7
ag3
ag3
ag3
ag7
ag3
ag3
ag3
ag3
ag3
ag3
ag3
ag5
ag3
ag3
ag3
ag3
ag7
ag3
ag8
ag3
ag3
ag3
ag3
ag3
ag3
ag3
ag3
ag3
ag3
ag3
ag3
ag3
ag3
ag3
ag3
ag3
ag3
ag3
ag3
ag3
ag3
ag3
ag3
ag3
ag7
ag7
ag3
ag3
ag3
ag3
ag3
ag3
ag3
ag3
ag3
ag3
ag3
ag3
ag3
ag3
ag8
ag5
ag3
ag3
ag3
ag3
ag3
ag3
ag3
ag3
ag3
ag5
aV5
p9
ag5
ag3
ag3
ag3
ag3
ag3
ag3
ag3
ag3
ag3
ag5
ag3
ag3
ag3
ag3
ag3
ag3
ag3
ag3
ag3
ag3
ag3
ag8
ag3
ag3
ag3
ag3
ag3
ag3
ag3
ag3
ag3
ag3
ag3
ag3
ag3
ag8
ag3
ag3
ag3
ag3
ag7
ag3
ag3
ag3
ag3
ag8
ag3
ag3
ag3
ag3
ag3
ag7
ag3
ag3
ag3
ag3
ag3
ag3
ag3
ag3
ag3
ag3
ag3
ag3
ag7
ag9
ag3
ag3
ag3
ag3
ag3
ag3
ag3
ag3
ag7
ag7
ag3
ag3
ag3
ag5
ag3
ag3
ag3
ag3
ag3
ag3
ag3
ag3
ag3
ag3
ag5
ag8
ag3
ag3
ag3
ag3
ag4
ag3
ag3
ag3
ag3
ag3
ag7
ag3
ag8
ag3
ag3
ag3
ag3
ag3
ag3
ag5
ag3
ag3
ag3
ag3
ag3
ag3
ag3
ag3
ag3
ag3
ag3
ag3
ag3
ag3
ag3
ag3
ag3
ag3
aV*
p10
ag3
ag3
ag7
ag3
ag3
ag3
ag3
ag8
ag3
ag7
ag7
ag5
ag3
ag3
ag3
ag3
ag3
ag3
ag3
ag3
ag3
ag3
ag3
ag3
ag3
ag3
ag3
ag4
ag3
ag3
ag3
ag3
ag3
ag3
ag3
ag3
ag3
ag3
asS'editns'
p11
(lp12
VAnthologies
p13
aVAnthologies
p14
aVMagic: The Gathering-Commander
p15
aVMagic: The Gathering-Commander
p16
aVMagic: The Gathering-Commander
p17
aVMagic: The Gathering-Commander
p18
aVMagic: The Gathering-Commander
p19
aVMagic 2012
p20
aVMagic 2012
p21
aVMagic 2012
p22
aVMagic 2012
p23
aVMagic 2012
p24
aVLimited Edition Beta
p25
aVLimited Edition Beta
p26
aVLimited Edition Beta
p27
aVLimited Edition Beta
p28
aVLimited Edition Beta
p29
aVSaviors of Kamigawa
p30
aVBattle Royale Box Set
p31
aVBattle Royale Box Set
p32
aVBattle Royale Box Set
p33
aVBattle Royale Box Set
p34
aVBattle Royale Box Set
p35
aVBattle Royale Box Set
p36
aVBattle Royale Box Set
p37
aVBattle Royale Box Set
p38
aVBattle Royale Box Set
p39
aVBattle Royale Box Set
p40
aVMagic 2013
p41
aVMagic 2013
p42
aVMagic 2013
p43
aVMagic 2013
p44
aVMagic 2013
p45
aVMagic 2013
p46
aVFourth Edition
p47
aVFourth Edition
p48
aVFourth Edition
p49
aVFourth Edition
p50
aVDuel Decks: Ajani vs. Nicol Bolas
p51
aVDuel Decks: Knights vs. Dragons
p52
aVDuel Decks: Knights vs. Dragons
p53
aVDuel Decks: Knights vs. Dragons
p54
aVDuel Decks: Knights vs. Dragons
p55
aVDuel Decks: Knights vs. Dragons
p56
aVScars of Mirrodin
p57
aVScars of Mirrodin
p58
aVScars of Mirrodin
p59
aVScars of Mirrodin
p60
aVScars of Mirrodin
p61
aVScars of Mirrodin
p62
aVScars of Mirrodin
p63
aVBorn of the Gods
p64
aVMagic 2010
p65
aVMagic 2010
p66
aVMagic 2010
p67
aVMagic 2010
p68
aVMagic 2010
p69
aVMagic 2010
p70
aVMagic 2014 Core Set
p71
aVMagic 2014 Core Set
p72
aVMagic 2014 Core Set
p73
aVTempest
p74
aVTempest
p75
aVTempest
p76
aVTempest
p77
aVTenth Edition
p78
aVTenth Edition
p79
aVTenth Edition
p80
aVTenth Edition
p81
aVTenth Edition
p82
aVTenth Edition
p83
aVTenth Edition
p84
aVTenth Edition
p85
aVMercadian Masques
p86
aVMercadian Masques
p87
aVMercadian Masques
p88
aVMercadian Masques
p89
aVVintage Masters
p90
aVVintage Masters
p91
aVModern Masters
p92
aVMirrodin Besieged
p93
aVMirrodin Besieged
p94
aVMirrodin Besieged
p95
aVMirrodin Besieged
p96
aVStarter 2000
p97
aVStarter 2000
p98
aVApocalypse
p99
aVMasters Edition III
p100
aVMasters Edition III
p101
aVMasters Edition III
p102
aVMasters Edition III
p103
aVRevised Edition
p104
aVRevised Edition
p105
aVRevised Edition
p106
aVRevised Edition
p107
aVRevised Edition
p108
aVGuildpact
p109
aVNinth Edition
p110
aVNinth Edition
p111
aVNinth Edition
p112
aVNinth Edition
p113
aVNinth Edition
p114
aVNinth Edition
p115
aVNinth Edition
p116
aVAvacyn Restored
p117
aVAvacyn Restored
p118
aVAvacyn Restored
p119
aVPlanechase 2012 Edition
p120
aVPlanechase 2012 Edition
p121
aVPlanechase 2012 Edition
p122
aVPlanechase 2012 Edition
p123
aVPlanechase 2012 Edition
p124
aVPlanechase 2012 Edition
p125
aVDuel Decks: Sorin vs. Tibalt
p126
aVDuel Decks: Sorin vs. Tibalt
p127
aVDuel Decks: Sorin vs. Tibalt
p128
aVOnslaught
p129
aVOnslaught
p130
aVOnslaught
p131
aVOnslaught
p132
aVChampions of Kamigawa
p133
aVChampions of Kamigawa
p134
aVChampions of Kamigawa
p135
aVChampions of Kamigawa
p136
aVUrza's Destiny
p137
aVUrza's Destiny
p138
aVUrza's Destiny
p139
aVModern Event Deck 2014
p140
aVRavnica: City of Guilds
p141
aVRavnica: City of Guilds
p142
aVRavnica: City of Guilds
p143
aVRavnica: City of Guilds
p144
aVRavnica: City of Guilds
p145
aVCommander 2013 Edition
p146
aVCommander 2013 Edition
p147
aVOdyssey
p148
aVOdyssey
p149
aVOdyssey
p150
aVOdyssey
p151
aVTime Spiral
p152
aVTime Spiral
p153
aVTime Spiral
p154
aVTime Spiral
p155
aVTime Spiral
p156
aVTime Spiral
p157
aVTime Spiral
p158
aVReturn to Ravnica
p159
aVReturn to Ravnica
p160
aVReturn to Ravnica
p161
aVReturn to Ravnica
p162
aVReturn to Ravnica
p163
aVExodus
p164
aVExodus
p165
aVUnlimited Edition
p166
aVUnlimited Edition
p167
aVUnlimited Edition
p168
aVUnlimited Edition
p169
aVUnlimited Edition
p170
aVIce Age
p171
aVIce Age
p172
aVIce Age
p173
aVTorment
p174
aVZendikar
p175
aVZendikar
p176
aVZendikar
p177
aVZendikar
p178
aVZendikar
p179
aVZendikar
p180
aVZendikar
p181
aVZendikar
p182
aVZendikar
p183
aVClassic Sixth Edition
p184
aVClassic Sixth Edition
p185
aVClassic Sixth Edition
p186
aVClassic Sixth Edition
p187
aVMirrodin
p188
aVMirrodin
p189
aVMirrodin
p190
aVMirrodin
p191
aVMirrodin
p192
aVMirrodin
p193
aVDuel Decks: Elspeth vs. Tezzeret
p194
aVDuel Decks: Elspeth vs. Tezzeret
p195
aVDuel Decks: Elspeth vs. Tezzeret
p196
aVDuel Decks: Elspeth vs. Tezzeret
p197
aVShards of Alara
p198
aVShards of Alara
p199
aVShards of Alara
p200
aVShards of Alara
p201
aVSeventh Edition
p202
aVSeventh Edition
p203
aVSeventh Edition
p204
aVSeventh Edition
p205
aVSeventh Edition
p206
aVProphecy
p207
aVProphecy
p208
aVMagic 2015 Core Set
p209
aVMagic 2015 Core Set
p210
aVUrza's Legacy
p211
aVUrza's Legacy
p212
aVRise of the Eldrazi
p213
aVRise of the Eldrazi
p214
aVRise of the Eldrazi
p215
aVRise of the Eldrazi
p216
aVJudgment
p217
aVShadowmoor
p218
aVShadowmoor
p219
aVShadowmoor
p220
aVShadowmoor
p221
aVShadowmoor
p222
aVShadowmoor
p223
aVNew Phyrexia
p224
aVNew Phyrexia
p225
aVStarter 1999
p226
aVStarter 1999
p227
aVStarter 1999
p228
aVStarter 1999
p229
aVFifth Dawn
p230
aVFifth Dawn
p231
aVPortal Second Age
p232
aVPortal Second Age
p233
aVPortal Second Age
p234
aVPortal Second Age
p235
aVPlanechase
p236
aVPlanechase
p237
aVPlanechase
p238
aVPlanechase
p239
aVPlanechase
p240
aVLegions
p241
aVLegions
p242
aVDuel Decks: Venser vs. Koth
p243
aVDuel Decks: Venser vs. Koth
p244
aVDuel Decks: Venser vs. Koth
p245
aVDuel Decks: Venser vs. Koth
p246
aVUrza's Saga
p247
aVUrza's Saga
p248
aVUrza's Saga
p249
aVUrza's Saga
p250
aVUrza's Saga
p251
aVUrza's Saga
p252
aVMasters Edition
p253
aVMasters Edition
p254
aVMasters Edition
p255
aVTheros
p256
aVMagic: The Gathering\u2014Conspiracy
p257
aVMagic: The Gathering\u2014Conspiracy
p258
aVMagic: The Gathering\u2014Conspiracy
p259
aVMagic: The Gathering\u2014Conspiracy
p260
aVEighth Edition
p261
aVEighth Edition
p262
aVEighth Edition
p263
aVEighth Edition
p264
aVEighth Edition
p265
aVEighth Edition
p266
aVEighth Edition
p267
aVEighth Edition
p268
aVNemesis
p269
aVInvasion
p270
aVInvasion
p271
aVInvasion
p272
aVInvasion
p273
aVInvasion
p274
aVInvasion
p275
aVInvasion
p276
aVInvasion
p277
aVFifth Edition
p278
aVFifth Edition
p279
aVFifth Edition
p280
aVFifth Edition
p281
aVFifth Edition
p282
aVArchenemy
p283
aVArchenemy
p284
aVArchenemy
p285
aVKhans of Tarkir
p286
aVMirage
p287
aVMirage
p288
aVMirage
p289
aVMirage
p290
aVVanguard
p291
aVVanguard
p292
aVInnistrad
p293
aVInnistrad
p294
aVInnistrad
p295
aVLimited Edition Alpha
p296
aVLimited Edition Alpha
p297
aVLimited Edition Alpha
p298
aVLimited Edition Alpha
p299
aVBeatdown Box Set
p300
aVMasters Edition IV
p301
aVMasters Edition IV
p302
aVDragon's Maze
p303
aVLegends
p304
aVDissension
p305
aVDissension
p306
aVDissension
p307
aVDuel Decks: Izzet vs. Golgari
p308
aVLorwyn
p309
aVLorwyn
p310
aVLorwyn
p311
aVLorwyn
p312
aVLorwyn
p313
aVPremium Deck Series: Slivers
p314
aVMagic 2011
p315
aVMagic 2011
p316
aVMagic 2011
p317
aVMagic 2011
p318
aVMagic 2011
p319
aVMagic 2011
p320
aVPortal Three Kingdoms
p321
aVPortal Three Kingdoms
p322
aVPortal Three Kingdoms
p323
aVDuel Decks: Heroes vs. Monsters
p324
aVPortal
p325
aVPortal
p326
aVPortal
p327
aVPortal
p328
aVPortal
p329
aVPlaneshift
p330
aVPlaneshift
p331
aVPlaneshift
p332
aVPlaneshift
p333
aVPlaneshift
p334
aVPlaneshift
p335
asS'ids'
p336
(lp337
I397610
aV-2146729897
p338
aV249814
p339
aV249813
p340
aV249815
p341
aV249812
p342
aV247408
p343
aV244333
p344
aV244334
p345
aV244332
p346
aV233235
p347
aV244331
p348
aV372
p349
aV597
p350
aV596
p351
aV595
p352
aV578
p353
aV89397
p354
aV21116
p355
aV22363
p356
aV22362
p357
aV22361
p358
aV22360
p359
aV22359
p360
aV22358
p361
aV22357
p362
aV22356
p363
aV21145
p364
aV275269
p365
aV253675
p366
aV249732
p367
aV249733
p368
aV249731
p369
aV249734
p370
aV2121
p371
aV2386
p372
aV2385
p373
aV2384
p374
aV249376
p375
aV243456
p376
aV243457
p377
aV243458
p378
aV243459
p379
aV243437
p380
aV208261
p381
aV214679
p382
aV194061
p383
aV215092
p384
aV214677
p385
aV214671
p386
aV214683
p387
aV378396
p388
aV191382
p389
aV191599
p390
aV191313
p391
aV191395
p392
aV191385
p393
aV191396
p394
aV370754
p395
aV370808
p396
aV370601
p397
aV4956
p398
aV4955
p399
aV4954
p400
aV4953
p401
aV106537
p402
aV129678
p403
aV129679
p404
aV129680
p405
aV129883
p406
aV129681
p407
aV129682
p408
aV129683
p409
aV20880
p410
aV20881
p411
aV20882
p412
aV20883
p413
aV383049
p414
aV383050
p415
aV370423
p416
aV214057
p417
aV220366
p418
aV213785
p419
aV213752
p420
aV25454
p421
aV25453
p422
aV25859
p423
aV206080
p424
aV206078
p425
aV206079
p426
aV201402
p427
aV1173
p428
aV1397
p429
aV1396
p430
aV1395
p431
aV1378
p432
aV107691
p433
aV84413
p434
aV83205
p435
aV83206
p436
aV83207
p437
aV83208
p438
aV83209
p439
aV83210
p440
aV269638
p441
aV269637
p442
aV269634
p443
aV226545
p444
aV276459
p445
aV276473
p446
aV276469
p447
aV276458
p448
aV276461
p449
aV368473
p450
aV368480
p451
aV368508
p452
aV40124
p453
aV40123
p454
aV40122
p455
aV40121
p456
aV79072
p457
aV79060
p458
aV79063
p459
aV79076
p460
aV15180
p461
aV19239
p462
aV12628
p463
aV382193
p464
aV83556
p465
aV95108
p466
aV95112
p467
aV95105
p468
aV95115
p469
aV376450
p470
aV376454
p471
aV31612
p472
aV31629
p473
aV31630
p474
aV31631
p475
aV108926
p476
aV110510
p477
aV116748
p478
aV122092
p479
aV122087
p480
aV122085
p481
aV122084
p482
aV289311
p483
aV289312
p484
aV289310
p485
aV289309
p486
aV333721
p487
aV5200
p488
aV5201
p489
aV674
p490
aV899
p491
aV898
p492
aV897
p493
aV880
p494
aV2773
p495
aV2772
p496
aV2771
p497
aV29824
p498
aV201972
p499
aV170977
p500
aV201973
p501
aV195179
p502
aV195173
p503
aV201974
p504
aV195196
p505
aV201971
p506
aV195163
p507
aV14733
p508
aV14734
p509
aV14735
p510
aV14736
p511
aV47781
p512
aV48407
p513
aV48406
p514
aV48408
p515
aV48409
p516
aV48580
p517
aV222754
p518
aV222752
p519
aV222753
p520
aV222751
p521
aV175029
p522
aV175030
p523
aV175031
p524
aV175032
p525
aV13158
p526
aV11446
p527
aV11447
p528
aV11448
p529
aV11449
p530
aV24610
p531
aV24622
p532
aV383346
p533
aV383350
p534
aV12365
p535
aV12393
p536
aV205938
p537
aV205925
p538
aV205931
p539
aV205928
p540
aV35088
p541
aV153980
p542
aV159406
p543
aV158235
p544
aV158236
p545
aV157887
p546
aV157873
p547
aV227518
p548
aV227552
p549
aV21789
p550
aV21792
p551
aV21791
p552
aV21790
p553
aV72681
p554
aV73562
p555
aV6617
p556
aV8380
p557
aV8374
p558
aV8354
p559
aV205301
p560
aV205430
p561
aV205428
p562
aV205436
p563
aV205440
p564
aV42017
p565
aV44323
p566
aV284497
p567
aV284499
p568
aV284498
p569
aV266210
p570
aV5608
p571
aV5766
p572
aV8322
p573
aV8323
p574
aV8324
p575
aV8325
p576
aV159287
p577
aV159288
p578
aV159289
p579
aV373533
p580
aV382327
p581
aV382328
p582
aV382329
p583
aV382330
p584
aV45450
p585
aV45486
p586
aV45291
p587
aV45340
p588
aV46437
p589
aV46438
p590
aV46439
p591
aV46440
p592
aV19579
p593
aV22958
p594
aV23021
p595
aV23153
p596
aV25963
p597
aV26298
p598
aV26299
p599
aV26300
p600
aV23234
p601
aV3871
p602
aV4206
p603
aV4205
p604
aV4204
p605
aV4203
p606
aV221309
p607
aV221310
p608
aV220514
p609
aV386625
p610
aV3588
p611
aV3587
p612
aV3586
p613
aV3585
p614
aV214825
p615
aV182292
p616
aV245230
p617
aV245233
p618
aV245231
p619
aV281
p620
aV77
p621
aV295
p622
aV294
p623
aV26661
p624
aV202613
p625
aV202612
p626
aV369069
p627
aV1417
p628
aV107286
p629
aV107379
p630
aV97104
p631
aV338396
p632
aV139396
p633
aV143621
p634
aV143630
p635
aV143622
p636
aV143620
p637
aV207937
p638
aV213612
p639
aV206329
p640
aV205062
p641
aV213614
p642
aV213613
p643
aV213615
p644
aV10581
p645
aV10645
p646
aV10646
p647
aV373369
p648
aV4313
p649
aV4428
p650
aV4427
p651
aV4426
p652
aV4425
p653
aV25886
p654
aV25887
p655
aV25888
p656
aV25889
p657
aV25890
p658
aV26835
p659
asS'texts'
p660
(lp661
S''
p662
ag662
aVW
p663
ag663
ag663
ag663
aVFlash <i>(You may cast this spell any time you could cast an instant.)</i><br>Defender, flying
p664
ag663
ag663
ag663
aVSearch your library for a basic land card and put that card onto the battlefield tapped. Then shuffle your library.
p665
ag662
aVReturn target creature card from your graveyard to the battlefield.
p666
aVThe next time a source of your choice would deal damage to you this turn, prevent that damage. You gain life equal to the damage prevented this way.
p667
aVTarget blocking creature gets +7/+7 until end of turn.
p668
aVFlying
p669
aVRock Hydra enters the battlefield with X +1/+1 counters on it.<br>For each 1 damage that would be dealt to Rock Hydra, if it has a +1/+1 counter on it, remove a +1/+1 counter from it and prevent that 1 damage.<br>{R}: Prevent the next 1 damage that would be dealt to Rock Hydra this turn.<br>{R}{R}{R}: Put a +1/+1 counter on Rock Hydra. Activate this ability only during your upkeep.
p670
aVSweep- Return any number of Plains you control to their owner's hand. Target creature gets +1/+1 until end of turn for each Plains returned this way.
p671
aV{2}{G}: Plated Rootwalla gets +3/+3 until end of turn. Activate this ability only once each turn.
p672
ag663
ag663
ag663
ag663
ag663
ag663
ag663
ag663
aV{T}: Prodigal Sorcerer deals 1 damage to target creature or player.
p673
aVPrized Elephant gets +1/+1 as long as you control a Forest.<br>{G}: Prized Elephant gains trample until end of turn. <i>(If this creature would assign enough damage to its blockers to destroy them, you may have it assign the rest of its damage to defending player or planeswalker.)</i>
p674
aVAt the beginning of your upkeep, return a creature you control to its owner's hand.
p675
aVR
p676
ag662
ag662
ag662
aVEnchant creature<br>Enchanted creature has protection from red. This effect doesn't remove Red Ward.
p677
aVEnchant creature <i>(Target a creature as you cast this. This card enters the battlefield attached to that creature.)</i><br>{G}: Regenerate enchanted creature. <i>(The next time that creature would be destroyed this turn, it isn't. Instead tap it, remove all damage from it, and remove it from combat.)</i>
p678
aVThe next time a source of your choice would deal damage to you this turn, prevent that damage. You gain life equal to the damage prevented this way.
p679
aVTarget blocking creature gets +7/+7 until end of turn.
p680
ag663
ag663
ag663
ag663
ag663
aVFlying, first strike
p681
aVImprint- When Prototype Portal enters the battlefield, you may exile an artifact card from your hand.<br>{X}, {T}: Put a token that's a copy of the exiled card onto the battlefield. X is the converted mana cost of that card.
p682
aVTarget player discards a card. If a land card is discarded this way, return Psychic Miasma to its owner's hand.
p683
aVTrample, haste<br>Infect <i>(This creature deals damage to creatures in the form of -1/-1 counters and to players in the form of poison counters.)</i><br>At the beginning of the end step, sacrifice Putrefax.
p684
aVYou may have Quicksilver Gargantuan enter the battlefield as a copy of any creature on the battlefield, except it's still 7/7.
p685
ag662
ag662
ag662
aVEnchant creature<br>When Raised by Wolves enters the battlefield, put two 2/2 green Wolf creature tokens onto the battlefield.<br>Enchanted creature gets +1/+1 for each Wolf you control.
p686
aVPyroclasm deals 2 damage to each creature.
p687
aVHaste <i>(This creature can attack and {T} as soon as it comes under your control.)</i>
p688
aVSearch your library for a basic land card and put that card onto the battlefield tapped. Then shuffle your library.
p689
ag662
ag662
ag662
aVEnchant creature<br>Enchanted creature gets -1/-1 for each Swamp you control.
p690
aVThe next sorcery card you cast this turn can be cast as though it had flash. <i>(It can be cast any time you could cast an instant.)</i><br>Draw a card.
p691
aVTarget creature you control gets +1/+1 and gains hexproof until end of turn. <i>(It can't be the target of spells or abilities your opponents control.)</i>
p692
aVCounter target spell unless its controller pays {X}. If he or she doesn't, that player taps all lands with mana abilities he or she controls and empties his or her mana pool.
p693
aVDestroy target land.
p694
aVSearch your library for a basic land card and put that card onto the battlefield tapped. Then shuffle your library.
p695
aVFlying <i>(This creature can't be blocked except by creatures with flying or reach.)</i><br>When Rathi Dragon enters the battlefield, sacrifice it unless you sacrifice two Mountains.
p696
aVFlying<br>You can't lose the game and your opponents can't win the game.
p697
aVHaste <i>(This creature can attack and {T} as soon as it comes under your control.)</i>
p698
aVSearch your library for a basic land card and put that card onto the battlefield tapped. Then shuffle your library.
p699
aVWhen Ravenous Rats enters the battlefield, target opponent discards a card.
p700
aVFlying<br>{T}: Add one mana of any color to your mana pool.
p701
ag662
ag662
ag662
ag663
ag663
aV{B}: Primeval Shambler gets +1/+1 until end of turn.
p702
aVDestroy target land.
p703
aV{2}: Target creature gains flying until end of turn.<br>{5}, {T}: Destroy target creature with flying.
p704
aVWhen Predatory Nightstalker enters the battlefield, you may have target opponent sacrifice a creature.
p705
aVFlash<br>Defender, flying
p706
ag663
ag663
aVReturn all cards from your graveyard to your hand. Exile Praetor's Counsel. You have no maximum hand size for the rest of the game.
p707
aVVigilance<br>Infect <i>(This creature deals damage to creatures in the form of -1/-1 counters and to players in the form of poison counters.)</i>
p708
aVDestroy target land.
p709
aVB
p710
aVDomain- All creatures get -1/-1 until end of turn for each basic land type among lands you control.
p711
aV{T}: Destroy target enchanted creature.
p712
aVRasputin Dreamweaver enters the battlefield with seven dream counters on it.<br>Remove a dream counter from Rasputin: Add {1} to your mana pool.<br>Remove a dream counter from Rasputin: Prevent the next 1 damage that would be dealt to Rasputin this turn.<br>At the beginning of your upkeep, if Rasputin started the turn untapped, put a dream counter on it.<br>Rasputin can't have more than seven dream counters on it.
p713
aVDiscard X cards, then return a card from your graveyard to your hand for each card discarded this way. Exile Recall.
p714
aVChoose target creature. When that creature dies this turn, return a creature card from its owner's graveyard to the battlefield under the control of that creature's owner.
p715
aVTarget blocking creature gets +7/+7 until end of turn.
p716
aVFlying
p717
aVRock Hydra enters the battlefield with X +1/+1 counters on it.<br>For each 1 damage that would be dealt to Rock Hydra, if it has a +1/+1 counter on it, remove a +1/+1 counter from it and prevent that 1 damage.<br>{R}: Prevent the next 1 damage that would be dealt to Rock Hydra this turn.<br>{R}{R}{R}: Put a +1/+1 counter on Rock Hydra. Activate this ability only during your upkeep.
p718
aV{T}: Destroy target tapped creature.
p719
aV{T}: Prevent the next 1 damage that would be dealt to target creature or player this turn.
p720
aV{G}, Sacrifice a creature: You gain 1 life.
p721
aVCounter target creature spell.
p722
aVThe next time a source of your choice would deal damage to you this turn, prevent that damage. You gain life equal to the damage prevented this way.
p723
aVCounter target spell. Untap up to four lands.
p724
aVTarget blocking creature gets +7/+7 until end of turn.
p725
aV{3}, {T}: Rod of Ruin deals 1 damage to target creature or player.
p726
aV{T}: Destroy target tapped creature.
p727
aVWhenever a spell or ability an opponent controls causes a land to be put into your graveyard from the battlefield, return that card to the battlefield.
p728
ag710
ag662
ag662
aVWhen you encounter Planewide Disaster, destroy all creatures. <i>(Then planeswalk away from this phenomenon.)</i>
p729
aVEnchant creature<br>Enchanted creature has flying.<br>Whenever enchanted creature deals combat damage to a player, put that many 1/1 green Saproling creature tokens onto the battlefield.
p730
ag663
ag663
ag663
ag710
ag663
ag663
ag663
ag663
ag663
aVTarget player shuffles his or her graveyard into his or her library.
p731
aVFlying <i>(This creature can't be blocked except by creatures with flying or reach.)</i><br>When Sage Aven enters the battlefield, look at the top four cards of your library, then put them back in any order.
p732
aVLava Spike deals 3 damage to target player.
p733
ag710
ag710
ag710
aVWhen Plague Dogs dies, all creatures get -1/-1 until end of turn.<br>{2}, Sacrifice Plague Dogs: Draw a card.
p734
aVReach <i>(This creature can block creatures with flying.)</i>
p735
aVPut two target lands on top of their owners' libraries.
p736
ag663
aVAt the beginning of your upkeep, put a plague counter on Plague Boiler.<br>{1}{B}{G}: Put a plague counter on Plague Boiler or remove a plague counter from it.<br>When Plague Boiler has three or more plague counters on it, sacrifice it. If you do, destroy all nonland permanents.
p737
ag663
ag663
aVReturn target card from your graveyard to your hand.
p738
aVScion of the Wild's power and toughness are each equal to the number of creatures you control.
p739
aVAt the beginning of your upkeep, put a plague counter on Plague Boiler.<br>{1}{B}{G}: Put a plague counter on Plague Boiler or remove a plague counter from it.<br>When Plague Boiler has three or more plague counters on it, sacrifice it. If you do, destroy all nonland permanents.
p740
ag663
ag663
ag663
ag663
aV{U}, {T}: You may tap or untap target creature.
p741
aVDestroy target artifact or land.<br>Suspend 4\u2014{1}{R} <i>(Rather than cast this card from your hand, you may pay {1}{R} and exile it with four time counters on it. At the beginning of your upkeep, remove a time counter. When the last is removed, cast it without paying its mana cost.)</i>
p742
aVFlash <i>(You may cast this spell any time you could cast an instant.)</i><br>Flying<br>If a spell would deal damage to a creature or player, prevent 1 damage that spell would deal to that creature or player.
p743
aVAll Slivers have "At the beginning of your upkeep, this permanent deals 1 damage to you."
p744
ag663
ag663
ag663
ag710
aVWhenever you cast a multicolored spell, Pyroconvergence deals 2 damage to target creature or player.
p745
aVG
p746
ag710
ag710
ag662
aV{X}{X}{B}: Destroy target nonblack creature with converted mana cost X.
p747
aV{2}{G}: Plated Rootwalla gets +3/+3 until end of turn. Activate this ability only once each turn.
p748
aVThe next time a source of your choice would deal damage to you this turn, prevent that damage. You gain life equal to the damage prevented this way.
p749
aVTarget blocking creature gets +7/+7 until end of turn.
p750
aVFlying
p751
aVRock Hydra enters the battlefield with X +1/+1 counters on it.<br>For each 1 damage that would be dealt to Rock Hydra, if it has a +1/+1 counter on it, remove a +1/+1 counter from it and prevent that 1 damage.<br>{R}: Prevent the next 1 damage that would be dealt to Rock Hydra this turn.<br>{R}{R}{R}: Put a +1/+1 counter on Rock Hydra. Activate this ability only during your upkeep.
p752
aV{3}, {T}: Rod of Ruin deals 1 damage to target creature or player.
p753
aVLook at the top three cards of target player's library, then put them back in any order. You may have that player shuffle his or her library.<br>Draw a card at the beginning of the next turn's upkeep.
p754
aVCounter target spell unless its controller pays {X}. If he or she doesn't, that player taps all lands with mana abilities he or she controls and empties his or her mana pool.
p755
aVEach player loses a third of his or her life, then discards a third of the cards in his or her hand, then sacrifices a third of the creatures he or she controls, then sacrifices a third of the lands he or she controls. Round up each time.
p756
aVUntil end of turn, if target player would draw a card, instead that player skips that draw and you draw a card.
p757
aVEnchant creature<br>Enchanted creature has "{T}: This creature deals damage equal to its power to target creature. That creature deals damage equal to its power to this creature."
p758
aVTarget creature gets +1/+1 until end of turn for each Forest you control.
p759
ag663
ag663
ag710
ag710
ag710
ag710
ag710
aVUntap all creatures that attacked this turn. After this main phase, there is an additional combat phase followed by an additional main phase.
p760
aVCounter target creature spell.
p761
aV{3}, {T}: Rod of Ruin deals 1 damage to target creature or player.
p762
aVRuins of Trokair enters the battlefield tapped.<br>{T}: Add {W} to your mana pool.<br>{T}, Sacrifice Ruins of Trokair: Add {W}{W} to your mana pool.
p763
aVHexproof <i>(This creature can't be the target of spells or abilities your opponents control.)</i>
p764
aVCounter target artifact or enchantment spell.
p765
aVFlying<br>You can't lose the game and your opponents can't win the game.
p766
aVEach player can't cast more than one spell each turn.
p767
aVYou may have Sculpting Steel enter the battlefield as a copy of any artifact on the battlefield.
p768
aVAdd {R}{R}{R}{R}{R} to your mana pool.
p769
ag663
ag663
aVAffinity for artifacts <i>(This spell costs {1} less to cast for each artifact you control.)</i><br>Flying
p770
aVPut two 1/1 white Soldier creature tokens onto the battlefield.
p771
aVCounter target spell unless its controller pays {1}.<br>Cycling {2} <i>({2}, Discard this card: Draw a card.)</i>
p772
ag710
ag662
ag662
aVUntap all creatures that attacked this turn. After this main phase, there is an additional combat phase followed by an additional main phase.
p773
aVCounter target creature spell.
p774
aVDestroy target creature with power 4 or greater. It can't be regenerated.
p775
aVThe next time a source of your choice would deal damage to you this turn, prevent that damage. You gain life equal to the damage prevented this way.
p776
aV{3}, {T}: Rod of Ruin deals 1 damage to target creature or player.
p777
aVWhenever Plague Fiend deals combat damage to a creature, destroy that creature unless its controller pays {2}.
p778
aVDestroy all creatures you don't control. They can't be regenerated.
p779
aVFlash <i>(You may cast this spell any time you could cast an instant.)</i><br>Flying<br>When Quickling enters the battlefield, sacrifice it unless you return another creature you control to its owner's hand.
p780
aVWhen Radiant Fountain enters the battlefield, you gain 2 life.<br>{T}: Add {1} to your mana pool.
p781
aVAt the beginning of your upkeep, if there are four or more creatures on the battlefield, sacrifice Planar Collapse and destroy all creatures. They can't be regenerated.
p782
aVDestroy all artifacts and enchantments.
p783
aVDefender, flying<br>{1}{R}: Target creature attacks this turn if able.
p784
ag710
ag710
ag662
aVAt the beginning of your upkeep, flip a coin. If you lose the flip, sacrifice Planar Chaos.<br>Whenever a player casts a spell, that player flips a coin. If he or she loses the flip, counter that spell.
p785
aV{W}, {T}: Remove a -1/-1 counter from target creature. If you do, you gain 2 life.
p786
aV<i>({2/W} can be paid with any two mana or with {W}. This card's converted mana cost is 10.)</i><br>Other Scarecrow creatures you control get +1/+1.<br>Whenever another Scarecrow enters the battlefield under your control, destroy target permanent.
p787
ag663
ag663
ag710
ag710
ag663
ag662
aVDestroy target land.
p788
aVFlying <i>(This creature can't be blocked except by creatures with flying or reach.)</i>
p789
aVYou may play up to three additional lands this turn.
p790
ag710
aVModular\u2014Sunburst <i>(This enters the battlefield with a +1/+1 counter on it for each color of mana spent to cast it. When it dies, you may put its +1/+1 counters on target artifact creature.)</i>
p791
aVTarget opponent reveals his or her hand. You may copy an instant or sorcery card in it. If you do, you may cast the copy without paying its mana cost.
p792
aVSylvan Yeti's power is equal to the number of cards in your hand.
p793
aVSwarm of Rats's power is equal to the number of Rats you control.
p794
aVWhenever Sylvan Basilisk becomes blocked by a creature, destroy that creature.
p795
aVDraw a card for each tapped creature target opponent controls.
p796
ag663
ag663
ag663
ag663
ag663
aVAll Sliver creatures get +0/+1.
p797
aV{3}{W}, Exile Planar Guide: Exile all creatures. At the beginning of the next end step, return those cards to the battlefield under their owners' control.
p798
ag663
ag663
ag663
aVFirst strike<br>Landfall- Whenever a land enters the battlefield under your control, Plated Geopede gets +2/+2 until end of turn.
p799
aVWhenever another card is put into a graveyard from anywhere, exile that card.
p800
aVAt the beginning of your upkeep, sacrifice Contamination unless you sacrifice a creature.<br>If a land is tapped for mana, it produces {B} instead of any other type and amount.
p801
ag663
aVPolluted Mire enters the battlefield tapped.<br>{T}: Add {B} to your mana pool.<br>Cycling {2} <i>({2}, Discard this card: Draw a card.)</i>
p802
aVCounter target spell unless its controller pays {X}. If he or she doesn't, that player taps all lands with mana abilities he or she controls and empties his or her mana pool.
p803
aVWhenever a player casts an enchantment spell, counter it.
p804
ag663
ag663
ag663
aV{3}{W}, Sacrifice Priest of Iroas: Destroy target enchantment.
p805
aVDestroy target creature with flying.
p806
aVEnchant creature<br>Enchanted creature has "{T}: This creature deals 1 damage to target creature or player."
p807
aV<i>(Start the game with this conspiracy face up in the command zone.)</i><br>You are the starting player. If multiple players would be the starting player, one of those players is chosen at random.
p808
aVPut a 2/2 green Wolf creature token onto the battlefield.<br>Morbid- Put three 2/2 green Wolf creature tokens onto the battlefield instead if a creature died this turn.
p809
aV{T}: Add {1} to your mana pool. If you control an Urza's Power-Plant and an Urza's Tower, add {2} to your mana pool instead.
p810
aVFear <i>(This creature can't be blocked except by artifact creatures and/or black creatures.)</i>
p811
aVSalt Marsh enters the battlefield tapped.<br>{T}: Add {U} or {B} to your mana pool.
p812
aV{T}: Prevent the next 1 damage that would be dealt to target creature or player this turn.
p813
aVWhen Serpent Warrior enters the battlefield, you lose 3 life.
p814
aVFlying<br>Vigilance <i>(Attacking doesn't cause this creature to tap.)</i>
p815
aVDestroy target artifact.
p816
aVFlying<br>{R}: Shivan Dragon gets +1/+0 until end of turn.
p817
aV{B}, {T}, Discard a card: Target creature gets -1/-1 until end of turn.
p818
aVEnchant creature<br>Enchanted creature has protection from the colors of permanents you control. This effect doesn't remove Pledge of Loyalty.
p819
aVAt the beginning of your upkeep, Plague Spitter deals 1 damage to each creature and each player.<br>When Plague Spitter dies, Plague Spitter deals 1 damage to each creature and each player.
p820
aVDestroy target nonblack creature and target land. They can't be regenerated.
p821
ag663
ag663
ag663
ag663
aV{6}, {T}: Search your library for a card and put that card into your hand. Then shuffle your library.
p822
aV{B}{B}{B}, {T}: Target opponent reveals his or her hand and discards a creature card at random. Activate this ability only during your turn.
p823
aVReturn target creature card from your graveyard to your hand.
p824
aVEnchant creature <i>(Target a creature as you cast this. This card enters the battlefield attached to that creature.)</i><br>{G}: Regenerate enchanted creature. <i>(The next time that creature would be destroyed this turn, it isn't. Instead tap it, remove all damage from it, and remove it from combat.)</i>
p825
aVCounter target creature spell.
p826
aVThe next time a source of your choice would deal damage to you this turn, prevent that damage. You gain life equal to the damage prevented this way.
p827
ag663
ag663
aVDestroy target creature with flying.
p828
aV{T}, Pay 1 life, Sacrifice Polluted Delta: Search your library for an Island or Swamp card and put it onto the battlefield. Then shuffle your library.
p829
ag663
ag663
ag663
aVDestroy target creature. It can't be regenerated. Its controller reveals cards from the top of his or her library until he or she reveals a creature card. The player puts that card onto the battlefield, then shuffles all other cards revealed this way into his or her library.
p830
aVIf you control an artifact, a creature, an enchantment, and a land, you can't lose the game and your opponents can't win the game.
p831
aVIf you control an artifact, a creature, an enchantment, and a land, you can't lose the game and your opponents can't win the game.
p832
aVExile target card from a graveyard.<br>Flashback {W} <i>(You may cast this card from your graveyard for its flashback cost. Then exile it.)</i>
p833
ag662
ag662
aV{T}, Sacrifice Black Lotus: Add three mana of any one color to your mana pool.
p834
aVEnchant artifact<br>As long as enchanted artifact isn't a creature, it's an artifact creature with power and toughness each equal to its converted mana cost.
p835
aVAt the beginning of each end step, put a corpse counter on Scavenging Ghoul for each creature that died this turn.<br>Remove a corpse counter from Scavenging Ghoul: Regenerate Scavenging Ghoul.
p836
ag662
aVPolluted Mire enters the battlefield tapped.<br>{T}: Add {B} to your mana pool.<br>Cycling {2} <i>({2}, Discard this card: Draw a card.)</i>
p837
aV{T}: Target creature loses flying until end of turn.
p838
aVDestroy all creatures target opponent controls. You lose 2 life for each creature destroyed this way.
p839
aVWhenever a player casts a spell from his or her hand, that player exiles it, then exiles cards from the top of his or her library until he or she exiles a card that shares a card type with it. That player may cast that card without paying its mana cost. Then he or she puts all cards exiled with Possibility Storm on the bottom of his or her library in a random order.
p840
aVCreature spells you cast cost up to {2} less to cast.
p841
aVFlash<br>When Plaxmanta enters the battlefield, creatures you control gain shroud until end of turn. <i>(They can't be the targets of spells or abilities.)</i><br>When Plaxmanta enters the battlefield, sacrifice it unless {G} was spent to cast it.
p842
aVEnchant creature<br>Enchanted creature doesn't untap during its controller's untap step.<br>Forecast- {W}{U}, Reveal Plumes of Peace from your hand: Tap target creature. <i>(Activate this ability only during your upkeep and only once each turn.)</i>
p843
aVGraft 3 <i>(This creature enters the battlefield with three +1/+1 counters on it. Whenever another creature enters the battlefield, you may move a +1/+1 counter from this creature onto it.)</i><br>{2}: Target creature with a +1/+1 counter on it gains shroud until end of turn. <i>(It can't be the target of spells or abilities.)</i>
p844
aV{B}, Sacrifice a creature: Target creature gets -1/-1 until end of turn.
p845
aVFlying, first strike
p846
ag663
ag663
ag663
ag710
aVFlash<br>Any player may play Sliver cards as though they had flash.
p847
aV{T}: Prodigal Pyromancer deals 1 damage to target creature or player.
p848
aVProtean Hydra enters the battlefield with X +1/+1 counters on it.<br>If damage would be dealt to Protean Hydra, prevent that damage and remove that many +1/+1 counters from it.<br>Whenever a +1/+1 counter is removed from Protean Hydra, put two +1/+1 counters on it at the beginning of the next end step.
p849
aVAdd {R}{R}{R} to your mana pool.
p850
ag662
ag662
ag662
aVCast Warrior's Stand only during the declare attackers step and only if you've been attacked this step.<br>Creatures you control get +2/+2 until end of turn.
p851
aVForestwalk <i>(This creature is unblockable as long as defending player controls a Forest.)</i>
p852
ag662
ag663
aVWhen Thundering Wurm enters the battlefield, sacrifice it unless you discard a land card.
p853
aVFlying <i>(This creature can't be blocked except by creatures with flying or reach.)</i>
p854
aVYou may play up to three additional lands this turn.
p855
ag710
ag710
aV{3}{W}: Target opponent reveals a card at random from his or her hand. You gain life equal to that card's converted mana cost.
p856
aV{3}{U}: Target opponent reveals a card at random from his or her hand. If it's an instant or sorcery card, exile it. You may cast it without paying its mana cost for as long as it remains exiled. <i>(If it has X in its mana cost, X is 0.)</i> At the beginning of the next end step, if you haven't cast it, return it to its owner's hand. Activate this ability only any time you could cast a sorcery.
p857
aV{3}{B}: Target opponent reveals a card at random from his or her hand. Target creature gets -X/-X until end of turn, where X is the revealed card's converted mana cost. Activate this ability only any time you could cast a sorcery.
p858
aV{3}{R}: Target opponent reveals a card at random from his or her hand. Planeswalker's Fury deals damage equal to that card's converted mana cost to that player. Activate this ability only any time you could cast a sorcery.
p859
aV{3}{G}: Target opponent reveals a card at random from his or her hand. Target creature gets +X/+X until end of turn, where X is the revealed card's converted mana cost.
p860
aVEach player chooses a land he or she controls of each basic land type. Return those lands to their owners' hands.
p861
asS'costs'
p862
(lp863
S'0'
p864
ag864
ag864
ag864
ag864
ag864
aV{1}{U}
p865
ag864
ag864
ag864
aV{2}{W}
p866
ag864
aV{2}{B}
p867
ag864
ag864
ag864
ag864
aV{1}{W}
p868
aV{4}{G}
p869
ag864
ag864
ag864
ag864
ag864
ag864
ag864
ag864
ag864
aV{3}{W}
p870
aV{2}{G}{G}{G}
p871
ag864
ag864
ag864
ag864
aV{2}{B}
p872
ag864
ag864
ag864
ag864
ag864
ag864
ag864
ag864
aV{3}{W}{W}
p873
aV{1}
p874
ag864
aV{2}
p875
aV{1}{B}
p876
ag864
ag864
ag864
aV{4}{R}{R}
p877
ag864
aV{1}{W}
p878
aV{2}{W}
p879
ag864
ag864
ag864
ag864
aV{2}{W}
p880
aV{W}
p881
ag864
ag864
ag864
ag864
aV{7}
p882
aV{B}
p883
aV{7}{B}{B}
p884
ag864
aV{3}{U}
p885
ag864
ag864
ag864
ag864
ag864
ag864
ag864
ag864
aV{1}{W}{W}
p886
aV{W/U}{W/U}{W/U}
p887
ag864
ag864
aV{2}
p888
aV{3}{G}{G}
p889
ag864
ag864
aV{3}{B}{B}
p890
ag864
ag864
ag864
ag864
aV{2}{B}
p891
ag864
ag864
ag864
ag864
aV{B}
p892
aV{3}{U}
p893
aV{B}
p894
aV{7}{B}{B}
p895
ag864
ag864
ag864
ag864
ag864
ag864
ag864
ag864
ag864
ag864
ag864
ag864
ag864
ag864
ag864
ag864
ag864
ag864
ag864
ag864
ag864
ag864
ag864
ag864
aV{4}{B}
p896
aV{4}{G}
p897
aV{3}{G}{G}
p898
ag864
aV{3}
p899
ag864
ag864
ag864
ag864
aV{3}
p900
ag864
ag864
ag864
ag864
ag864
aV{4}{R}
p901
aV{2}{W}
p902
aV{2}{B}{B}
p903
ag864
ag864
ag864
ag864
ag864
ag864
ag864
ag864
ag864
aV{1}{B}
p904
aV{4}{G}
p905
aV{2}{B}
p906
ag864
ag864
ag864
ag864
ag864
ag864
ag864
aV{3}{U}
p907
ag864
aV{3}{W}
p908
ag864
ag864
ag864
ag864
ag864
ag864
ag864
ag864
ag864
ag864
ag864
aV{4}{G}{G}{G}
p909
ag864
ag864
ag864
ag864
aV{7}
p910
ag864
ag864
ag864
ag864
ag864
ag864
ag864
ag864
aV{B}
p911
ag864
ag864
ag864
ag864
aV{1}{B}
p912
aV{7}{B}{B}
p913
ag864
aV{3}{B}
p914
aV{1}{W}
p915
aV{B}
p916
ag864
ag864
ag864
ag864
aV{2}{R}
p917
aV{W/U}{W/U}{W/U}
p918
aV{6}{B}
p919
ag864
ag864
ag864
ag864
ag864
ag864
ag864
ag864
ag864
ag864
aV{1}{B}
p920
aV{5}{U}
p921
aV{4}{G}
p922
ag864
ag864
ag864
ag864
ag864
ag864
ag864
ag864
aV{W}
p923
aV{W}
p924
ag864
ag864
ag864
aV{W}{U}
p925
aV{B}
p926
aV{1}{W}
p927
ag864
ag864
ag864
ag864
ag864
ag864
ag864
ag864
aV{4}{R}
p928
aV{B}
p929
aV{U}{U}
p930
aV{3}{U}
p931
aV{3}{G}{G}
p932
aV{6}
p933
aV{B}
p934
aV{7}{B}{B}
p935
ag864
ag864
ag864
ag864
aV{1}{B}
p936
aV{1}{W}
p937
aV{2}{B}
p938
aV{4}{B}{R}
p939
ag864
ag864
ag864
ag864
aV{6}
p940
aV{2}{B}
p941
ag864
ag864
ag864
ag864
ag864
ag864
aV{1}{G}
p942
ag864
ag864
ag864
ag864
ag864
ag864
ag864
ag864
ag864
ag864
ag864
aV{2}{B}
p943
ag864
ag864
aV{4}{G}
p944
aV{6}
p945
ag864
aV{G}{G}{U}{U}
p946
aV{6}
p947
aV{1}{U}
p948
aV{1}{W}{U}
p949
aV{1}{G}{U}
p950
aV{B}
p951
aV{3}{W}{W}
p952
ag864
ag864
ag864
ag864
ag864
ag864
aV{3}{G}{G}
p953
aV{1}{W}
p954
ag864
ag864
ag864
ag864
ag864
ag864
ag864
aV{1}{G}
p955
ag864
ag864
ag864
ag864
aV{2}{W}
p956
aV{2}{U}
p957
aV{2}{B}
p958
aV{2}{R}
p959
aV{2}{G}
p960
aV{2}{U}
p961
asS'names'
p962
(lp963
VPlains
p964
aVPlains
p965
aVPlains
p966
aVPlains
p967
aVPlains
p968
aVPlains
p969
aVPlumeveil
p970
aVPlains
p971
aVPlains
p972
aVPlains
p973
aVPlummet
p974
aVPlains
p975
aVPlague Rats
p976
aVPlains
p977
aVPlains
p978
aVPlains
p979
aVPlateau
p980
aVPlow Through Reito
p981
aVPlated Rootwalla
p982
aVPlains
p983
aVPlains
p984
aVPlains
p985
aVPlains
p986
aVPlains
p987
aVPlains
p988
aVPlains
p989
aVPlains
p990
aVPlains
p991
aVPlanar Cleansing
p992
aVPlummet
p993
aVPlains
p994
aVPlains
p995
aVPlains
p996
aVPlains
p997
aVPlague Rats
p998
aVPlains
p999
aVPlains
p1000
aVPlains
p1001
aVPlains
p1002
aVPlains
p1003
aVPlains
p1004
aVPlains
p1005
aVPlains
p1006
aVPlover Knights
p1007
aVPlague Stinger
p1008
aVPlains
p1009
aVPlated Seastrider
p1010
aVPlatinum Emperion
p1011
aVPlains
p1012
aVPlains
p1013
aVPlains
p1014
aVPlea for Guidance
p1015
aVPlains
p1016
aVPlanar Cleansing
p1017
aVPlatinum Angel
p1018
aVPlains
p1019
aVPlains
p1020
aVPlains
p1021
aVPlains
p1022
aVPlanar Cleansing
p1023
aVPlummet
p1024
aVPlains
p1025
aVPlains
p1026
aVPlains
p1027
aVPlains
p1028
aVPlatinum Angel
p1029
aVPlague Beetle
p1030
aVPlague Wind
p1031
aVPlains
p1032
aVPlagiarize
p1033
aVPlains
p1034
aVPlains
p1035
aVPlains
p1036
aVPlains
p1037
aVPlains
p1038
aVPlains
p1039
aVPlains
p1040
aVPlateau
p1041
aVPlea for Power
p1042
aVPlumeveil
p1043
aVPlains
p1044
aVPlains
p1045
aVPlague Myr
p1046
aVPlaguemaw Beast
p1047
aVPlains
p1048
aVPlains
p1049
aVPlanar Despair
p1050
aVPlains
p1051
aVPlains
p1052
aVPlains
p1053
aVPlateau
p1054
aVPlague Rats
p1055
aVPlains
p1056
aVPlains
p1057
aVPlains
p1058
aVPlateau
p1059
aVPlagued Rusalka
p1060
aVPlagiarize
p1061
aVPlague Beetle
p1062
aVPlague Wind
p1063
aVPlains
p1064
aVPlains
p1065
aVPlains
p1066
aVPlains
p1067
aVPlains
p1068
aVPlains
p1069
aVPlains
p1070
aVPlanewide Disaster
p1071
aVPlains
p1072
aVPlains
p1073
aVPlains
p1074
aVPlains
p1075
aVPlains
p1076
aVPlains
p1077
aVPlains
p1078
aVPlains
p1079
aVPlains
p1080
aVPlains
p1081
aVPlains
p1082
aVPlains
p1083
aVPlains
p1084
aVPlains
p1085
aVPlains
p1086
aVPlains
p1087
aVPlague Dogs
p1088
aVPlated Spider
p1089
aVPlow Under
p1090
aVPlains
p1091
aVPlague Boiler
p1092
aVPlains
p1093
aVPlains
p1094
aVPlains
p1095
aVPlains
p1096
aVPlague Boiler
p1097
aVPlains
p1098
aVPlains
p1099
aVPlains
p1100
aVPlains
p1101
aVPlains
p1102
aVPlunder
p1103
aVPlated Pegasus
p1104
aVPlague Sliver
p1105
aVPlains
p1106
aVPlains
p1107
aVPlains
p1108
aVPlains
p1109
aVPlains
p1110
aVPlains
p1111
aVPlains
p1112
aVPlains
p1113
aVPlains
p1114
aVPlaguebearer
p1115
aVPlated Rootwalla
p1116
aVPlague Rats
p1117
aVPlains
p1118
aVPlains
p1119
aVPlains
p1120
aVPlateau
p1121
aVPlains
p1122
aVPlains
p1123
aVPlains
p1124
aVPlagiarize
p1125
aVPlains
p1126
aVPlated Geopede
p1127
aVPlains
p1128
aVPlains
p1129
aVPlains
p1130
aVPlains
p1131
aVPlains
p1132
aVPlains
p1133
aVPlains
p1134
aVPlains
p1135
aVPlains
p1136
aVPlains
p1137
aVPlains
p1138
aVPlated Slagwurm
p1139
aVPlains
p1140
aVPlains
p1141
aVPlains
p1142
aVPlains
p1143
aVPlatinum Angel
p1144
aVPlains
p1145
aVPlains
p1146
aVPlains
p1147
aVPlains
p1148
aVPlains
p1149
aVPlains
p1150
aVPlains
p1151
aVPlains
p1152
aVPlague Beetle
p1153
aVPlains
p1154
aVPlains
p1155
aVPlains
p1156
aVPlains
p1157
aVPlague Fiend
p1158
aVPlague Wind
p1159
aVPlains
p1160
aVPlummet
p1161
aVPlanar Collapse
p1162
aVPlague Beetle
p1163
aVPlains
p1164
aVPlains
p1165
aVPlains
p1166
aVPlains
p1167
aVPlanar Chaos
p1168
aVPlumeveil
p1169
aVPlague of Vermin
p1170
aVPlains
p1171
aVPlains
p1172
aVPlains
p1173
aVPlains
p1174
aVPlains
p1175
aVPlains
p1176
aVPlains
p1177
aVPlains
p1178
aVPlains
p1179
aVPlains
p1180
aVPlunge into Darkness
p1181
aVPlasma Elemental
p1182
aVPlated Wurm
p1183
aVPlains
p1184
aVPlains
p1185
aVPlains
p1186
aVPlains
p1187
aVPlains
p1188
aVPlains
p1189
aVPlains
p1190
aVPlains
p1191
aVPlated Sliver
p1192
aVPlanar Guide
p1193
aVPlains
p1194
aVPlains
p1195
aVPlains
p1196
aVPlated Geopede
p1197
aVPlanar Void
p1198
aVPlanar Birth
p1199
aVPlains
p1200
aVPlains
p1201
aVPlains
p1202
aVPlains
p1203
aVPlains
p1204
aVPlains
p1205
aVPlains
p1206
aVPlains
p1207
aVPlagued Rusalka
p1208
aVPlated Seastrider
p1209
aVPlea for Power
p1210
aVPlummet
p1211
aVPlow Under
p1212
aVPlanar Portal
p1213
aVPlague Beetle
p1214
aVPlague Wind
p1215
aVPlains
p1216
aVPlains
p1217
aVPlains
p1218
aVPlains
p1219
aVPlague Witch
p1220
aVPledge of Loyalty
p1221
aVPlague Spitter
p1222
aVPlague Spores
p1223
aVPlains
p1224
aVPlains
p1225
aVPlains
p1226
aVPlains
p1227
aVPlanar Portal
p1228
aVPlague Rats
p1229
aVPlains
p1230
aVPlains
p1231
aVPlains
p1232
aVPlains
p1233
aVPlains
p1234
aVPlains
p1235
aVPlummet
p1236
aVPlains
p1237
aVPlains
p1238
aVPlains
p1239
aVPlains
p1240
aVPlains
p1241
aVPlatinum Angel Avatar
p1242
aVPlatinum Angel Avatar
p1243
aVPlains
p1244
aVPlains
p1245
aVPlains
p1246
aVPlateau
p1247
aVPlague Rats
p1248
aVPlains
p1249
aVPlains
p1250
aVPlated Spider
p1251
aVPlanar Gate
p1252
aVPlateau
p1253
aVPlasm Capture
p1254
aVPlanar Gate
p1255
aVPlaxmanta
p1256
aVPlumes of Peace
p1257
aVPlaxcaster Frogling
p1258
aVPlagued Rusalka
p1259
aVPlover Knights
p1260
aVPlains
p1261
aVPlains
p1262
aVPlains
p1263
aVPlains
p1264
aVPlains
p1265
aVPlains
p1266
aVPlatinum Angel
p1267
aVPlummet
p1268
aVPlains
p1269
aVPlains
p1270
aVPlains
p1271
aVPlains
p1272
aVPlains
p1273
aVPlains
p1274
aVPlains
p1275
aVPlant Elemental
p1276
aVPlains
p1277
aVPlains
p1278
aVPlains
p1279
aVPlains
p1280
aVPlaneswalker's Mirth
p1281
aVPlaneswalker's Mischief
p1282
aVPlaneswalker's Scorn
p1283
aVPlaneswalker's Fury
p1284
aVPlaneswalker's Favor
p1285
aVPlanar Overlay
p1286
asS'rares'
p1287
(lp1288
VLand
p1289
aVLand
p1290
aVLand
p1291
aVLand
p1292
aVLand
p1293
aVLand
p1294
aVUncommon
p1295
aVLand
p1296
aVLand
p1297
aVLand
p1298
aVCommon
p1299
aVLand
p1300
aVCommon
p1301
aVLand
p1302
aVLand
p1303
aVLand
p1304
aVRare
p1305
aVCommon
p1306
aVCommon
p1307
aVLand
p1308
aVLand
p1309
aVLand
p1310
aVLand
p1311
aVLand
p1312
aVLand
p1313
aVLand
p1314
aVLand
p1315
aVLand
p1316
aVRare
p1317
aVCommon
p1318
aVLand
p1319
aVLand
p1320
aVLand
p1321
aVLand
p1322
aVCommon
p1323
aVLand
p1324
aVLand
p1325
aVLand
p1326
aVLand
p1327
aVLand
p1328
aVLand
p1329
aVLand
p1330
aVLand
p1331
aVCommon
p1332
aVCommon
p1333
aVLand
p1334
aVCommon
p1335
aVMythic Rare
p1336
aVLand
p1337
aVLand
p1338
aVLand
p1339
aVRare
p1340
aVLand
p1341
aVRare
p1342
aVMythic Rare
p1343
aVLand
p1344
aVLand
p1345
aVLand
p1346
aVLand
p1347
aVRare
p1348
aVCommon
p1349
aVLand
p1350
aVLand
p1351
aVLand
p1352
aVLand
p1353
aVRare
p1354
aVCommon
p1355
aVRare
p1356
aVLand
p1357
aVRare
p1358
aVLand
p1359
aVLand
p1360
aVLand
p1361
aVLand
p1362
aVLand
p1363
aVLand
p1364
aVLand
p1365
aVRare
p1366
aVRare
p1367
aVUncommon
p1368
aVLand
p1369
aVLand
p1370
aVUncommon
p1371
aVUncommon
p1372
aVLand
p1373
aVLand
p1374
aVRare
p1375
aVLand
p1376
aVLand
p1377
aVLand
p1378
aVRare
p1379
aVCommon
p1380
aVLand
p1381
aVLand
p1382
aVLand
p1383
aVRare
p1384
aVUncommon
p1385
aVRare
p1386
aVCommon
p1387
aVRare
p1388
aVLand
p1389
aVLand
p1390
aVLand
p1391
aVLand
p1392
aVLand
p1393
aVLand
p1394
aVLand
p1395
aVCommon
p1396
aVLand
p1397
aVLand
p1398
aVLand
p1399
aVLand
p1400
aVLand
p1401
aVLand
p1402
aVLand
p1403
aVLand
p1404
aVLand
p1405
aVLand
p1406
aVLand
p1407
aVLand
p1408
aVLand
p1409
aVLand
p1410
aVLand
p1411
aVLand
p1412
aVUncommon
p1413
aVCommon
p1414
aVRare
p1415
aVLand
p1416
aVRare
p1417
aVLand
p1418
aVLand
p1419
aVLand
p1420
aVLand
p1421
aVRare
p1422
aVLand
p1423
aVLand
p1424
aVLand
p1425
aVLand
p1426
aVLand
p1427
aVCommon
p1428
aVUncommon
p1429
aVRare
p1430
aVLand
p1431
aVLand
p1432
aVLand
p1433
aVLand
p1434
aVLand
p1435
aVLand
p1436
aVLand
p1437
aVLand
p1438
aVLand
p1439
aVRare
p1440
aVCommon
p1441
aVCommon
p1442
aVLand
p1443
aVLand
p1444
aVLand
p1445
aVRare
p1446
aVLand
p1447
aVLand
p1448
aVLand
p1449
aVRare
p1450
aVLand
p1451
aVCommon
p1452
aVLand
p1453
aVLand
p1454
aVLand
p1455
aVLand
p1456
aVLand
p1457
aVLand
p1458
aVLand
p1459
aVLand
p1460
aVLand
p1461
aVLand
p1462
aVLand
p1463
aVRare
p1464
aVLand
p1465
aVLand
p1466
aVLand
p1467
aVLand
p1468
aVRare
p1469
aVLand
p1470
aVLand
p1471
aVLand
p1472
aVLand
p1473
aVLand
p1474
aVLand
p1475
aVLand
p1476
aVLand
p1477
aVCommon
p1478
aVLand
p1479
aVLand
p1480
aVLand
p1481
aVLand
p1482
aVCommon
p1483
aVRare
p1484
aVLand
p1485
aVCommon
p1486
aVRare
p1487
aVCommon
p1488
aVLand
p1489
aVLand
p1490
aVLand
p1491
aVLand
p1492
aVUncommon
p1493
aVUncommon
p1494
aVRare
p1495
aVLand
p1496
aVLand
p1497
aVLand
p1498
aVLand
p1499
aVLand
p1500
aVLand
p1501
aVLand
p1502
aVLand
p1503
aVLand
p1504
aVLand
p1505
aVRare
p1506
aVUncommon
p1507
aVCommon
p1508
aVLand
p1509
aVLand
p1510
aVLand
p1511
aVLand
p1512
aVLand
p1513
aVLand
p1514
aVLand
p1515
aVLand
p1516
aVCommon
p1517
aVRare
p1518
aVLand
p1519
aVLand
p1520
aVLand
p1521
aVCommon
p1522
aVUncommon
p1523
aVRare
p1524
aVLand
p1525
aVLand
p1526
aVLand
p1527
aVLand
p1528
aVLand
p1529
aVLand
p1530
aVLand
p1531
aVLand
p1532
aVUncommon
p1533
aVCommon
p1534
aVRare
p1535
aVCommon
p1536
aVRare
p1537
aVRare
p1538
aVCommon
p1539
aVRare
p1540
aVLand
p1541
aVLand
p1542
aVLand
p1543
aVLand
p1544
aVCommon
p1545
aVUncommon
p1546
aVUncommon
p1547
aVCommon
p1548
aVLand
p1549
aVLand
p1550
aVLand
p1551
aVLand
p1552
aVRare
p1553
aVCommon
p1554
aVLand
p1555
aVLand
p1556
aVLand
p1557
aVLand
p1558
aVLand
p1559
aVLand
p1560
aVCommon
p1561
aVLand
p1562
aVLand
p1563
aVLand
p1564
aVLand
p1565
aVLand
p1566
aVSpecial
p1567
aVSpecial
p1568
aVLand
p1569
aVLand
p1570
aVLand
p1571
aVRare
p1572
aVCommon
p1573
aVLand
p1574
aVLand
p1575
aVCommon
p1576
aVUncommon
p1577
aVRare
p1578
aVRare
p1579
aVRare
p1580
aVUncommon
p1581
aVCommon
p1582
aVUncommon
p1583
aVUncommon
p1584
aVCommon
p1585
aVLand
p1586
aVLand
p1587
aVLand
p1588
aVLand
p1589
aVLand
p1590
aVLand
p1591
aVMythic Rare
p1592
aVCommon
p1593
aVLand
p1594
aVLand
p1595
aVLand
p1596
aVLand
p1597
aVLand
p1598
aVLand
p1599
aVLand
p1600
aVUncommon
p1601
aVLand
p1602
aVLand
p1603
aVLand
p1604
aVLand
p1605
aVRare
p1606
aVRare
p1607
aVRare
p1608
aVRare
p1609
aVRare
p1610
aVRare
p1611
asS'artists'
p1612
(lp1613
VTom Wnerstrand
p1614
aVDouglas Shuler
p1615
aVJohn Avon
p1616
aVJohn Avon
p1617
aVMichael Komarck
p1618
aVMatthew Mitchell
p1619
aVNils Hamm
p1620
aVRob Alexander
p1621
aVHoward Lyon
p1622
aVCharles Urbach
p1623
ag662
ag662
aVAnson Maddocks
p1624
aVJesper Myrfors
p1625
aVJesper Myrfors
p1626
aVJesper Myrfors
p1627
aVDrew Tucker
p1628
aVRon Spencer
p1629
aVRandy Elliott
p1630
aVDouglas Shuler
p1631
aVDouglas Shuler
p1632
aVDouglas Shuler
p1633
aVHe Jiancheng
p1634
aVHe Jiancheng
p1635
aVHe Jiancheng
p1636
aVPat Morrissey
p1637
aVPat Morrissey
p1638
aVPat Morrissey
p1639
aVMichael Komarck
p1640
aVWayne England
p1641
aVNoah Bradley
p1642
aVNils Hamm
p1643
aVCharles Urbach
p1644
aVMike Bierek
p1645
aVAnson Maddocks
p1646
aVJesper Myrfors
p1647
aVJesper Myrfors
p1648
aVJesper Myrfors
p1649
aVZoltan Boros & Gabor Szikszai
p1650
aVScott Bailey
p1651
aVScott Bailey
p1652
aVMichael Komarck
p1653
aVMichael Komarck
p1654
aVQuinton Hoover
p1655
aVRyan Pancoast
p1656
aVJames Paick
p1657
aVIzzy
p1658
aVChris Rahn
p1659
aVJames Paick
p1660
aVJames Paick
p1661
aVJames Paick
p1662
aVTerese Nielsen
p1663
aVJohn Avon
p1664
aVMichael Komarck
p1665
aVBrom
p1666
aVRob Alexander
p1667
aVDon Hazeltine
p1668
aVRyan Pancoast
p1669
aVJonas De Ro
p1670
aVMichael Komarck
p1671
aVPete Venters
p1672
aVTerese Nielsen
p1673
aVTerese Nielsen
p1674
aVTerese Nielsen
p1675
aVTerese Nielsen
p1676
aVBrom
p1677
aVTom Fleming
p1678
aVAlan Pollack
p1679
aVRob Alexander
p1680
aVJeremy Jarvis
p1681
aVJohn Avon
p1682
aVGreg Staples
p1683
aVRichard Wright
p1684
aVTerry Springer
p1685
aVScott Bailey
p1686
aVDana Knutson
p1687
aVEdward P. Beard, Jr.
p1688
aVNoah Bradley
p1689
aVJohn Severin Brassell
p1690
ag662
aVJames Paick
p1691
aVJames Paick
p1692
ag662
ag662
aVFred Fields
p1693
aVDouglas Shuler
p1694
aVMike Sass
p1695
aVHe Jiancheng
p1696
aVHe Jiancheng
p1697
aVCornelius Brudi
p1698
aVEdward P. Beard, Jr.
p1699
aVAnson Maddocks
p1700
aVJesper Myrfors
p1701
aVJesper Myrfors
p1702
aVJesper Myrfors
p1703
aVDrew Tucker
p1704
aVAlex Horley-Orlandelli
p1705
aVJeremy Jarvis
p1706
aVTom Fleming
p1707
aVAlan Pollack
p1708
aVJohn Avon
p1709
aVMatthew Mitchell
p1710
aVJohn Avon
p1711
aVFred Fields
p1712
aVEytan Zana
p1713
aVJung Park
p1714
aVJames Paick
p1715
ag662
ag662
ag662
ag662
ag662
ag662
aVAdam Paquette
p1716
aVJung Park
p1717
aVEytan Zana
p1718
aVRob Alexander
p1719
aVMatthew Mitchell
p1720
aVDavid Martin
p1721
aVDavid Day
p1722
aVGreg Staples
p1723
aVGreg Staples
p1724
aVGreg Staples
p1725
aVGreg Staples
p1726
aVChippy and Matthew Wilson
p1727
aVRon Spencer
p1728
aVEdward P. Beard, Jr.
p1729
aVAdam Paquette
p1730
aVMark Tedin
p1731
aVStephan Martiniere
p1732
aVChristopher Moeller
p1733
aVAnthony S. Waters
p1734
aVRichard Wright
p1735
aVMark Tedin
p1736
aVMichael Komarck
p1737
aVAlan Pollack
p1738
aVDon Hazeltine
p1739
aVEric Peterson
p1740
aVRob Alexander
p1741
aVThomas M. Baxa
p1742
aVGreg Hildebrandt
p1743
aVDave Allsop
p1744
aVRob Alexander
p1745
aVCraig Mullins
p1746
aVJustin Sweet
p1747
aVRichard Wright
p1748
aVYeong-Hao Han
p1749
aVRichard Wright
p1750
aVJohn Avon
p1751
aVAdam Paquette
p1752
aVRichard Wright
p1753
aVRon Spencer
p1754
aVRandy Elliott
p1755
aVAnson Maddocks
p1756
aVJesper Myrfors
p1757
aVJesper Myrfors
p1758
aVJesper Myrfors
p1759
aVDrew Tucker
p1760
aVChristopher Rush
p1761
aVChristopher Rush
p1762
aVChristopher Rush
p1763
aVBen Thompson
p1764
aVJung Park
p1765
aVEric Deschamps
p1766
aVJohn Avon
p1767
aVJohn Avon
p1768
aVJung Park
p1769
aVVronique Meignaud
p1770
aVVronique Meignaud
p1771
aVVincent Proce
p1772
aVVincent Proce
p1773
aVTom Wnerstrand
p1774
aVTom Wnerstrand
p1775
aVDouglas Shuler
p1776
aVFred Fields
p1777
aVJustin Sweet
p1778
aVRob Alexander
p1779
aVMark Tedin
p1780
aVMartina Pilcerova
p1781
aVJohn Avon
p1782
aVBrom
p1783
aVRob Alexander
p1784
aVMichael Komarck
p1785
aVMichael Komarck
p1786
aVMartina Pilcerova
p1787
aVZoltan Boros & Gabor Szikszai
p1788
aVMichael Komarck
p1789
aVMichael Komarck
p1790
aVChippy
p1791
aVMatt Cavotta
p1792
aVScott Bailey
p1793
aVRob Alexander
p1794
aVRob Alexander
p1795
aVJohn Avon
p1796
aVDavid Martin
p1797
aVAlan Pollack
p1798
aVNils Hamm
p1799
aVPete Venters
p1800
aVMark Zug
p1801
aVTom Fleming
p1802
aVJohn Avon
p1803
aVJohn Avon
p1804
aVJohn Avon
p1805
aVJohn Avon
p1806
aVRon Spencer
p1807
aVNils Hamm
p1808
aVCarl Critchlow
p1809
aVOmar Rayyan
p1810
aVLars Grant-West
p1811
aVDave Kendall
p1812
aVLarry MacDougall
p1813
aVJames Paick
p1814
ag662
aVTom Wnerstrand
p1815
aVFred Fields
p1816
aVDouglas Shuler
p1817
aVTom Wnerstrand
p1818
aVJustin Sweet
p1819
aVKev Walker
p1820
aVDaniel Gelon
p1821
aVFred Fields
p1822
aVFred Fields
p1823
aVFred Fields
p1824
aVMartina Pilcerova
p1825
aVLarry MacDougall
p1826
aVRichard Wright
p1827
aVDave Kendall
p1828
aVStephan Martiniere
p1829
aVGreg Staples
p1830
aVEric Peterson
p1831
aVJohn Avon
p1832
aVJames Paick
p1833
aVMartina Pilcerova
p1834
ag662
aVAndrew Goldhawk
p1835
aVAdam Rex
p1836
aVRob Alexander
p1837
aVRob Alexander
p1838
aVRob Alexander
p1839
aVRob Alexander
p1840
aVJesper Myrfors
p1841
aVJesper Myrfors
p1842
aVJesper Myrfors
p1843
aVSteven Belledin
p1844
aVAlex Horley-Orlandelli
p1845
aVIzzy
p1846
aVJohn Severin Brassell
p1847
aVPete Venters
p1848
aVRob Alexander
p1849
aVMark Tedin
p1850
aVMatt Cavotta
p1851
aVAlan Pollack
p1852
aVJohn Avon
p1853
aVMatthew Mitchell
p1854
aVJohn Avon
p1855
aVFred Fields
p1856
aVNelson DeCastro
p1857
aVFranz Vohwinkel
p1858
aVChippy
p1859
aVRandy Gallegos
p1860
aVJohn Avon
p1861
aVBen Thompson
p1862
aVD. J. Cleland-Hura
p1863
aVScott Bailey
p1864
aVMark Tedin
p1865
aVAnson Maddocks
p1866
aVPat Morrissey
p1867
aVPat Morrissey
p1868
aVPat Morrissey
p1869
aVPat Morrissey
p1870
aVFred Fields
p1871
aVFred Fields
p1872
aVPete Venters
p1873
aVSam Burley
p1874
aVTom Wnerstrand
p1875
aVTom Wnerstrand
p1876
aVTom Wnerstrand
p1877
aVTom Wnerstrand
p1878
aVUDON
p1879
aVUDON
p1880
aVAdam Paquette
p1881
aVJung Park
p1882
aVEytan Zana
p1883
aVDrew Tucker
p1884
aVAnson Maddocks
p1885
aVJesper Myrfors
p1886
aVJesper Myrfors
p1887
aVRon Spencer
p1888
aVMelissa A. Benson
p1889
aVCornelius Brudi
p1890
aVChase Stone
p1891
aVMelissa Benson
p1892
aVAlan Pollack
p1893
aVJustin Sweet
p1894
aVGreg Staples
p1895
aVAlex Horley-Orlandelli
p1896
aVQuinton Hoover
p1897
aVWarren Mahy
p1898
aVFred Fields
p1899
aVLarry MacDougall
p1900
aVOmar Rayyan
p1901
aVTerese Nielsen
p1902
aVJohn Avon
p1903
aVBrom
p1904
aVPete Venters
p1905
aVJohn Avon
p1906
aVD. J. Cleland-Hura
p1907
aVRyan Pancoast
p1908
aVHe Jiancheng
p1909
aVHe Jiancheng
p1910
aVHe Jiancheng
p1911
aVJohn Avon
p1912
aVTed Naifeh
p1913
aVDouglas Shuler
p1914
aVDouglas Shuler
p1915
aVDouglas Shuler
p1916
aVDouglas Shuler
p1917
aVJohn Matson
p1918
aVPete Venters
p1919
aVGlen Angus
p1920
aVChristopher Moeller
p1921
aVRebecca Guay
p1922
aVRon Walotsky
p1923
asS'powers'
p1924
(lp1925
g3
ag3
ag3
ag3
ag3
ag3
ag9
ag3
ag3
ag3
ag3
ag3
ag4
ag3
ag3
ag3
ag3
ag3
ag5
ag3
ag3
ag3
ag3
ag3
ag3
ag3
ag3
ag3
ag3
ag3
ag3
ag3
ag3
ag3
ag9
ag3
ag3
ag3
ag3
ag3
ag3
ag3
ag3
ag5
aV8
p1926
ag3
ag8
ag3
ag3
ag3
ag3
ag3
ag3
ag3
ag3
ag3
ag3
ag3
ag3
ag3
ag3
ag3
ag3
ag3
ag3
ag3
ag7
ag3
ag3
ag3
ag3
ag3
ag3
ag3
ag3
ag3
ag3
ag3
ag3
ag7
ag3
ag3
ag3
ag7
ag3
ag3
ag3
ag3
ag3
ag3
ag3
ag7
ag3
ag3
ag3
ag3
ag7
ag3
ag8
ag3
ag3
ag3
ag3
ag3
ag3
ag3
ag3
ag3
ag3
ag3
ag3
ag3
ag3
ag3
ag3
ag3
ag3
ag3
ag3
ag3
ag3
ag3
ag3
ag3
ag7
ag8
ag3
ag3
ag3
ag3
ag3
ag3
ag3
ag3
ag3
ag3
ag3
ag3
ag3
ag3
ag7
ag5
ag3
ag3
ag3
ag3
ag3
ag3
ag3
ag3
ag3
ag8
ag5
ag4
ag3
ag3
ag3
ag3
ag3
ag3
ag3
ag3
ag3
ag8
ag3
ag3
ag3
ag3
ag3
ag3
ag3
ag3
ag3
ag3
ag3
ag7
ag3
ag3
ag3
ag3
ag3
ag3
ag3
ag3
ag3
ag3
ag3
ag3
ag3
ag8
ag3
ag3
ag3
ag3
ag7
ag3
ag3
ag3
ag3
ag4
ag3
ag3
ag3
ag3
ag3
ag7
ag3
ag3
ag3
ag3
ag3
ag3
ag3
ag3
ag3
ag3
ag3
ag3
ag7
ag4
ag3
ag3
ag3
ag3
ag3
ag3
ag3
ag3
ag7
ag7
ag3
ag3
ag3
ag7
ag3
ag3
ag3
ag3
ag3
ag3
ag3
ag3
ag3
ag3
ag8
ag7
ag3
ag3
ag3
ag3
ag4
ag3
ag3
ag3
ag3
ag3
ag7
ag3
ag8
ag3
ag3
ag3
ag3
ag3
ag3
ag7
ag3
ag3
ag3
ag3
ag3
ag3
ag3
ag3
ag3
ag3
ag3
ag3
ag3
ag3
ag3
ag3
ag3
ag3
ag10
ag3
ag3
ag7
ag3
ag3
ag3
ag3
ag8
ag3
ag7
ag7
ag5
ag3
ag3
ag3
ag3
ag3
ag3
ag3
ag3
ag3
ag3
ag3
ag3
ag3
ag3
ag3
ag5
ag3
ag3
ag3
ag3
ag3
ag3
ag3
ag3
ag3
ag3
asS'types'
p1927
(lp1928
VBasic Land - Plains
p1929
aVBasic Land - Plains
p1930
aVBasic Land - Plains
p1931
aVBasic Land - Plains
p1932
aVBasic Land - Plains
p1933
aVBasic Land - Plains
p1934
aVCreature - Elemental
p1935
aVBasic Land - Plains
p1936
aVBasic Land - Plains
p1937
aVBasic Land - Plains
p1938
aVInstant
p1939
aVBasic Land - Plains
p1940
aVCreature - Rat
p1941
aVBasic Land - Plains
p1942
aVBasic Land - Plains
p1943
aVBasic Land - Plains
p1944
aVLand - Mountain Plains
p1945
aVInstant - Arcane
p1946
aVCreature - Lizard
p1947
aVBasic Land - Plains
p1948
aVBasic Land - Plains
p1949
aVBasic Land - Plains
p1950
aVBasic Land - Plains
p1951
aVBasic Land - Plains
p1952
aVBasic Land - Plains
p1953
aVBasic Land - Plains
p1954
aVBasic Land - Plains
p1955
aVBasic Land - Plains
p1956
aVSorcery
p1957
aVInstant
p1958
aVBasic Land - Plains
p1959
aVBasic Land - Plains
p1960
aVBasic Land - Plains
p1961
aVBasic Land - Plains
p1962
aVCreature - Rat
p1963
aVBasic Land - Plains
p1964
aVBasic Land - Plains
p1965
aVBasic Land - Plains
p1966
aVBasic Land - Plains
p1967
aVBasic Land - Plains
p1968
aVBasic Land - Plains
p1969
aVBasic Land - Plains
p1970
aVBasic Land - Plains
p1971
aVCreature - Kithkin Knight
p1972
aVCreature - Insect Horror
p1973
aVBasic Land - Plains
p1974
aVCreature - Beast
p1975
aVArtifact Creature - Golem
p1976
aVBasic Land - Plains
p1977
aVBasic Land - Plains
p1978
aVBasic Land - Plains
p1979
aVSorcery
p1980
aVBasic Land - Plains
p1981
aVSorcery
p1982
aVArtifact Creature - Angel
p1983
aVBasic Land - Plains
p1984
aVBasic Land - Plains
p1985
aVBasic Land - Plains
p1986
aVBasic Land - Plains
p1987
aVSorcery
p1988
aVInstant
p1989
aVBasic Land - Plains
p1990
aVBasic Land - Plains
p1991
aVBasic Land - Plains
p1992
aVBasic Land - Plains
p1993
aVArtifact Creature - Angel
p1994
aVCreature - Insect
p1995
aVSorcery
p1996
aVBasic Land - Plains
p1997
aVInstant
p1998
aVBasic Land - Plains
p1999
aVBasic Land - Plains
p2000
aVBasic Land - Plains
p2001
aVBasic Land - Plains
p2002
aVBasic Land - Plains
p2003
aVBasic Land - Plains
p2004
aVBasic Land - Plains
p2005
aVLand - Mountain Plains
p2006
aVSorcery
p2007
aVCreature - Elemental
p2008
aVBasic Land - Plains
p2009
aVBasic Land - Plains
p2010
aVArtifact Creature - Myr
p2011
aVCreature - Beast
p2012
aVBasic Land - Plains
p2013
aVBasic Land - Plains
p2014
aVSorcery
p2015
aVBasic Land - Plains
p2016
aVBasic Land - Plains
p2017
aVBasic Land - Plains
p2018
aVLand - Mountain Plains
p2019
aVCreature - Rat
p2020
aVBasic Land - Plains
p2021
aVBasic Land - Plains
p2022
aVBasic Land - Plains
p2023
aVLand - Mountain Plains
p2024
aVCreature - Spirit
p2025
aVInstant
p2026
aVCreature - Insect
p2027
aVSorcery
p2028
aVBasic Land - Plains
p2029
aVBasic Land - Plains
p2030
aVBasic Land - Plains
p2031
aVBasic Land - Plains
p2032
aVBasic Land - Plains
p2033
aVBasic Land - Plains
p2034
aVBasic Land - Plains
p2035
aVPhenomenon
p2036
aVBasic Land - Plains
p2037
aVBasic Land - Plains
p2038
aVBasic Land - Plains
p2039
aVBasic Land - Plains
p2040
aVBasic Land - Plains
p2041
aVBasic Land - Plains
p2042
aVBasic Land - Plains
p2043
aVBasic Land - Plains
p2044
aVBasic Land - Plains
p2045
aVBasic Land - Plains
p2046
aVBasic Land - Plains
p2047
aVBasic Land - Plains
p2048
aVBasic Land - Plains
p2049
aVBasic Land - Plains
p2050
aVBasic Land - Plains
p2051
aVBasic Land - Plains
p2052
aVCreature - Zombie Hound
p2053
aVCreature - Spider
p2054
aVSorcery
p2055
aVBasic Land - Plains
p2056
aVArtifact
p2057
aVBasic Land - Plains
p2058
aVBasic Land - Plains
p2059
aVBasic Land - Plains
p2060
aVBasic Land - Plains
p2061
aVArtifact
p2062
aVBasic Land - Plains
p2063
aVBasic Land - Plains
p2064
aVBasic Land - Plains
p2065
aVBasic Land - Plains
p2066
aVBasic Land - Plains
p2067
aVSorcery
p2068
aVCreature - Pegasus
p2069
aVCreature - Sliver
p2070
aVBasic Land - Plains
p2071
aVBasic Land - Plains
p2072
aVBasic Land - Plains
p2073
aVBasic Land - Plains
p2074
aVBasic Land - Plains
p2075
aVBasic Land - Plains
p2076
aVBasic Land - Plains
p2077
aVBasic Land - Plains
p2078
aVBasic Land - Plains
p2079
aVCreature - Zombie
p2080
aVCreature - Lizard
p2081
aVCreature - Rat
p2082
aVBasic Land - Plains
p2083
aVBasic Land - Plains
p2084
aVBasic Land - Plains
p2085
aVLand - Mountain Plains
p2086
aVBasic Land - Plains
p2087
aVBasic Land - Plains
p2088
aVBasic Land - Plains
p2089
aVInstant
p2090
aVBasic Land - Plains
p2091
aVCreature - Insect
p2092
aVBasic Land - Plains
p2093
aVBasic Land - Plains
p2094
aVBasic Land - Plains
p2095
aVBasic Land - Plains
p2096
aVBasic Land - Plains
p2097
aVBasic Land - Plains
p2098
aVBasic Land - Plains
p2099
aVBasic Land - Plains
p2100
aVBasic Land - Plains
p2101
aVBasic Land - Plains
p2102
aVBasic Land - Plains
p2103
aVCreature - Wurm
p2104
aVBasic Land - Plains
p2105
aVBasic Land - Plains
p2106
aVBasic Land - Plains
p2107
aVBasic Land - Plains
p2108
aVArtifact Creature - Angel
p2109
aVBasic Land - Plains
p2110
aVBasic Land - Plains
p2111
aVBasic Land - Plains
p2112
aVBasic Land - Plains
p2113
aVBasic Land - Plains
p2114
aVBasic Land - Plains
p2115
aVBasic Land - Plains
p2116
aVBasic Land - Plains
p2117
aVCreature - Insect
p2118
aVBasic Land - Plains
p2119
aVBasic Land - Plains
p2120
aVBasic Land - Plains
p2121
aVBasic Land - Plains
p2122
aVCreature - Insect
p2123
aVSorcery
p2124
aVBasic Land - Plains
p2125
aVInstant
p2126
aVEnchantment
p2127
aVCreature - Insect
p2128
aVBasic Land - Plains
p2129
aVBasic Land - Plains
p2130
aVBasic Land - Plains
p2131
aVBasic Land - Plains
p2132
aVEnchantment
p2133
aVCreature - Elemental
p2134
aVSorcery
p2135
aVBasic Land - Plains
p2136
aVBasic Land - Plains
p2137
aVBasic Land - Plains
p2138
aVBasic Land - Plains
p2139
aVBasic Land - Plains
p2140
aVBasic Land - Plains
p2141
aVBasic Land - Plains
p2142
aVBasic Land - Plains
p2143
aVBasic Land - Plains
p2144
aVBasic Land - Plains
p2145
aVInstant
p2146
aVCreature - Elemental
p2147
aVCreature - Wurm
p2148
aVBasic Land - Plains
p2149
aVBasic Land - Plains
p2150
aVBasic Land - Plains
p2151
aVBasic Land - Plains
p2152
aVBasic Land - Plains
p2153
aVBasic Land - Plains
p2154
aVBasic Land - Plains
p2155
aVBasic Land - Plains
p2156
aVCreature - Sliver
p2157
aVCreature - Human Cleric
p2158
aVBasic Land - Plains
p2159
aVBasic Land - Plains
p2160
aVBasic Land - Plains
p2161
aVCreature - Insect
p2162
aVEnchantment
p2163
aVSorcery
p2164
aVBasic Land - Plains
p2165
aVBasic Land - Plains
p2166
aVBasic Land - Plains
p2167
aVBasic Land - Plains
p2168
aVBasic Land - Plains
p2169
aVBasic Land - Plains
p2170
aVBasic Land - Plains
p2171
aVBasic Land - Plains
p2172
aVCreature - Spirit
p2173
aVCreature - Beast
p2174
aVSorcery
p2175
aVInstant
p2176
aVSorcery
p2177
aVArtifact
p2178
aVCreature - Insect
p2179
aVSorcery
p2180
aVBasic Land - Plains
p2181
aVBasic Land - Plains
p2182
aVBasic Land - Plains
p2183
aVBasic Land - Plains
p2184
aVCreature - Elf Spellshaper
p2185
aVEnchantment - Aura
p2186
aVCreature - Horror
p2187
aVSorcery
p2188
aVBasic Land - Plains
p2189
aVBasic Land - Plains
p2190
aVBasic Land - Plains
p2191
aVBasic Land - Plains
p2192
aVArtifact
p2193
aVCreature - Rat
p2194
aVBasic Land - Plains
p2195
aVBasic Land - Plains
p2196
aVBasic Land - Plains
p2197
aVBasic Land - Plains
p2198
aVBasic Land - Plains
p2199
aVBasic Land - Plains
p2200
aVInstant
p2201
aVBasic Land - Plains
p2202
aVBasic Land - Plains
p2203
aVBasic Land - Plains
p2204
aVBasic Land - Plains
p2205
aVBasic Land - Plains
p2206
aVVanguard
p2207
aVVanguard
p2208
aVBasic Land - Plains
p2209
aVBasic Land - Plains
p2210
aVBasic Land - Plains
p2211
aVLand - Mountain Plains
p2212
aVCreature - Rat
p2213
aVBasic Land - Plains
p2214
aVBasic Land - Plains
p2215
aVCreature - Spider
p2216
aVArtifact
p2217
aVLand - Mountain Plains
p2218
aVInstant
p2219
aVArtifact
p2220
aVCreature - Beast
p2221
aVEnchantment - Aura
p2222
aVCreature - Frog Mutant
p2223
aVCreature - Spirit
p2224
aVCreature - Kithkin Knight
p2225
aVBasic Land - Plains
p2226
aVBasic Land - Plains
p2227
aVBasic Land - Plains
p2228
aVBasic Land - Plains
p2229
aVBasic Land - Plains
p2230
aVBasic Land - Plains
p2231
aVArtifact Creature - Angel
p2232
aVInstant
p2233
aVBasic Land - Plains
p2234
aVBasic Land - Plains
p2235
aVBasic Land - Plains
p2236
aVBasic Land - Plains
p2237
aVBasic Land - Plains
p2238
aVBasic Land - Plains
p2239
aVBasic Land - Plains
p2240
aVCreature - Plant Elemental
p2241
aVBasic Land - Plains
p2242
aVBasic Land - Plains
p2243
aVBasic Land - Plains
p2244
aVBasic Land - Plains
p2245
aVEnchantment
p2246
aVEnchantment
p2247
aVEnchantment
p2248
aVEnchantment
p2249
aVEnchantment
p2250
aVSorcery
p2251
asS'numbers'
p2252
(lp2253
V86
p2254
aV87
p2255
aV299
p2256
aV300
p2257
aV301
p2258
aV302
p2259
aV218
p2260
aV230
p2261
aV232
p2262
aV233
p2263
aV187
p2264
aV231
p2265
aV199
p2266
aV200
p2267
aV201
p2268
aV202
p2269
aV203
p2270
aV22
p2271
aV11
p2272
aV103
p2273
aV104
p2274
aV105
p2275
aV106
p2276
aV107
p2277
aV108
p2278
aV109
p2279
aV110
p2280
aV111
p2281
aV26
p2282
aV179
p2283
aV231
p2284
aV230
p2285
aV232
p2286
aV233
p2287
aV296
p2288
aV297
p2289
aV298
p2290
aV299
p2291
aV40
p2292
aV39
p2293
aV40
p2294
aV41
p2295
aV42
p2296
aV20
p2297
aV75
p2298
aV231
p2299
aV38
p2300
aV193
p2301
aV230
p2302
aV232
p2303
aV233
p2304
aV24
p2305
aV231
p2306
aV24
p2307
aV218
p2308
aV230
p2309
aV232
p2310
aV233
p2311
aV231
p2312
aV29
p2313
aV188
p2314
aV303
p2315
aV304
p2316
aV305
p2317
aV306
p2318
aV339
p2319
aV168
p2320
aV169
p2321
aV364
p2322
aV97
p2323
aV365
p2324
aV366
p2325
aV367
p2326
aV331
p2327
aV332
p2328
aV333
p2329
aV334
p2330
aV308
p2331
aV87
p2332
ag662
aV146
p2333
aV147
p2334
aV125
p2335
aV87
p2336
aV35
p2337
aV36
p2338
aV50
p2339
aV216
p2340
aV217
p2341
aV218
p2342
aV209
p2343
aV214
p2344
aV215
p2345
aV216
p2346
aV217
p2347
aV218
p2348
aV56
p2349
aV89
p2350
aV154
p2351
aV155
p2352
aV331
p2353
aV332
p2354
aV333
p2355
aV334
p2356
aV232
p2357
aV230
p2358
aV231
p2359
aV27
p2360
aV135
p2361
aV132
p2362
aV133
p2363
aV134
p2364
aV136
p2365
aV38
p2366
aV39
p2367
aV40
p2368
aV331
p2369
aV332
p2370
aV333
p2371
aV334
p2372
aV289
p2373
aV287
p2374
aV288
p2375
aV290
p2376
aV66
p2377
aV116
p2378
aV117
p2379
aV19
p2380
aV269
p2381
aV287
p2382
aV288
p2383
aV289
p2384
aV290
p2385
aV254
p2386
aV338
p2387
aV331
p2388
aV332
p2389
aV333
p2390
aV334
p2391
aV174
p2392
aV34
p2393
aV124
p2394
aV282
p2395
aV283
p2396
aV284
p2397
aV285
p2398
aV251
p2399
aV253
p2400
aV250
p2401
aV252
p2402
aV254
p2403
aV71
p2404
aV116
p2405
aV201
p2406
aV202
p2407
aV203
p2408
aV204
p2409
aV205
p2410
aV334
p2411
aV335
p2412
aV336
p2413
aV44
p2414
aV231
p2415
aV141
p2416
aV230
p2417
aV230
p2418
aV231
p2419
aV232
p2420
aV232
p2421
aV233
p2422
aV233
p2423
aV331
p2424
aV332
p2425
aV333
p2426
aV334
p2427
aV127
p2428
aV288
p2429
aV287
p2430
aV289
p2431
aV290
p2432
aV228
p2433
aV35
p2434
aV36
p2435
aV37
p2436
aV38
p2437
aV230
p2438
aV231
p2439
aV232
p2440
aV233
p2441
aV155
p2442
aV341
p2443
aV342
p2444
aV343
p2445
aV344
p2446
aV73
p2447
aV74
p2448
aV251
p2449
aV192
p2450
aV18
p2451
aV64
p2452
aV230
p2453
aV229
p2454
aV231
p2455
aV232
p2456
aV97
p2457
aV145
p2458
aV73
p2459
aV282
p2460
aV283
p2461
aV284
p2462
aV285
p2463
aV167
p2464
aV166
p2465
aV166
p2466
aV167
p2467
aV168
p2468
aV169
p2469
aV57
p2470
aV34
p2471
aV71
p2472
aV135
p2473
aV136
p2474
aV137
p2475
aV142
p2476
aV143
p2477
aV144
p2478
aV145
p2479
aV146
p2480
aV19
p2481
aV18
p2482
aV38
p2483
aV39
p2484
aV40
p2485
ag662
aV149
p2486
aV31
p2487
aV331
p2488
aV332
p2489
aV333
p2490
aV334
p2491
aV181
p2492
aV182
p2493
aV183
p2494
aV231
p2495
aV121
p2496
aV103
p2497
aV24
p2498
aV173
p2499
aV272
p2500
aV311
p2501
aV154
p2502
aV155
p2503
aV331
p2504
aV332
p2505
aV333
p2506
aV334
p2507
aV66
p2508
aV24
p2509
aV119
p2510
aV260
p2511
aV331
p2512
aV332
p2513
aV333
p2514
aV334
p2515
aV308
p2516
aV363
p2517
aV364
p2518
aV365
p2519
aV366
p2520
aV367
p2521
aV137
p2522
aV138
p2523
aV65
p2524
aV251
p2525
aV316
p2526
aV317
p2527
aV318
p2528
aV319
p2529
aV108
p2530
aV40
p2531
aV250
p2532
aV251
p2533
aV252
p2534
aV60
p2535
aV84
p2536
aV222
p2537
aV294
p2538
aV67
p2539
aV221
p2540
aV249
p2541
aV91
p2542
aV14
p2543
aV29
p2544
aV124
p2545
aV123
p2546
aV46
p2547
aV35
p2548
aV282
p2549
aV283
p2550
aV284
p2551
aV285
p2552
aV37
p2553
aV231
p2554
aV212
p2555
aV190
p2556
aV230
p2557
aV232
p2558
aV233
p2559
aV166
p2560
aV167
p2561
aV168
p2562
aV40
p2563
aV50
p2564
aV174
p2565
aV175
p2566
aV176
p2567
aV177
p2568
aV12
p2569
aV29
p2570
aV52
p2571
aV70
p2572
aV86
p2573
aV28
p2574
as.