(dp0
S'rares'
p1
(lp2
VLand
p3
aVLand
p4
aVLand
p5
aVLand
p6
aVLand
p7
aVLand
p8
aVUncommon
p9
aVLand
p10
aVLand
p11
aVLand
p12
aVCommon
p13
aVLand
p14
aVCommon
p15
aVLand
p16
aVLand
p17
aVLand
p18
aVRare
p19
aVCommon
p20
aVCommon
p21
aVLand
p22
aVLand
p23
aVLand
p24
aVLand
p25
aVLand
p26
aVLand
p27
aVLand
p28
aVLand
p29
aVLand
p30
aVRare
p31
aVCommon
p32
aVLand
p33
aVLand
p34
aVLand
p35
aVLand
p36
aVCommon
p37
aVLand
p38
aVLand
p39
aVLand
p40
aVLand
p41
aVLand
p42
aVLand
p43
aVLand
p44
aVLand
p45
aVCommon
p46
aVCommon
p47
aVLand
p48
aVCommon
p49
aVMythic Rare
p50
aVLand
p51
aVLand
p52
aVLand
p53
aVRare
p54
aVLand
p55
aVRare
p56
aVMythic Rare
p57
aVLand
p58
aVLand
p59
aVLand
p60
aVLand
p61
aVRare
p62
aVCommon
p63
aVLand
p64
aVLand
p65
aVLand
p66
aVLand
p67
aVRare
p68
aVCommon
p69
aVRare
p70
aVLand
p71
aVRare
p72
aVLand
p73
aVLand
p74
aVLand
p75
aVLand
p76
aVLand
p77
aVLand
p78
aVLand
p79
aVRare
p80
aVRare
p81
aVUncommon
p82
aVLand
p83
aVLand
p84
aVUncommon
p85
aVUncommon
p86
aVLand
p87
aVLand
p88
aVRare
p89
aVLand
p90
aVLand
p91
aVLand
p92
aVRare
p93
aVCommon
p94
aVLand
p95
aVLand
p96
aVLand
p97
aVRare
p98
aVUncommon
p99
aVRare
p100
aVCommon
p101
aVRare
p102
aVLand
p103
aVLand
p104
aVLand
p105
aVLand
p106
aVLand
p107
aVLand
p108
aVLand
p109
aVCommon
p110
aVLand
p111
aVLand
p112
aVLand
p113
aVLand
p114
aVLand
p115
aVLand
p116
aVLand
p117
aVLand
p118
aVLand
p119
aVLand
p120
aVLand
p121
aVLand
p122
aVLand
p123
aVLand
p124
aVLand
p125
aVLand
p126
aVUncommon
p127
aVCommon
p128
aVRare
p129
aVLand
p130
aVRare
p131
aVLand
p132
aVLand
p133
aVLand
p134
aVLand
p135
aVRare
p136
aVLand
p137
aVLand
p138
aVLand
p139
aVLand
p140
aVLand
p141
aVCommon
p142
aVUncommon
p143
aVRare
p144
aVLand
p145
aVLand
p146
aVLand
p147
aVLand
p148
aVLand
p149
aVLand
p150
aVLand
p151
aVLand
p152
aVLand
p153
aVRare
p154
aVCommon
p155
aVCommon
p156
aVLand
p157
aVLand
p158
aVLand
p159
aVRare
p160
aVLand
p161
aVLand
p162
aVLand
p163
aVRare
p164
aVLand
p165
aVCommon
p166
aVLand
p167
aVLand
p168
aVLand
p169
aVLand
p170
aVLand
p171
aVLand
p172
aVLand
p173
aVLand
p174
aVLand
p175
aVLand
p176
aVLand
p177
aVRare
p178
aVLand
p179
aVLand
p180
aVLand
p181
aVLand
p182
aVRare
p183
aVLand
p184
aVLand
p185
aVLand
p186
aVLand
p187
aVLand
p188
aVLand
p189
aVLand
p190
aVLand
p191
aVCommon
p192
aVLand
p193
aVLand
p194
aVLand
p195
aVLand
p196
aVCommon
p197
aVRare
p198
aVLand
p199
aVCommon
p200
aVRare
p201
aVCommon
p202
aVLand
p203
aVLand
p204
aVLand
p205
aVLand
p206
aVUncommon
p207
aVUncommon
p208
aVRare
p209
aVLand
p210
aVLand
p211
aVLand
p212
aVLand
p213
aVLand
p214
aVLand
p215
aVLand
p216
aVLand
p217
aVLand
p218
aVLand
p219
aVRare
p220
aVUncommon
p221
aVCommon
p222
aVLand
p223
aVLand
p224
aVLand
p225
aVLand
p226
aVLand
p227
aVLand
p228
aVLand
p229
aVLand
p230
aVCommon
p231
aVRare
p232
aVLand
p233
aVLand
p234
aVLand
p235
aVCommon
p236
aVUncommon
p237
aVRare
p238
aVLand
p239
aVLand
p240
aVLand
p241
aVLand
p242
aVLand
p243
aVLand
p244
aVLand
p245
aVLand
p246
aVUncommon
p247
aVCommon
p248
aVRare
p249
aVCommon
p250
aVRare
p251
aVRare
p252
aVCommon
p253
aVRare
p254
aVLand
p255
aVLand
p256
aVLand
p257
aVLand
p258
aVCommon
p259
aVUncommon
p260
aVUncommon
p261
aVCommon
p262
aVLand
p263
aVLand
p264
aVLand
p265
aVLand
p266
aVRare
p267
aVCommon
p268
aVLand
p269
aVLand
p270
aVLand
p271
aVLand
p272
aVLand
p273
aVLand
p274
aVCommon
p275
aVLand
p276
aVLand
p277
aVLand
p278
aVLand
p279
aVLand
p280
aVSpecial
p281
aVSpecial
p282
aVLand
p283
aVLand
p284
aVLand
p285
aVRare
p286
aVCommon
p287
aVLand
p288
aVLand
p289
aVCommon
p290
aVUncommon
p291
aVRare
p292
aVRare
p293
aVRare
p294
aVUncommon
p295
aVCommon
p296
aVUncommon
p297
aVUncommon
p298
aVCommon
p299
aVLand
p300
aVLand
p301
aVLand
p302
aVLand
p303
aVLand
p304
aVLand
p305
aVMythic Rare
p306
aVCommon
p307
aVLand
p308
aVLand
p309
aVLand
p310
aVLand
p311
aVLand
p312
aVLand
p313
aVLand
p314
aVUncommon
p315
aVLand
p316
aVLand
p317
aVLand
p318
aVLand
p319
aVRare
p320
aVRare
p321
aVRare
p322
aVRare
p323
aVRare
p324
aVRare
p325
asS'editns'
p326
(lp327
VAnthologies
p328
aVAnthologies
p329
aVMagic: The Gathering-Commander
p330
aVMagic: The Gathering-Commander
p331
aVMagic: The Gathering-Commander
p332
aVMagic: The Gathering-Commander
p333
aVMagic: The Gathering-Commander
p334
aVMagic 2012
p335
aVMagic 2012
p336
aVMagic 2012
p337
aVMagic 2012
p338
aVMagic 2012
p339
aVLimited Edition Beta
p340
aVLimited Edition Beta
p341
aVLimited Edition Beta
p342
aVLimited Edition Beta
p343
aVLimited Edition Beta
p344
aVSaviors of Kamigawa
p345
aVBattle Royale Box Set
p346
aVBattle Royale Box Set
p347
aVBattle Royale Box Set
p348
aVBattle Royale Box Set
p349
aVBattle Royale Box Set
p350
aVBattle Royale Box Set
p351
aVBattle Royale Box Set
p352
aVBattle Royale Box Set
p353
aVBattle Royale Box Set
p354
aVBattle Royale Box Set
p355
aVMagic 2013
p356
aVMagic 2013
p357
aVMagic 2013
p358
aVMagic 2013
p359
aVMagic 2013
p360
aVMagic 2013
p361
aVFourth Edition
p362
aVFourth Edition
p363
aVFourth Edition
p364
aVFourth Edition
p365
aVDuel Decks: Ajani vs. Nicol Bolas
p366
aVDuel Decks: Knights vs. Dragons
p367
aVDuel Decks: Knights vs. Dragons
p368
aVDuel Decks: Knights vs. Dragons
p369
aVDuel Decks: Knights vs. Dragons
p370
aVDuel Decks: Knights vs. Dragons
p371
aVScars of Mirrodin
p372
aVScars of Mirrodin
p373
aVScars of Mirrodin
p374
aVScars of Mirrodin
p375
aVScars of Mirrodin
p376
aVScars of Mirrodin
p377
aVScars of Mirrodin
p378
aVBorn of the Gods
p379
aVMagic 2010
p380
aVMagic 2010
p381
aVMagic 2010
p382
aVMagic 2010
p383
aVMagic 2010
p384
aVMagic 2010
p385
aVMagic 2014 Core Set
p386
aVMagic 2014 Core Set
p387
aVMagic 2014 Core Set
p388
aVTempest
p389
aVTempest
p390
aVTempest
p391
aVTempest
p392
aVTenth Edition
p393
aVTenth Edition
p394
aVTenth Edition
p395
aVTenth Edition
p396
aVTenth Edition
p397
aVTenth Edition
p398
aVTenth Edition
p399
aVTenth Edition
p400
aVMercadian Masques
p401
aVMercadian Masques
p402
aVMercadian Masques
p403
aVMercadian Masques
p404
aVVintage Masters
p405
aVVintage Masters
p406
aVModern Masters
p407
aVMirrodin Besieged
p408
aVMirrodin Besieged
p409
aVMirrodin Besieged
p410
aVMirrodin Besieged
p411
aVStarter 2000
p412
aVStarter 2000
p413
aVApocalypse
p414
aVMasters Edition III
p415
aVMasters Edition III
p416
aVMasters Edition III
p417
aVMasters Edition III
p418
aVRevised Edition
p419
aVRevised Edition
p420
aVRevised Edition
p421
aVRevised Edition
p422
aVRevised Edition
p423
aVGuildpact
p424
aVNinth Edition
p425
aVNinth Edition
p426
aVNinth Edition
p427
aVNinth Edition
p428
aVNinth Edition
p429
aVNinth Edition
p430
aVNinth Edition
p431
aVAvacyn Restored
p432
aVAvacyn Restored
p433
aVAvacyn Restored
p434
aVPlanechase 2012 Edition
p435
aVPlanechase 2012 Edition
p436
aVPlanechase 2012 Edition
p437
aVPlanechase 2012 Edition
p438
aVPlanechase 2012 Edition
p439
aVPlanechase 2012 Edition
p440
aVDuel Decks: Sorin vs. Tibalt
p441
aVDuel Decks: Sorin vs. Tibalt
p442
aVDuel Decks: Sorin vs. Tibalt
p443
aVOnslaught
p444
aVOnslaught
p445
aVOnslaught
p446
aVOnslaught
p447
aVChampions of Kamigawa
p448
aVChampions of Kamigawa
p449
aVChampions of Kamigawa
p450
aVChampions of Kamigawa
p451
aVUrza's Destiny
p452
aVUrza's Destiny
p453
aVUrza's Destiny
p454
aVModern Event Deck 2014
p455
aVRavnica: City of Guilds
p456
aVRavnica: City of Guilds
p457
aVRavnica: City of Guilds
p458
aVRavnica: City of Guilds
p459
aVRavnica: City of Guilds
p460
aVCommander 2013 Edition
p461
aVCommander 2013 Edition
p462
aVOdyssey
p463
aVOdyssey
p464
aVOdyssey
p465
aVOdyssey
p466
aVTime Spiral
p467
aVTime Spiral
p468
aVTime Spiral
p469
aVTime Spiral
p470
aVTime Spiral
p471
aVTime Spiral
p472
aVTime Spiral
p473
aVReturn to Ravnica
p474
aVReturn to Ravnica
p475
aVReturn to Ravnica
p476
aVReturn to Ravnica
p477
aVReturn to Ravnica
p478
aVExodus
p479
aVExodus
p480
aVUnlimited Edition
p481
aVUnlimited Edition
p482
aVUnlimited Edition
p483
aVUnlimited Edition
p484
aVUnlimited Edition
p485
aVIce Age
p486
aVIce Age
p487
aVIce Age
p488
aVTorment
p489
aVZendikar
p490
aVZendikar
p491
aVZendikar
p492
aVZendikar
p493
aVZendikar
p494
aVZendikar
p495
aVZendikar
p496
aVZendikar
p497
aVZendikar
p498
aVClassic Sixth Edition
p499
aVClassic Sixth Edition
p500
aVClassic Sixth Edition
p501
aVClassic Sixth Edition
p502
aVMirrodin
p503
aVMirrodin
p504
aVMirrodin
p505
aVMirrodin
p506
aVMirrodin
p507
aVMirrodin
p508
aVDuel Decks: Elspeth vs. Tezzeret
p509
aVDuel Decks: Elspeth vs. Tezzeret
p510
aVDuel Decks: Elspeth vs. Tezzeret
p511
aVDuel Decks: Elspeth vs. Tezzeret
p512
aVShards of Alara
p513
aVShards of Alara
p514
aVShards of Alara
p515
aVShards of Alara
p516
aVSeventh Edition
p517
aVSeventh Edition
p518
aVSeventh Edition
p519
aVSeventh Edition
p520
aVSeventh Edition
p521
aVProphecy
p522
aVProphecy
p523
aVMagic 2015 Core Set
p524
aVMagic 2015 Core Set
p525
aVUrza's Legacy
p526
aVUrza's Legacy
p527
aVRise of the Eldrazi
p528
aVRise of the Eldrazi
p529
aVRise of the Eldrazi
p530
aVRise of the Eldrazi
p531
aVJudgment
p532
aVShadowmoor
p533
aVShadowmoor
p534
aVShadowmoor
p535
aVShadowmoor
p536
aVShadowmoor
p537
aVShadowmoor
p538
aVNew Phyrexia
p539
aVNew Phyrexia
p540
aVStarter 1999
p541
aVStarter 1999
p542
aVStarter 1999
p543
aVStarter 1999
p544
aVFifth Dawn
p545
aVFifth Dawn
p546
aVPortal Second Age
p547
aVPortal Second Age
p548
aVPortal Second Age
p549
aVPortal Second Age
p550
aVPlanechase
p551
aVPlanechase
p552
aVPlanechase
p553
aVPlanechase
p554
aVPlanechase
p555
aVLegions
p556
aVLegions
p557
aVDuel Decks: Venser vs. Koth
p558
aVDuel Decks: Venser vs. Koth
p559
aVDuel Decks: Venser vs. Koth
p560
aVDuel Decks: Venser vs. Koth
p561
aVUrza's Saga
p562
aVUrza's Saga
p563
aVUrza's Saga
p564
aVUrza's Saga
p565
aVUrza's Saga
p566
aVUrza's Saga
p567
aVMasters Edition
p568
aVMasters Edition
p569
aVMasters Edition
p570
aVTheros
p571
aVMagic: The Gathering\u2014Conspiracy
p572
aVMagic: The Gathering\u2014Conspiracy
p573
aVMagic: The Gathering\u2014Conspiracy
p574
aVMagic: The Gathering\u2014Conspiracy
p575
aVEighth Edition
p576
aVEighth Edition
p577
aVEighth Edition
p578
aVEighth Edition
p579
aVEighth Edition
p580
aVEighth Edition
p581
aVEighth Edition
p582
aVEighth Edition
p583
aVNemesis
p584
aVInvasion
p585
aVInvasion
p586
aVInvasion
p587
aVInvasion
p588
aVInvasion
p589
aVInvasion
p590
aVInvasion
p591
aVInvasion
p592
aVFifth Edition
p593
aVFifth Edition
p594
aVFifth Edition
p595
aVFifth Edition
p596
aVFifth Edition
p597
aVArchenemy
p598
aVArchenemy
p599
aVArchenemy
p600
aVKhans of Tarkir
p601
aVMirage
p602
aVMirage
p603
aVMirage
p604
aVMirage
p605
aVVanguard
p606
aVVanguard
p607
aVInnistrad
p608
aVInnistrad
p609
aVInnistrad
p610
aVLimited Edition Alpha
p611
aVLimited Edition Alpha
p612
aVLimited Edition Alpha
p613
aVLimited Edition Alpha
p614
aVBeatdown Box Set
p615
aVMasters Edition IV
p616
aVMasters Edition IV
p617
aVDragon's Maze
p618
aVLegends
p619
aVDissension
p620
aVDissension
p621
aVDissension
p622
aVDuel Decks: Izzet vs. Golgari
p623
aVLorwyn
p624
aVLorwyn
p625
aVLorwyn
p626
aVLorwyn
p627
aVLorwyn
p628
aVPremium Deck Series: Slivers
p629
aVMagic 2011
p630
aVMagic 2011
p631
aVMagic 2011
p632
aVMagic 2011
p633
aVMagic 2011
p634
aVMagic 2011
p635
aVPortal Three Kingdoms
p636
aVPortal Three Kingdoms
p637
aVPortal Three Kingdoms
p638
aVDuel Decks: Heroes vs. Monsters
p639
aVPortal
p640
aVPortal
p641
aVPortal
p642
aVPortal
p643
aVPortal
p644
aVPlaneshift
p645
aVPlaneshift
p646
aVPlaneshift
p647
aVPlaneshift
p648
aVPlaneshift
p649
aVPlaneshift
p650
asS'ids'
p651
(lp652
I370669
aV-2146729897
p653
aV249814
p654
aV249813
p655
aV249815
p656
aV249812
p657
aV247408
p658
aV244333
p659
aV244334
p660
aV244332
p661
aV233235
p662
aV244331
p663
aV372
p664
aV597
p665
aV596
p666
aV595
p667
aV578
p668
aV89397
p669
aV21116
p670
aV22363
p671
aV22362
p672
aV22361
p673
aV22360
p674
aV22359
p675
aV22358
p676
aV22357
p677
aV22356
p678
aV21145
p679
aV275269
p680
aV253675
p681
aV249732
p682
aV249733
p683
aV249731
p684
aV249734
p685
aV2121
p686
aV2386
p687
aV2385
p688
aV2384
p689
aV249376
p690
aV243456
p691
aV243457
p692
aV243458
p693
aV243459
p694
aV243437
p695
aV208261
p696
aV214679
p697
aV194061
p698
aV215092
p699
aV214677
p700
aV214671
p701
aV214683
p702
aV378396
p703
aV191382
p704
aV191599
p705
aV191313
p706
aV191395
p707
aV191385
p708
aV191396
p709
aV370754
p710
aV370808
p711
aV370601
p712
aV4956
p713
aV4955
p714
aV4954
p715
aV4953
p716
aV106537
p717
aV129678
p718
aV129679
p719
aV129680
p720
aV129883
p721
aV129681
p722
aV129682
p723
aV129683
p724
aV20880
p725
aV20881
p726
aV20882
p727
aV20883
p728
aV383049
p729
aV383050
p730
aV370423
p731
aV214057
p732
aV220366
p733
aV213785
p734
aV213752
p735
aV25454
p736
aV25453
p737
aV25859
p738
aV206080
p739
aV206078
p740
aV206079
p741
aV201402
p742
aV1173
p743
aV1397
p744
aV1396
p745
aV1395
p746
aV1378
p747
aV107691
p748
aV84413
p749
aV83205
p750
aV83206
p751
aV83207
p752
aV83208
p753
aV83209
p754
aV83210
p755
aV269638
p756
aV269637
p757
aV269634
p758
aV226545
p759
aV276459
p760
aV276473
p761
aV276469
p762
aV276458
p763
aV276461
p764
aV368473
p765
aV368480
p766
aV368508
p767
aV40124
p768
aV40123
p769
aV40122
p770
aV40121
p771
aV79072
p772
aV79060
p773
aV79063
p774
aV79076
p775
aV15180
p776
aV19239
p777
aV12628
p778
aV382193
p779
aV83556
p780
aV95108
p781
aV95112
p782
aV95105
p783
aV95115
p784
aV376450
p785
aV376454
p786
aV31612
p787
aV31629
p788
aV31630
p789
aV31631
p790
aV108926
p791
aV110510
p792
aV116748
p793
aV122092
p794
aV122087
p795
aV122085
p796
aV122084
p797
aV289311
p798
aV289312
p799
aV289310
p800
aV289309
p801
aV333721
p802
aV5200
p803
aV5201
p804
aV674
p805
aV899
p806
aV898
p807
aV897
p808
aV880
p809
aV2773
p810
aV2772
p811
aV2771
p812
aV29824
p813
aV201972
p814
aV170977
p815
aV201973
p816
aV195179
p817
aV195173
p818
aV201974
p819
aV195196
p820
aV201971
p821
aV195163
p822
aV14733
p823
aV14734
p824
aV14735
p825
aV14736
p826
aV47781
p827
aV48407
p828
aV48406
p829
aV48408
p830
aV48409
p831
aV48580
p832
aV222754
p833
aV222752
p834
aV222753
p835
aV222751
p836
aV175029
p837
aV175030
p838
aV175031
p839
aV175032
p840
aV13158
p841
aV11446
p842
aV11447
p843
aV11448
p844
aV11449
p845
aV24610
p846
aV24622
p847
aV383346
p848
aV383350
p849
aV12365
p850
aV12393
p851
aV205938
p852
aV205925
p853
aV205931
p854
aV205928
p855
aV35088
p856
aV153980
p857
aV159406
p858
aV158235
p859
aV158236
p860
aV157887
p861
aV157873
p862
aV227518
p863
aV227552
p864
aV21789
p865
aV21792
p866
aV21791
p867
aV21790
p868
aV72681
p869
aV73562
p870
aV6617
p871
aV8380
p872
aV8374
p873
aV8354
p874
aV205301
p875
aV205430
p876
aV205428
p877
aV205436
p878
aV205440
p879
aV42017
p880
aV44323
p881
aV284497
p882
aV284499
p883
aV284498
p884
aV266210
p885
aV5608
p886
aV5766
p887
aV8322
p888
aV8323
p889
aV8324
p890
aV8325
p891
aV159287
p892
aV159288
p893
aV159289
p894
aV373533
p895
aV382327
p896
aV382328
p897
aV382329
p898
aV382330
p899
aV45450
p900
aV45486
p901
aV45291
p902
aV45340
p903
aV46437
p904
aV46438
p905
aV46439
p906
aV46440
p907
aV19579
p908
aV22958
p909
aV23021
p910
aV23153
p911
aV25963
p912
aV26298
p913
aV26299
p914
aV26300
p915
aV23234
p916
aV3871
p917
aV4206
p918
aV4205
p919
aV4204
p920
aV4203
p921
aV221309
p922
aV221310
p923
aV220514
p924
aV386625
p925
aV3588
p926
aV3587
p927
aV3586
p928
aV3585
p929
aV214825
p930
aV182292
p931
aV245230
p932
aV245233
p933
aV245231
p934
aV281
p935
aV77
p936
aV295
p937
aV294
p938
aV26661
p939
aV202613
p940
aV202612
p941
aV369069
p942
aV1417
p943
aV107286
p944
aV107379
p945
aV97104
p946
aV338396
p947
aV139396
p948
aV143621
p949
aV143630
p950
aV143622
p951
aV143620
p952
aV207937
p953
aV213612
p954
aV206329
p955
aV205062
p956
aV213614
p957
aV213613
p958
aV213615
p959
aV10581
p960
aV10645
p961
aV10646
p962
aV373369
p963
aV4313
p964
aV4428
p965
aV4427
p966
aV4426
p967
aV4425
p968
aV25886
p969
aV25887
p970
aV25888
p971
aV25889
p972
aV25890
p973
aV26835
p974
asS'texts'
p975
(lp976
S''
p977
ag977
aVW
p978
ag978
ag978
ag978
aVFlash <i>(You may cast this spell any time you could cast an instant.)</i><br>Defender, flying
p979
ag978
ag978
ag978
aVSearch your library for a basic land card and put that card onto the battlefield tapped. Then shuffle your library.
p980
ag977
aVReturn target creature card from your graveyard to the battlefield.
p981
aVThe next time a source of your choice would deal damage to you this turn, prevent that damage. You gain life equal to the damage prevented this way.
p982
aVTarget blocking creature gets +7/+7 until end of turn.
p983
aVFlying
p984
aVRock Hydra enters the battlefield with X +1/+1 counters on it.<br>For each 1 damage that would be dealt to Rock Hydra, if it has a +1/+1 counter on it, remove a +1/+1 counter from it and prevent that 1 damage.<br>{R}: Prevent the next 1 damage that would be dealt to Rock Hydra this turn.<br>{R}{R}{R}: Put a +1/+1 counter on Rock Hydra. Activate this ability only during your upkeep.
p985
aVSweep- Return any number of Plains you control to their owner's hand. Target creature gets +1/+1 until end of turn for each Plains returned this way.
p986
aV{2}{G}: Plated Rootwalla gets +3/+3 until end of turn. Activate this ability only once each turn.
p987
ag978
ag978
ag978
ag978
ag978
ag978
ag978
ag978
aV{T}: Prodigal Sorcerer deals 1 damage to target creature or player.
p988
aVPrized Elephant gets +1/+1 as long as you control a Forest.<br>{G}: Prized Elephant gains trample until end of turn. <i>(If this creature would assign enough damage to its blockers to destroy them, you may have it assign the rest of its damage to defending player or planeswalker.)</i>
p989
aVAt the beginning of your upkeep, return a creature you control to its owner's hand.
p990
aVR
p991
ag977
ag977
ag977
aVEnchant creature<br>Enchanted creature has protection from red. This effect doesn't remove Red Ward.
p992
aVEnchant creature <i>(Target a creature as you cast this. This card enters the battlefield attached to that creature.)</i><br>{G}: Regenerate enchanted creature. <i>(The next time that creature would be destroyed this turn, it isn't. Instead tap it, remove all damage from it, and remove it from combat.)</i>
p993
aVThe next time a source of your choice would deal damage to you this turn, prevent that damage. You gain life equal to the damage prevented this way.
p994
aVTarget blocking creature gets +7/+7 until end of turn.
p995
ag978
ag978
ag978
ag978
ag978
aVFlying, first strike
p996
aVImprint- When Prototype Portal enters the battlefield, you may exile an artifact card from your hand.<br>{X}, {T}: Put a token that's a copy of the exiled card onto the battlefield. X is the converted mana cost of that card.
p997
aVTarget player discards a card. If a land card is discarded this way, return Psychic Miasma to its owner's hand.
p998
aVTrample, haste<br>Infect <i>(This creature deals damage to creatures in the form of -1/-1 counters and to players in the form of poison counters.)</i><br>At the beginning of the end step, sacrifice Putrefax.
p999
aVYou may have Quicksilver Gargantuan enter the battlefield as a copy of any creature on the battlefield, except it's still 7/7.
p1000
ag977
ag977
ag977
aVEnchant creature<br>When Raised by Wolves enters the battlefield, put two 2/2 green Wolf creature tokens onto the battlefield.<br>Enchanted creature gets +1/+1 for each Wolf you control.
p1001
aVPyroclasm deals 2 damage to each creature.
p1002
aVHaste <i>(This creature can attack and {T} as soon as it comes under your control.)</i>
p1003
aVSearch your library for a basic land card and put that card onto the battlefield tapped. Then shuffle your library.
p1004
ag977
ag977
ag977
aVEnchant creature<br>Enchanted creature gets -1/-1 for each Swamp you control.
p1005
aVThe next sorcery card you cast this turn can be cast as though it had flash. <i>(It can be cast any time you could cast an instant.)</i><br>Draw a card.
p1006
aVTarget creature you control gets +1/+1 and gains hexproof until end of turn. <i>(It can't be the target of spells or abilities your opponents control.)</i>
p1007
aVCounter target spell unless its controller pays {X}. If he or she doesn't, that player taps all lands with mana abilities he or she controls and empties his or her mana pool.
p1008
aVDestroy target land.
p1009
aVSearch your library for a basic land card and put that card onto the battlefield tapped. Then shuffle your library.
p1010
aVFlying <i>(This creature can't be blocked except by creatures with flying or reach.)</i><br>When Rathi Dragon enters the battlefield, sacrifice it unless you sacrifice two Mountains.
p1011
aVFlying<br>You can't lose the game and your opponents can't win the game.
p1012
aVHaste <i>(This creature can attack and {T} as soon as it comes under your control.)</i>
p1013
aVSearch your library for a basic land card and put that card onto the battlefield tapped. Then shuffle your library.
p1014
aVWhen Ravenous Rats enters the battlefield, target opponent discards a card.
p1015
aVFlying<br>{T}: Add one mana of any color to your mana pool.
p1016
ag977
ag977
ag977
ag978
ag978
aV{B}: Primeval Shambler gets +1/+1 until end of turn.
p1017
aVDestroy target land.
p1018
aV{2}: Target creature gains flying until end of turn.<br>{5}, {T}: Destroy target creature with flying.
p1019
aVWhen Predatory Nightstalker enters the battlefield, you may have target opponent sacrifice a creature.
p1020
aVFlash<br>Defender, flying
p1021
ag978
ag978
aVReturn all cards from your graveyard to your hand. Exile Praetor's Counsel. You have no maximum hand size for the rest of the game.
p1022
aVVigilance<br>Infect <i>(This creature deals damage to creatures in the form of -1/-1 counters and to players in the form of poison counters.)</i>
p1023
aVDestroy target land.
p1024
aVB
p1025
aVDomain- All creatures get -1/-1 until end of turn for each basic land type among lands you control.
p1026
aV{T}: Destroy target enchanted creature.
p1027
aVRasputin Dreamweaver enters the battlefield with seven dream counters on it.<br>Remove a dream counter from Rasputin: Add {1} to your mana pool.<br>Remove a dream counter from Rasputin: Prevent the next 1 damage that would be dealt to Rasputin this turn.<br>At the beginning of your upkeep, if Rasputin started the turn untapped, put a dream counter on it.<br>Rasputin can't have more than seven dream counters on it.
p1028
aVDiscard X cards, then return a card from your graveyard to your hand for each card discarded this way. Exile Recall.
p1029
aVChoose target creature. When that creature dies this turn, return a creature card from its owner's graveyard to the battlefield under the control of that creature's owner.
p1030
aVTarget blocking creature gets +7/+7 until end of turn.
p1031
aVFlying
p1032
aVRock Hydra enters the battlefield with X +1/+1 counters on it.<br>For each 1 damage that would be dealt to Rock Hydra, if it has a +1/+1 counter on it, remove a +1/+1 counter from it and prevent that 1 damage.<br>{R}: Prevent the next 1 damage that would be dealt to Rock Hydra this turn.<br>{R}{R}{R}: Put a +1/+1 counter on Rock Hydra. Activate this ability only during your upkeep.
p1033
aV{T}: Destroy target tapped creature.
p1034
aV{T}: Prevent the next 1 damage that would be dealt to target creature or player this turn.
p1035
aV{G}, Sacrifice a creature: You gain 1 life.
p1036
aVCounter target creature spell.
p1037
aVThe next time a source of your choice would deal damage to you this turn, prevent that damage. You gain life equal to the damage prevented this way.
p1038
aVCounter target spell. Untap up to four lands.
p1039
aVTarget blocking creature gets +7/+7 until end of turn.
p1040
aV{3}, {T}: Rod of Ruin deals 1 damage to target creature or player.
p1041
aV{T}: Destroy target tapped creature.
p1042
aVWhenever a spell or ability an opponent controls causes a land to be put into your graveyard from the battlefield, return that card to the battlefield.
p1043
ag1025
ag977
ag977
aVWhen you encounter Planewide Disaster, destroy all creatures. <i>(Then planeswalk away from this phenomenon.)</i>
p1044
aVEnchant creature<br>Enchanted creature has flying.<br>Whenever enchanted creature deals combat damage to a player, put that many 1/1 green Saproling creature tokens onto the battlefield.
p1045
ag978
ag978
ag978
ag1025
ag978
ag978
ag978
ag978
ag978
aVTarget player shuffles his or her graveyard into his or her library.
p1046
aVFlying <i>(This creature can't be blocked except by creatures with flying or reach.)</i><br>When Sage Aven enters the battlefield, look at the top four cards of your library, then put them back in any order.
p1047
aVLava Spike deals 3 damage to target player.
p1048
ag1025
ag1025
ag1025
aVWhen Plague Dogs dies, all creatures get -1/-1 until end of turn.<br>{2}, Sacrifice Plague Dogs: Draw a card.
p1049
aVReach <i>(This creature can block creatures with flying.)</i>
p1050
aVPut two target lands on top of their owners' libraries.
p1051
ag978
aVAt the beginning of your upkeep, put a plague counter on Plague Boiler.<br>{1}{B}{G}: Put a plague counter on Plague Boiler or remove a plague counter from it.<br>When Plague Boiler has three or more plague counters on it, sacrifice it. If you do, destroy all nonland permanents.
p1052
ag978
ag978
aVReturn target card from your graveyard to your hand.
p1053
aVScion of the Wild's power and toughness are each equal to the number of creatures you control.
p1054
aVAt the beginning of your upkeep, put a plague counter on Plague Boiler.<br>{1}{B}{G}: Put a plague counter on Plague Boiler or remove a plague counter from it.<br>When Plague Boiler has three or more plague counters on it, sacrifice it. If you do, destroy all nonland permanents.
p1055
ag978
ag978
ag978
ag978
aV{U}, {T}: You may tap or untap target creature.
p1056
aVDestroy target artifact or land.<br>Suspend 4\u2014{1}{R} <i>(Rather than cast this card from your hand, you may pay {1}{R} and exile it with four time counters on it. At the beginning of your upkeep, remove a time counter. When the last is removed, cast it without paying its mana cost.)</i>
p1057
aVFlash <i>(You may cast this spell any time you could cast an instant.)</i><br>Flying<br>If a spell would deal damage to a creature or player, prevent 1 damage that spell would deal to that creature or player.
p1058
aVAll Slivers have "At the beginning of your upkeep, this permanent deals 1 damage to you."
p1059
ag978
ag978
ag978
ag1025
aVWhenever you cast a multicolored spell, Pyroconvergence deals 2 damage to target creature or player.
p1060
aVG
p1061
ag1025
ag1025
ag977
aV{X}{X}{B}: Destroy target nonblack creature with converted mana cost X.
p1062
aV{2}{G}: Plated Rootwalla gets +3/+3 until end of turn. Activate this ability only once each turn.
p1063
aVThe next time a source of your choice would deal damage to you this turn, prevent that damage. You gain life equal to the damage prevented this way.
p1064
aVTarget blocking creature gets +7/+7 until end of turn.
p1065
aVFlying
p1066
aVRock Hydra enters the battlefield with X +1/+1 counters on it.<br>For each 1 damage that would be dealt to Rock Hydra, if it has a +1/+1 counter on it, remove a +1/+1 counter from it and prevent that 1 damage.<br>{R}: Prevent the next 1 damage that would be dealt to Rock Hydra this turn.<br>{R}{R}{R}: Put a +1/+1 counter on Rock Hydra. Activate this ability only during your upkeep.
p1067
aV{3}, {T}: Rod of Ruin deals 1 damage to target creature or player.
p1068
aVLook at the top three cards of target player's library, then put them back in any order. You may have that player shuffle his or her library.<br>Draw a card at the beginning of the next turn's upkeep.
p1069
aVCounter target spell unless its controller pays {X}. If he or she doesn't, that player taps all lands with mana abilities he or she controls and empties his or her mana pool.
p1070
aVEach player loses a third of his or her life, then discards a third of the cards in his or her hand, then sacrifices a third of the creatures he or she controls, then sacrifices a third of the lands he or she controls. Round up each time.
p1071
aVUntil end of turn, if target player would draw a card, instead that player skips that draw and you draw a card.
p1072
aVEnchant creature<br>Enchanted creature has "{T}: This creature deals damage equal to its power to target creature. That creature deals damage equal to its power to this creature."
p1073
aVTarget creature gets +1/+1 until end of turn for each Forest you control.
p1074
ag978
ag978
ag1025
ag1025
ag1025
ag1025
ag1025
aVUntap all creatures that attacked this turn. After this main phase, there is an additional combat phase followed by an additional main phase.
p1075
aVCounter target creature spell.
p1076
aV{3}, {T}: Rod of Ruin deals 1 damage to target creature or player.
p1077
aVRuins of Trokair enters the battlefield tapped.<br>{T}: Add {W} to your mana pool.<br>{T}, Sacrifice Ruins of Trokair: Add {W}{W} to your mana pool.
p1078
aVHexproof <i>(This creature can't be the target of spells or abilities your opponents control.)</i>
p1079
aVCounter target artifact or enchantment spell.
p1080
aVFlying<br>You can't lose the game and your opponents can't win the game.
p1081
aVEach player can't cast more than one spell each turn.
p1082
aVYou may have Sculpting Steel enter the battlefield as a copy of any artifact on the battlefield.
p1083
aVAdd {R}{R}{R}{R}{R} to your mana pool.
p1084
ag978
ag978
aVAffinity for artifacts <i>(This spell costs {1} less to cast for each artifact you control.)</i><br>Flying
p1085
aVPut two 1/1 white Soldier creature tokens onto the battlefield.
p1086
aVCounter target spell unless its controller pays {1}.<br>Cycling {2} <i>({2}, Discard this card: Draw a card.)</i>
p1087
ag1025
ag977
ag977
aVUntap all creatures that attacked this turn. After this main phase, there is an additional combat phase followed by an additional main phase.
p1088
aVCounter target creature spell.
p1089
aVDestroy target creature with power 4 or greater. It can't be regenerated.
p1090
aVThe next time a source of your choice would deal damage to you this turn, prevent that damage. You gain life equal to the damage prevented this way.
p1091
aV{3}, {T}: Rod of Ruin deals 1 damage to target creature or player.
p1092
aVWhenever Plague Fiend deals combat damage to a creature, destroy that creature unless its controller pays {2}.
p1093
aVDestroy all creatures you don't control. They can't be regenerated.
p1094
aVFlash <i>(You may cast this spell any time you could cast an instant.)</i><br>Flying<br>When Quickling enters the battlefield, sacrifice it unless you return another creature you control to its owner's hand.
p1095
aVWhen Radiant Fountain enters the battlefield, you gain 2 life.<br>{T}: Add {1} to your mana pool.
p1096
aVAt the beginning of your upkeep, if there are four or more creatures on the battlefield, sacrifice Planar Collapse and destroy all creatures. They can't be regenerated.
p1097
aVDestroy all artifacts and enchantments.
p1098
aVDefender, flying<br>{1}{R}: Target creature attacks this turn if able.
p1099
ag1025
ag1025
ag977
aVAt the beginning of your upkeep, flip a coin. If you lose the flip, sacrifice Planar Chaos.<br>Whenever a player casts a spell, that player flips a coin. If he or she loses the flip, counter that spell.
p1100
aV{W}, {T}: Remove a -1/-1 counter from target creature. If you do, you gain 2 life.
p1101
aV<i>({2/W} can be paid with any two mana or with {W}. This card's converted mana cost is 10.)</i><br>Other Scarecrow creatures you control get +1/+1.<br>Whenever another Scarecrow enters the battlefield under your control, destroy target permanent.
p1102
ag978
ag978
ag1025
ag1025
ag978
ag977
aVDestroy target land.
p1103
aVFlying <i>(This creature can't be blocked except by creatures with flying or reach.)</i>
p1104
aVYou may play up to three additional lands this turn.
p1105
ag1025
aVModular\u2014Sunburst <i>(This enters the battlefield with a +1/+1 counter on it for each color of mana spent to cast it. When it dies, you may put its +1/+1 counters on target artifact creature.)</i>
p1106
aVTarget opponent reveals his or her hand. You may copy an instant or sorcery card in it. If you do, you may cast the copy without paying its mana cost.
p1107
aVSylvan Yeti's power is equal to the number of cards in your hand.
p1108
aVSwarm of Rats's power is equal to the number of Rats you control.
p1109
aVWhenever Sylvan Basilisk becomes blocked by a creature, destroy that creature.
p1110
aVDraw a card for each tapped creature target opponent controls.
p1111
ag978
ag978
ag978
ag978
ag978
aVAll Sliver creatures get +0/+1.
p1112
aV{3}{W}, Exile Planar Guide: Exile all creatures. At the beginning of the next end step, return those cards to the battlefield under their owners' control.
p1113
ag978
ag978
ag978
aVFirst strike<br>Landfall- Whenever a land enters the battlefield under your control, Plated Geopede gets +2/+2 until end of turn.
p1114
aVWhenever another card is put into a graveyard from anywhere, exile that card.
p1115
aVAt the beginning of your upkeep, sacrifice Contamination unless you sacrifice a creature.<br>If a land is tapped for mana, it produces {B} instead of any other type and amount.
p1116
ag978
aVPolluted Mire enters the battlefield tapped.<br>{T}: Add {B} to your mana pool.<br>Cycling {2} <i>({2}, Discard this card: Draw a card.)</i>
p1117
aVCounter target spell unless its controller pays {X}. If he or she doesn't, that player taps all lands with mana abilities he or she controls and empties his or her mana pool.
p1118
aVWhenever a player casts an enchantment spell, counter it.
p1119
ag978
ag978
ag978
aV{3}{W}, Sacrifice Priest of Iroas: Destroy target enchantment.
p1120
aVDestroy target creature with flying.
p1121
aVEnchant creature<br>Enchanted creature has "{T}: This creature deals 1 damage to target creature or player."
p1122
aV<i>(Start the game with this conspiracy face up in the command zone.)</i><br>You are the starting player. If multiple players would be the starting player, one of those players is chosen at random.
p1123
aVPut a 2/2 green Wolf creature token onto the battlefield.<br>Morbid- Put three 2/2 green Wolf creature tokens onto the battlefield instead if a creature died this turn.
p1124
aV{T}: Add {1} to your mana pool. If you control an Urza's Power-Plant and an Urza's Tower, add {2} to your mana pool instead.
p1125
aVFear <i>(This creature can't be blocked except by artifact creatures and/or black creatures.)</i>
p1126
aVSalt Marsh enters the battlefield tapped.<br>{T}: Add {U} or {B} to your mana pool.
p1127
aV{T}: Prevent the next 1 damage that would be dealt to target creature or player this turn.
p1128
aVWhen Serpent Warrior enters the battlefield, you lose 3 life.
p1129
aVFlying<br>Vigilance <i>(Attacking doesn't cause this creature to tap.)</i>
p1130
aVDestroy target artifact.
p1131
aVFlying<br>{R}: Shivan Dragon gets +1/+0 until end of turn.
p1132
aV{B}, {T}, Discard a card: Target creature gets -1/-1 until end of turn.
p1133
aVEnchant creature<br>Enchanted creature has protection from the colors of permanents you control. This effect doesn't remove Pledge of Loyalty.
p1134
aVAt the beginning of your upkeep, Plague Spitter deals 1 damage to each creature and each player.<br>When Plague Spitter dies, Plague Spitter deals 1 damage to each creature and each player.
p1135
aVDestroy target nonblack creature and target land. They can't be regenerated.
p1136
ag978
ag978
ag978
ag978
aV{6}, {T}: Search your library for a card and put that card into your hand. Then shuffle your library.
p1137
aV{B}{B}{B}, {T}: Target opponent reveals his or her hand and discards a creature card at random. Activate this ability only during your turn.
p1138
aVReturn target creature card from your graveyard to your hand.
p1139
aVEnchant creature <i>(Target a creature as you cast this. This card enters the battlefield attached to that creature.)</i><br>{G}: Regenerate enchanted creature. <i>(The next time that creature would be destroyed this turn, it isn't. Instead tap it, remove all damage from it, and remove it from combat.)</i>
p1140
aVCounter target creature spell.
p1141
aVThe next time a source of your choice would deal damage to you this turn, prevent that damage. You gain life equal to the damage prevented this way.
p1142
ag978
ag978
aVDestroy target creature with flying.
p1143
aV{T}, Pay 1 life, Sacrifice Polluted Delta: Search your library for an Island or Swamp card and put it onto the battlefield. Then shuffle your library.
p1144
ag978
ag978
ag978
aVDestroy target creature. It can't be regenerated. Its controller reveals cards from the top of his or her library until he or she reveals a creature card. The player puts that card onto the battlefield, then shuffles all other cards revealed this way into his or her library.
p1145
aVIf you control an artifact, a creature, an enchantment, and a land, you can't lose the game and your opponents can't win the game.
p1146
aVIf you control an artifact, a creature, an enchantment, and a land, you can't lose the game and your opponents can't win the game.
p1147
aVExile target card from a graveyard.<br>Flashback {W} <i>(You may cast this card from your graveyard for its flashback cost. Then exile it.)</i>
p1148
ag977
ag977
aV{T}, Sacrifice Black Lotus: Add three mana of any one color to your mana pool.
p1149
aVEnchant artifact<br>As long as enchanted artifact isn't a creature, it's an artifact creature with power and toughness each equal to its converted mana cost.
p1150
aVAt the beginning of each end step, put a corpse counter on Scavenging Ghoul for each creature that died this turn.<br>Remove a corpse counter from Scavenging Ghoul: Regenerate Scavenging Ghoul.
p1151
ag977
aVPolluted Mire enters the battlefield tapped.<br>{T}: Add {B} to your mana pool.<br>Cycling {2} <i>({2}, Discard this card: Draw a card.)</i>
p1152
aV{T}: Target creature loses flying until end of turn.
p1153
aVDestroy all creatures target opponent controls. You lose 2 life for each creature destroyed this way.
p1154
aVWhenever a player casts a spell from his or her hand, that player exiles it, then exiles cards from the top of his or her library until he or she exiles a card that shares a card type with it. That player may cast that card without paying its mana cost. Then he or she puts all cards exiled with Possibility Storm on the bottom of his or her library in a random order.
p1155
aVCreature spells you cast cost up to {2} less to cast.
p1156
aVFlash<br>When Plaxmanta enters the battlefield, creatures you control gain shroud until end of turn. <i>(They can't be the targets of spells or abilities.)</i><br>When Plaxmanta enters the battlefield, sacrifice it unless {G} was spent to cast it.
p1157
aVEnchant creature<br>Enchanted creature doesn't untap during its controller's untap step.<br>Forecast- {W}{U}, Reveal Plumes of Peace from your hand: Tap target creature. <i>(Activate this ability only during your upkeep and only once each turn.)</i>
p1158
aVGraft 3 <i>(This creature enters the battlefield with three +1/+1 counters on it. Whenever another creature enters the battlefield, you may move a +1/+1 counter from this creature onto it.)</i><br>{2}: Target creature with a +1/+1 counter on it gains shroud until end of turn. <i>(It can't be the target of spells or abilities.)</i>
p1159
aV{B}, Sacrifice a creature: Target creature gets -1/-1 until end of turn.
p1160
aVFlying, first strike
p1161
ag978
ag978
ag978
ag1025
aVFlash<br>Any player may play Sliver cards as though they had flash.
p1162
aV{T}: Prodigal Pyromancer deals 1 damage to target creature or player.
p1163
aVProtean Hydra enters the battlefield with X +1/+1 counters on it.<br>If damage would be dealt to Protean Hydra, prevent that damage and remove that many +1/+1 counters from it.<br>Whenever a +1/+1 counter is removed from Protean Hydra, put two +1/+1 counters on it at the beginning of the next end step.
p1164
aVAdd {R}{R}{R} to your mana pool.
p1165
ag977
ag977
ag977
aVCast Warrior's Stand only during the declare attackers step and only if you've been attacked this step.<br>Creatures you control get +2/+2 until end of turn.
p1166
aVForestwalk <i>(This creature is unblockable as long as defending player controls a Forest.)</i>
p1167
ag977
ag978
aVWhen Thundering Wurm enters the battlefield, sacrifice it unless you discard a land card.
p1168
aVFlying <i>(This creature can't be blocked except by creatures with flying or reach.)</i>
p1169
aVYou may play up to three additional lands this turn.
p1170
ag1025
ag1025
aV{3}{W}: Target opponent reveals a card at random from his or her hand. You gain life equal to that card's converted mana cost.
p1171
aV{3}{U}: Target opponent reveals a card at random from his or her hand. If it's an instant or sorcery card, exile it. You may cast it without paying its mana cost for as long as it remains exiled. <i>(If it has X in its mana cost, X is 0.)</i> At the beginning of the next end step, if you haven't cast it, return it to its owner's hand. Activate this ability only any time you could cast a sorcery.
p1172
aV{3}{B}: Target opponent reveals a card at random from his or her hand. Target creature gets -X/-X until end of turn, where X is the revealed card's converted mana cost. Activate this ability only any time you could cast a sorcery.
p1173
aV{3}{R}: Target opponent reveals a card at random from his or her hand. Planeswalker's Fury deals damage equal to that card's converted mana cost to that player. Activate this ability only any time you could cast a sorcery.
p1174
aV{3}{G}: Target opponent reveals a card at random from his or her hand. Target creature gets +X/+X until end of turn, where X is the revealed card's converted mana cost.
p1175
aVEach player chooses a land he or she controls of each basic land type. Return those lands to their owners' hands.
p1176
asS'costs'
p1177
(lp1178
S'0'
p1179
ag1179
ag1179
ag1179
ag1179
ag1179
aV{1}{U}
p1180
ag1179
ag1179
ag1179
aV{2}{W}
p1181
ag1179
aV{2}{B}
p1182
ag1179
ag1179
ag1179
ag1179
aV{1}{W}
p1183
aV{4}{G}
p1184
ag1179
ag1179
ag1179
ag1179
ag1179
ag1179
ag1179
ag1179
ag1179
aV{3}{W}
p1185
aV{2}{G}{G}{G}
p1186
ag1179
ag1179
ag1179
ag1179
aV{2}{B}
p1187
ag1179
ag1179
ag1179
ag1179
ag1179
ag1179
ag1179
ag1179
aV{3}{W}{W}
p1188
aV{1}
p1189
ag1179
aV{2}
p1190
aV{1}{B}
p1191
ag1179
ag1179
ag1179
aV{4}{R}{R}
p1192
ag1179
aV{1}{W}
p1193
aV{2}{W}
p1194
ag1179
ag1179
ag1179
ag1179
aV{2}{W}
p1195
aV{W}
p1196
ag1179
ag1179
ag1179
ag1179
aV{7}
p1197
aV{B}
p1198
aV{7}{B}{B}
p1199
ag1179
aV{3}{U}
p1200
ag1179
ag1179
ag1179
ag1179
ag1179
ag1179
ag1179
ag1179
aV{1}{W}{W}
p1201
aV{W/U}{W/U}{W/U}
p1202
ag1179
ag1179
aV{2}
p1203
aV{3}{G}{G}
p1204
ag1179
ag1179
aV{3}{B}{B}
p1205
ag1179
ag1179
ag1179
ag1179
aV{2}{B}
p1206
ag1179
ag1179
ag1179
ag1179
aV{B}
p1207
aV{3}{U}
p1208
aV{B}
p1209
aV{7}{B}{B}
p1210
ag1179
ag1179
ag1179
ag1179
ag1179
ag1179
ag1179
ag1179
ag1179
ag1179
ag1179
ag1179
ag1179
ag1179
ag1179
ag1179
ag1179
ag1179
ag1179
ag1179
ag1179
ag1179
ag1179
ag1179
aV{4}{B}
p1211
aV{4}{G}
p1212
aV{3}{G}{G}
p1213
ag1179
aV{3}
p1214
ag1179
ag1179
ag1179
ag1179
aV{3}
p1215
ag1179
ag1179
ag1179
ag1179
ag1179
aV{4}{R}
p1216
aV{2}{W}
p1217
aV{2}{B}{B}
p1218
ag1179
ag1179
ag1179
ag1179
ag1179
ag1179
ag1179
ag1179
ag1179
aV{1}{B}
p1219
aV{4}{G}
p1220
aV{2}{B}
p1221
ag1179
ag1179
ag1179
ag1179
ag1179
ag1179
ag1179
aV{3}{U}
p1222
ag1179
aV{3}{W}
p1223
ag1179
ag1179
ag1179
ag1179
ag1179
ag1179
ag1179
ag1179
ag1179
ag1179
ag1179
aV{4}{G}{G}{G}
p1224
ag1179
ag1179
ag1179
ag1179
aV{7}
p1225
ag1179
ag1179
ag1179
ag1179
ag1179
ag1179
ag1179
ag1179
aV{B}
p1226
ag1179
ag1179
ag1179
ag1179
aV{1}{B}
p1227
aV{7}{B}{B}
p1228
ag1179
aV{3}{B}
p1229
aV{1}{W}
p1230
aV{B}
p1231
ag1179
ag1179
ag1179
ag1179
aV{2}{R}
p1232
aV{W/U}{W/U}{W/U}
p1233
aV{6}{B}
p1234
ag1179
ag1179
ag1179
ag1179
ag1179
ag1179
ag1179
ag1179
ag1179
ag1179
aV{1}{B}
p1235
aV{5}{U}
p1236
aV{4}{G}
p1237
ag1179
ag1179
ag1179
ag1179
ag1179
ag1179
ag1179
ag1179
aV{W}
p1238
aV{W}
p1239
ag1179
ag1179
ag1179
aV{W}{U}
p1240
aV{B}
p1241
aV{1}{W}
p1242
ag1179
ag1179
ag1179
ag1179
ag1179
ag1179
ag1179
ag1179
aV{4}{R}
p1243
aV{B}
p1244
aV{U}{U}
p1245
aV{3}{U}
p1246
aV{3}{G}{G}
p1247
aV{6}
p1248
aV{B}
p1249
aV{7}{B}{B}
p1250
ag1179
ag1179
ag1179
ag1179
aV{1}{B}
p1251
aV{1}{W}
p1252
aV{2}{B}
p1253
aV{4}{B}{R}
p1254
ag1179
ag1179
ag1179
ag1179
aV{6}
p1255
aV{2}{B}
p1256
ag1179
ag1179
ag1179
ag1179
ag1179
ag1179
aV{1}{G}
p1257
ag1179
ag1179
ag1179
ag1179
ag1179
ag1179
ag1179
ag1179
ag1179
ag1179
ag1179
aV{2}{B}
p1258
ag1179
ag1179
aV{4}{G}
p1259
aV{6}
p1260
ag1179
aV{G}{G}{U}{U}
p1261
aV{6}
p1262
aV{1}{U}
p1263
aV{1}{W}{U}
p1264
aV{1}{G}{U}
p1265
aV{B}
p1266
aV{3}{W}{W}
p1267
ag1179
ag1179
ag1179
ag1179
ag1179
ag1179
aV{3}{G}{G}
p1268
aV{1}{W}
p1269
ag1179
ag1179
ag1179
ag1179
ag1179
ag1179
ag1179
aV{1}{G}
p1270
ag1179
ag1179
ag1179
ag1179
aV{2}{W}
p1271
aV{2}{U}
p1272
aV{2}{B}
p1273
aV{2}{R}
p1274
aV{2}{G}
p1275
aV{2}{U}
p1276
asS'names'
p1277
(lp1278
VPlains
p1279
aVPlains
p1280
aVPlains
p1281
aVPlains
p1282
aVPlains
p1283
aVPlains
p1284
aVPlumeveil
p1285
aVPlains
p1286
aVPlains
p1287
aVPlains
p1288
aVPlummet
p1289
aVPlains
p1290
aVPlague Rats
p1291
aVPlains
p1292
aVPlains
p1293
aVPlains
p1294
aVPlateau
p1295
aVPlow Through Reito
p1296
aVPlated Rootwalla
p1297
aVPlains
p1298
aVPlains
p1299
aVPlains
p1300
aVPlains
p1301
aVPlains
p1302
aVPlains
p1303
aVPlains
p1304
aVPlains
p1305
aVPlains
p1306
aVPlanar Cleansing
p1307
aVPlummet
p1308
aVPlains
p1309
aVPlains
p1310
aVPlains
p1311
aVPlains
p1312
aVPlague Rats
p1313
aVPlains
p1314
aVPlains
p1315
aVPlains
p1316
aVPlains
p1317
aVPlains
p1318
aVPlains
p1319
aVPlains
p1320
aVPlains
p1321
aVPlover Knights
p1322
aVPlague Stinger
p1323
aVPlains
p1324
aVPlated Seastrider
p1325
aVPlatinum Emperion
p1326
aVPlains
p1327
aVPlains
p1328
aVPlains
p1329
aVPlea for Guidance
p1330
aVPlains
p1331
aVPlanar Cleansing
p1332
aVPlatinum Angel
p1333
aVPlains
p1334
aVPlains
p1335
aVPlains
p1336
aVPlains
p1337
aVPlanar Cleansing
p1338
aVPlummet
p1339
aVPlains
p1340
aVPlains
p1341
aVPlains
p1342
aVPlains
p1343
aVPlatinum Angel
p1344
aVPlague Beetle
p1345
aVPlague Wind
p1346
aVPlains
p1347
aVPlagiarize
p1348
aVPlains
p1349
aVPlains
p1350
aVPlains
p1351
aVPlains
p1352
aVPlains
p1353
aVPlains
p1354
aVPlains
p1355
aVPlateau
p1356
aVPlea for Power
p1357
aVPlumeveil
p1358
aVPlains
p1359
aVPlains
p1360
aVPlague Myr
p1361
aVPlaguemaw Beast
p1362
aVPlains
p1363
aVPlains
p1364
aVPlanar Despair
p1365
aVPlains
p1366
aVPlains
p1367
aVPlains
p1368
aVPlateau
p1369
aVPlague Rats
p1370
aVPlains
p1371
aVPlains
p1372
aVPlains
p1373
aVPlateau
p1374
aVPlagued Rusalka
p1375
aVPlagiarize
p1376
aVPlague Beetle
p1377
aVPlague Wind
p1378
aVPlains
p1379
aVPlains
p1380
aVPlains
p1381
aVPlains
p1382
aVPlains
p1383
aVPlains
p1384
aVPlains
p1385
aVPlanewide Disaster
p1386
aVPlains
p1387
aVPlains
p1388
aVPlains
p1389
aVPlains
p1390
aVPlains
p1391
aVPlains
p1392
aVPlains
p1393
aVPlains
p1394
aVPlains
p1395
aVPlains
p1396
aVPlains
p1397
aVPlains
p1398
aVPlains
p1399
aVPlains
p1400
aVPlains
p1401
aVPlains
p1402
aVPlague Dogs
p1403
aVPlated Spider
p1404
aVPlow Under
p1405
aVPlains
p1406
aVPlague Boiler
p1407
aVPlains
p1408
aVPlains
p1409
aVPlains
p1410
aVPlains
p1411
aVPlague Boiler
p1412
aVPlains
p1413
aVPlains
p1414
aVPlains
p1415
aVPlains
p1416
aVPlains
p1417
aVPlunder
p1418
aVPlated Pegasus
p1419
aVPlague Sliver
p1420
aVPlains
p1421
aVPlains
p1422
aVPlains
p1423
aVPlains
p1424
aVPlains
p1425
aVPlains
p1426
aVPlains
p1427
aVPlains
p1428
aVPlains
p1429
aVPlaguebearer
p1430
aVPlated Rootwalla
p1431
aVPlague Rats
p1432
aVPlains
p1433
aVPlains
p1434
aVPlains
p1435
aVPlateau
p1436
aVPlains
p1437
aVPlains
p1438
aVPlains
p1439
aVPlagiarize
p1440
aVPlains
p1441
aVPlated Geopede
p1442
aVPlains
p1443
aVPlains
p1444
aVPlains
p1445
aVPlains
p1446
aVPlains
p1447
aVPlains
p1448
aVPlains
p1449
aVPlains
p1450
aVPlains
p1451
aVPlains
p1452
aVPlains
p1453
aVPlated Slagwurm
p1454
aVPlains
p1455
aVPlains
p1456
aVPlains
p1457
aVPlains
p1458
aVPlatinum Angel
p1459
aVPlains
p1460
aVPlains
p1461
aVPlains
p1462
aVPlains
p1463
aVPlains
p1464
aVPlains
p1465
aVPlains
p1466
aVPlains
p1467
aVPlague Beetle
p1468
aVPlains
p1469
aVPlains
p1470
aVPlains
p1471
aVPlains
p1472
aVPlague Fiend
p1473
aVPlague Wind
p1474
aVPlains
p1475
aVPlummet
p1476
aVPlanar Collapse
p1477
aVPlague Beetle
p1478
aVPlains
p1479
aVPlains
p1480
aVPlains
p1481
aVPlains
p1482
aVPlanar Chaos
p1483
aVPlumeveil
p1484
aVPlague of Vermin
p1485
aVPlains
p1486
aVPlains
p1487
aVPlains
p1488
aVPlains
p1489
aVPlains
p1490
aVPlains
p1491
aVPlains
p1492
aVPlains
p1493
aVPlains
p1494
aVPlains
p1495
aVPlunge into Darkness
p1496
aVPlasma Elemental
p1497
aVPlated Wurm
p1498
aVPlains
p1499
aVPlains
p1500
aVPlains
p1501
aVPlains
p1502
aVPlains
p1503
aVPlains
p1504
aVPlains
p1505
aVPlains
p1506
aVPlated Sliver
p1507
aVPlanar Guide
p1508
aVPlains
p1509
aVPlains
p1510
aVPlains
p1511
aVPlated Geopede
p1512
aVPlanar Void
p1513
aVPlanar Birth
p1514
aVPlains
p1515
aVPlains
p1516
aVPlains
p1517
aVPlains
p1518
aVPlains
p1519
aVPlains
p1520
aVPlains
p1521
aVPlains
p1522
aVPlagued Rusalka
p1523
aVPlated Seastrider
p1524
aVPlea for Power
p1525
aVPlummet
p1526
aVPlow Under
p1527
aVPlanar Portal
p1528
aVPlague Beetle
p1529
aVPlague Wind
p1530
aVPlains
p1531
aVPlains
p1532
aVPlains
p1533
aVPlains
p1534
aVPlague Witch
p1535
aVPledge of Loyalty
p1536
aVPlague Spitter
p1537
aVPlague Spores
p1538
aVPlains
p1539
aVPlains
p1540
aVPlains
p1541
aVPlains
p1542
aVPlanar Portal
p1543
aVPlague Rats
p1544
aVPlains
p1545
aVPlains
p1546
aVPlains
p1547
aVPlains
p1548
aVPlains
p1549
aVPlains
p1550
aVPlummet
p1551
aVPlains
p1552
aVPlains
p1553
aVPlains
p1554
aVPlains
p1555
aVPlains
p1556
aVPlatinum Angel Avatar
p1557
aVPlatinum Angel Avatar
p1558
aVPlains
p1559
aVPlains
p1560
aVPlains
p1561
aVPlateau
p1562
aVPlague Rats
p1563
aVPlains
p1564
aVPlains
p1565
aVPlated Spider
p1566
aVPlanar Gate
p1567
aVPlateau
p1568
aVPlasm Capture
p1569
aVPlanar Gate
p1570
aVPlaxmanta
p1571
aVPlumes of Peace
p1572
aVPlaxcaster Frogling
p1573
aVPlagued Rusalka
p1574
aVPlover Knights
p1575
aVPlains
p1576
aVPlains
p1577
aVPlains
p1578
aVPlains
p1579
aVPlains
p1580
aVPlains
p1581
aVPlatinum Angel
p1582
aVPlummet
p1583
aVPlains
p1584
aVPlains
p1585
aVPlains
p1586
aVPlains
p1587
aVPlains
p1588
aVPlains
p1589
aVPlains
p1590
aVPlant Elemental
p1591
aVPlains
p1592
aVPlains
p1593
aVPlains
p1594
aVPlains
p1595
aVPlaneswalker's Mirth
p1596
aVPlaneswalker's Mischief
p1597
aVPlaneswalker's Scorn
p1598
aVPlaneswalker's Fury
p1599
aVPlaneswalker's Favor
p1600
aVPlanar Overlay
p1601
asS'toughs'
p1602
(lp1603
S'N/A'
p1604
ag1604
ag1604
ag1604
ag1604
ag1604
aV4
p1605
ag1604
ag1604
ag1604
ag1604
ag1604
aV3
p1606
ag1604
ag1604
ag1604
ag1604
ag1604
ag1606
ag1604
ag1604
ag1604
ag1604
ag1604
ag1604
ag1604
ag1604
ag1604
ag1604
ag1604
ag1604
ag1604
ag1604
ag1604
aV6
p1607
ag1604
ag1604
ag1604
ag1604
ag1604
ag1604
ag1604
ag1604
ag1605
aV1
p1608
ag1604
aV2
p1609
ag1604
ag1604
ag1604
ag1604
ag1604
ag1604
ag1604
ag1604
ag1604
ag1604
ag1604
ag1604
ag1604
ag1604
ag1604
ag1604
ag1604
ag1604
ag1604
ag1606
ag1604
ag1604
ag1604
ag1604
ag1604
ag1604
ag1604
ag1604
ag1604
ag1604
ag1604
ag1604
ag1608
ag1604
ag1604
ag1604
ag1608
ag1604
ag1604
ag1604
ag1604
ag1604
ag1604
ag1604
ag1606
ag1604
ag1604
ag1604
ag1604
ag1608
ag1604
ag1609
ag1604
ag1604
ag1604
ag1604
ag1604
ag1604
ag1604
ag1604
ag1604
ag1604
ag1604
ag1604
ag1604
ag1604
ag1604
ag1604
ag1604
ag1604
ag1604
ag1604
ag1604
ag1604
ag1604
ag1604
ag1604
ag1608
ag1608
ag1604
ag1604
ag1604
ag1604
ag1604
ag1604
ag1604
ag1604
ag1604
ag1604
ag1604
ag1604
ag1604
ag1604
ag1609
ag1606
ag1604
ag1604
ag1604
ag1604
ag1604
ag1604
ag1604
ag1604
ag1604
ag1606
aV5
p1610
ag1606
ag1604
ag1604
ag1604
ag1604
ag1604
ag1604
ag1604
ag1604
ag1604
ag1606
ag1604
ag1604
ag1604
ag1604
ag1604
ag1604
ag1604
ag1604
ag1604
ag1604
ag1604
ag1609
ag1604
ag1604
ag1604
ag1604
ag1604
ag1604
ag1604
ag1604
ag1604
ag1604
ag1604
ag1604
ag1604
ag1609
ag1604
ag1604
ag1604
ag1604
ag1608
ag1604
ag1604
ag1604
ag1604
ag1609
ag1604
ag1604
ag1604
ag1604
ag1604
ag1608
ag1604
ag1604
ag1604
ag1604
ag1604
ag1604
ag1604
ag1604
ag1604
ag1604
ag1604
ag1604
ag1608
ag1610
ag1604
ag1604
ag1604
ag1604
ag1604
ag1604
ag1604
ag1604
ag1608
ag1608
ag1604
ag1604
ag1604
ag1606
ag1604
ag1604
ag1604
ag1604
ag1604
ag1604
ag1604
ag1604
ag1604
ag1604
ag1606
ag1609
ag1604
ag1604
ag1604
ag1604
ag1605
ag1604
ag1604
ag1604
ag1604
ag1604
ag1608
ag1604
ag1609
ag1604
ag1604
ag1604
ag1604
ag1604
ag1604
ag1606
ag1604
ag1604
ag1604
ag1604
ag1604
ag1604
ag1604
ag1604
ag1604
ag1604
ag1604
ag1604
ag1604
ag1604
ag1604
ag1604
ag1604
ag1604
aV*
p1611
ag1604
ag1604
ag1608
ag1604
ag1604
ag1604
ag1604
ag1609
ag1604
ag1608
ag1608
ag1606
ag1604
ag1604
ag1604
ag1604
ag1604
ag1604
ag1604
ag1604
ag1604
ag1604
ag1604
ag1604
ag1604
ag1604
ag1604
ag1605
ag1604
ag1604
ag1604
ag1604
ag1604
ag1604
ag1604
ag1604
ag1604
ag1604
asS'artists'
p1612
(lp1613
VTom Wnerstrand
p1614
aVDouglas Shuler
p1615
aVJohn Avon
p1616
aVJohn Avon
p1617
aVMichael Komarck
p1618
aVMatthew Mitchell
p1619
aVNils Hamm
p1620
aVRob Alexander
p1621
aVHoward Lyon
p1622
aVCharles Urbach
p1623
ag977
ag977
aVAnson Maddocks
p1624
aVJesper Myrfors
p1625
aVJesper Myrfors
p1626
aVJesper Myrfors
p1627
aVDrew Tucker
p1628
aVRon Spencer
p1629
aVRandy Elliott
p1630
aVDouglas Shuler
p1631
aVDouglas Shuler
p1632
aVDouglas Shuler
p1633
aVHe Jiancheng
p1634
aVHe Jiancheng
p1635
aVHe Jiancheng
p1636
aVPat Morrissey
p1637
aVPat Morrissey
p1638
aVPat Morrissey
p1639
aVMichael Komarck
p1640
aVWayne England
p1641
aVNoah Bradley
p1642
aVNils Hamm
p1643
aVCharles Urbach
p1644
aVMike Bierek
p1645
aVAnson Maddocks
p1646
aVJesper Myrfors
p1647
aVJesper Myrfors
p1648
aVJesper Myrfors
p1649
aVZoltan Boros & Gabor Szikszai
p1650
aVScott Bailey
p1651
aVScott Bailey
p1652
aVMichael Komarck
p1653
aVMichael Komarck
p1654
aVQuinton Hoover
p1655
aVRyan Pancoast
p1656
aVJames Paick
p1657
aVIzzy
p1658
aVChris Rahn
p1659
aVJames Paick
p1660
aVJames Paick
p1661
aVJames Paick
p1662
aVTerese Nielsen
p1663
aVJohn Avon
p1664
aVMichael Komarck
p1665
aVBrom
p1666
aVRob Alexander
p1667
aVDon Hazeltine
p1668
aVRyan Pancoast
p1669
aVJonas De Ro
p1670
aVMichael Komarck
p1671
aVPete Venters
p1672
aVTerese Nielsen
p1673
aVTerese Nielsen
p1674
aVTerese Nielsen
p1675
aVTerese Nielsen
p1676
aVBrom
p1677
aVTom Fleming
p1678
aVAlan Pollack
p1679
aVRob Alexander
p1680
aVJeremy Jarvis
p1681
aVJohn Avon
p1682
aVGreg Staples
p1683
aVRichard Wright
p1684
aVTerry Springer
p1685
aVScott Bailey
p1686
aVDana Knutson
p1687
aVEdward P. Beard, Jr.
p1688
aVNoah Bradley
p1689
aVJohn Severin Brassell
p1690
ag977
aVJames Paick
p1691
aVJames Paick
p1692
ag977
ag977
aVFred Fields
p1693
aVDouglas Shuler
p1694
aVMike Sass
p1695
aVHe Jiancheng
p1696
aVHe Jiancheng
p1697
aVCornelius Brudi
p1698
aVEdward P. Beard, Jr.
p1699
aVAnson Maddocks
p1700
aVJesper Myrfors
p1701
aVJesper Myrfors
p1702
aVJesper Myrfors
p1703
aVDrew Tucker
p1704
aVAlex Horley-Orlandelli
p1705
aVJeremy Jarvis
p1706
aVTom Fleming
p1707
aVAlan Pollack
p1708
aVJohn Avon
p1709
aVMatthew Mitchell
p1710
aVJohn Avon
p1711
aVFred Fields
p1712
aVEytan Zana
p1713
aVJung Park
p1714
aVJames Paick
p1715
ag977
ag977
ag977
ag977
ag977
ag977
aVAdam Paquette
p1716
aVJung Park
p1717
aVEytan Zana
p1718
aVRob Alexander
p1719
aVMatthew Mitchell
p1720
aVDavid Martin
p1721
aVDavid Day
p1722
aVGreg Staples
p1723
aVGreg Staples
p1724
aVGreg Staples
p1725
aVGreg Staples
p1726
aVChippy and Matthew Wilson
p1727
aVRon Spencer
p1728
aVEdward P. Beard, Jr.
p1729
aVAdam Paquette
p1730
aVMark Tedin
p1731
aVStephan Martiniere
p1732
aVChristopher Moeller
p1733
aVAnthony S. Waters
p1734
aVRichard Wright
p1735
aVMark Tedin
p1736
aVMichael Komarck
p1737
aVAlan Pollack
p1738
aVDon Hazeltine
p1739
aVEric Peterson
p1740
aVRob Alexander
p1741
aVThomas M. Baxa
p1742
aVGreg Hildebrandt
p1743
aVDave Allsop
p1744
aVRob Alexander
p1745
aVCraig Mullins
p1746
aVJustin Sweet
p1747
aVRichard Wright
p1748
aVYeong-Hao Han
p1749
aVRichard Wright
p1750
aVJohn Avon
p1751
aVAdam Paquette
p1752
aVRichard Wright
p1753
aVRon Spencer
p1754
aVRandy Elliott
p1755
aVAnson Maddocks
p1756
aVJesper Myrfors
p1757
aVJesper Myrfors
p1758
aVJesper Myrfors
p1759
aVDrew Tucker
p1760
aVChristopher Rush
p1761
aVChristopher Rush
p1762
aVChristopher Rush
p1763
aVBen Thompson
p1764
aVJung Park
p1765
aVEric Deschamps
p1766
aVJohn Avon
p1767
aVJohn Avon
p1768
aVJung Park
p1769
aVVronique Meignaud
p1770
aVVronique Meignaud
p1771
aVVincent Proce
p1772
aVVincent Proce
p1773
aVTom Wnerstrand
p1774
aVTom Wnerstrand
p1775
aVDouglas Shuler
p1776
aVFred Fields
p1777
aVJustin Sweet
p1778
aVRob Alexander
p1779
aVMark Tedin
p1780
aVMartina Pilcerova
p1781
aVJohn Avon
p1782
aVBrom
p1783
aVRob Alexander
p1784
aVMichael Komarck
p1785
aVMichael Komarck
p1786
aVMartina Pilcerova
p1787
aVZoltan Boros & Gabor Szikszai
p1788
aVMichael Komarck
p1789
aVMichael Komarck
p1790
aVChippy
p1791
aVMatt Cavotta
p1792
aVScott Bailey
p1793
aVRob Alexander
p1794
aVRob Alexander
p1795
aVJohn Avon
p1796
aVDavid Martin
p1797
aVAlan Pollack
p1798
aVNils Hamm
p1799
aVPete Venters
p1800
aVMark Zug
p1801
aVTom Fleming
p1802
aVJohn Avon
p1803
aVJohn Avon
p1804
aVJohn Avon
p1805
aVJohn Avon
p1806
aVRon Spencer
p1807
aVNils Hamm
p1808
aVCarl Critchlow
p1809
aVOmar Rayyan
p1810
aVLars Grant-West
p1811
aVDave Kendall
p1812
aVLarry MacDougall
p1813
aVJames Paick
p1814
ag977
aVTom Wnerstrand
p1815
aVFred Fields
p1816
aVDouglas Shuler
p1817
aVTom Wnerstrand
p1818
aVJustin Sweet
p1819
aVKev Walker
p1820
aVDaniel Gelon
p1821
aVFred Fields
p1822
aVFred Fields
p1823
aVFred Fields
p1824
aVMartina Pilcerova
p1825
aVLarry MacDougall
p1826
aVRichard Wright
p1827
aVDave Kendall
p1828
aVStephan Martiniere
p1829
aVGreg Staples
p1830
aVEric Peterson
p1831
aVJohn Avon
p1832
aVJames Paick
p1833
aVMartina Pilcerova
p1834
ag977
aVAndrew Goldhawk
p1835
aVAdam Rex
p1836
aVRob Alexander
p1837
aVRob Alexander
p1838
aVRob Alexander
p1839
aVRob Alexander
p1840
aVJesper Myrfors
p1841
aVJesper Myrfors
p1842
aVJesper Myrfors
p1843
aVSteven Belledin
p1844
aVAlex Horley-Orlandelli
p1845
aVIzzy
p1846
aVJohn Severin Brassell
p1847
aVPete Venters
p1848
aVRob Alexander
p1849
aVMark Tedin
p1850
aVMatt Cavotta
p1851
aVAlan Pollack
p1852
aVJohn Avon
p1853
aVMatthew Mitchell
p1854
aVJohn Avon
p1855
aVFred Fields
p1856
aVNelson DeCastro
p1857
aVFranz Vohwinkel
p1858
aVChippy
p1859
aVRandy Gallegos
p1860
aVJohn Avon
p1861
aVBen Thompson
p1862
aVD. J. Cleland-Hura
p1863
aVScott Bailey
p1864
aVMark Tedin
p1865
aVAnson Maddocks
p1866
aVPat Morrissey
p1867
aVPat Morrissey
p1868
aVPat Morrissey
p1869
aVPat Morrissey
p1870
aVFred Fields
p1871
aVFred Fields
p1872
aVPete Venters
p1873
aVSam Burley
p1874
aVTom Wnerstrand
p1875
aVTom Wnerstrand
p1876
aVTom Wnerstrand
p1877
aVTom Wnerstrand
p1878
aVUDON
p1879
aVUDON
p1880
aVAdam Paquette
p1881
aVJung Park
p1882
aVEytan Zana
p1883
aVDrew Tucker
p1884
aVAnson Maddocks
p1885
aVJesper Myrfors
p1886
aVJesper Myrfors
p1887
aVRon Spencer
p1888
aVMelissa A. Benson
p1889
aVCornelius Brudi
p1890
aVChase Stone
p1891
aVMelissa Benson
p1892
aVAlan Pollack
p1893
aVJustin Sweet
p1894
aVGreg Staples
p1895
aVAlex Horley-Orlandelli
p1896
aVQuinton Hoover
p1897
aVWarren Mahy
p1898
aVFred Fields
p1899
aVLarry MacDougall
p1900
aVOmar Rayyan
p1901
aVTerese Nielsen
p1902
aVJohn Avon
p1903
aVBrom
p1904
aVPete Venters
p1905
aVJohn Avon
p1906
aVD. J. Cleland-Hura
p1907
aVRyan Pancoast
p1908
aVHe Jiancheng
p1909
aVHe Jiancheng
p1910
aVHe Jiancheng
p1911
aVJohn Avon
p1912
aVTed Naifeh
p1913
aVDouglas Shuler
p1914
aVDouglas Shuler
p1915
aVDouglas Shuler
p1916
aVDouglas Shuler
p1917
aVJohn Matson
p1918
aVPete Venters
p1919
aVGlen Angus
p1920
aVChristopher Moeller
p1921
aVRebecca Guay
p1922
aVRon Walotsky
p1923
asS'powers'
p1924
(lp1925
g1604
ag1604
ag1604
ag1604
ag1604
ag1604
ag1610
ag1604
ag1604
ag1604
ag1604
ag1604
ag1605
ag1604
ag1604
ag1604
ag1604
ag1604
ag1606
ag1604
ag1604
ag1604
ag1604
ag1604
ag1604
ag1604
ag1604
ag1604
ag1604
ag1604
ag1604
ag1604
ag1604
ag1604
ag1610
ag1604
ag1604
ag1604
ag1604
ag1604
ag1604
ag1604
ag1604
ag1606
aV8
p1926
ag1604
ag1609
ag1604
ag1604
ag1604
ag1604
ag1604
ag1604
ag1604
ag1604
ag1604
ag1604
ag1604
ag1604
ag1604
ag1604
ag1604
ag1604
ag1604
ag1604
ag1604
ag1608
ag1604
ag1604
ag1604
ag1604
ag1604
ag1604
ag1604
ag1604
ag1604
ag1604
ag1604
ag1604
ag1608
ag1604
ag1604
ag1604
ag1608
ag1604
ag1604
ag1604
ag1604
ag1604
ag1604
ag1604
ag1608
ag1604
ag1604
ag1604
ag1604
ag1608
ag1604
ag1609
ag1604
ag1604
ag1604
ag1604
ag1604
ag1604
ag1604
ag1604
ag1604
ag1604
ag1604
ag1604
ag1604
ag1604
ag1604
ag1604
ag1604
ag1604
ag1604
ag1604
ag1604
ag1604
ag1604
ag1604
ag1604
ag1608
ag1609
ag1604
ag1604
ag1604
ag1604
ag1604
ag1604
ag1604
ag1604
ag1604
ag1604
ag1604
ag1604
ag1604
ag1604
ag1608
ag1606
ag1604
ag1604
ag1604
ag1604
ag1604
ag1604
ag1604
ag1604
ag1604
ag1609
ag1606
ag1605
ag1604
ag1604
ag1604
ag1604
ag1604
ag1604
ag1604
ag1604
ag1604
ag1609
ag1604
ag1604
ag1604
ag1604
ag1604
ag1604
ag1604
ag1604
ag1604
ag1604
ag1604
ag1608
ag1604
ag1604
ag1604
ag1604
ag1604
ag1604
ag1604
ag1604
ag1604
ag1604
ag1604
ag1604
ag1604
ag1609
ag1604
ag1604
ag1604
ag1604
ag1608
ag1604
ag1604
ag1604
ag1604
ag1605
ag1604
ag1604
ag1604
ag1604
ag1604
ag1608
ag1604
ag1604
ag1604
ag1604
ag1604
ag1604
ag1604
ag1604
ag1604
ag1604
ag1604
ag1604
ag1608
ag1605
ag1604
ag1604
ag1604
ag1604
ag1604
ag1604
ag1604
ag1604
ag1608
ag1608
ag1604
ag1604
ag1604
ag1608
ag1604
ag1604
ag1604
ag1604
ag1604
ag1604
ag1604
ag1604
ag1604
ag1604
ag1609
ag1608
ag1604
ag1604
ag1604
ag1604
ag1605
ag1604
ag1604
ag1604
ag1604
ag1604
ag1608
ag1604
ag1609
ag1604
ag1604
ag1604
ag1604
ag1604
ag1604
ag1608
ag1604
ag1604
ag1604
ag1604
ag1604
ag1604
ag1604
ag1604
ag1604
ag1604
ag1604
ag1604
ag1604
ag1604
ag1604
ag1604
ag1604
ag1604
ag1611
ag1604
ag1604
ag1608
ag1604
ag1604
ag1604
ag1604
ag1609
ag1604
ag1608
ag1608
ag1606
ag1604
ag1604
ag1604
ag1604
ag1604
ag1604
ag1604
ag1604
ag1604
ag1604
ag1604
ag1604
ag1604
ag1604
ag1604
ag1606
ag1604
ag1604
ag1604
ag1604
ag1604
ag1604
ag1604
ag1604
ag1604
ag1604
asS'types'
p1927
(lp1928
VBasic Land - Plains
p1929
aVBasic Land - Plains
p1930
aVBasic Land - Plains
p1931
aVBasic Land - Plains
p1932
aVBasic Land - Plains
p1933
aVBasic Land - Plains
p1934
aVCreature - Elemental
p1935
aVBasic Land - Plains
p1936
aVBasic Land - Plains
p1937
aVBasic Land - Plains
p1938
aVInstant
p1939
aVBasic Land - Plains
p1940
aVCreature - Rat
p1941
aVBasic Land - Plains
p1942
aVBasic Land - Plains
p1943
aVBasic Land - Plains
p1944
aVLand - Mountain Plains
p1945
aVInstant - Arcane
p1946
aVCreature - Lizard
p1947
aVBasic Land - Plains
p1948
aVBasic Land - Plains
p1949
aVBasic Land - Plains
p1950
aVBasic Land - Plains
p1951
aVBasic Land - Plains
p1952
aVBasic Land - Plains
p1953
aVBasic Land - Plains
p1954
aVBasic Land - Plains
p1955
aVBasic Land - Plains
p1956
aVSorcery
p1957
aVInstant
p1958
aVBasic Land - Plains
p1959
aVBasic Land - Plains
p1960
aVBasic Land - Plains
p1961
aVBasic Land - Plains
p1962
aVCreature - Rat
p1963
aVBasic Land - Plains
p1964
aVBasic Land - Plains
p1965
aVBasic Land - Plains
p1966
aVBasic Land - Plains
p1967
aVBasic Land - Plains
p1968
aVBasic Land - Plains
p1969
aVBasic Land - Plains
p1970
aVBasic Land - Plains
p1971
aVCreature - Kithkin Knight
p1972
aVCreature - Insect Horror
p1973
aVBasic Land - Plains
p1974
aVCreature - Beast
p1975
aVArtifact Creature - Golem
p1976
aVBasic Land - Plains
p1977
aVBasic Land - Plains
p1978
aVBasic Land - Plains
p1979
aVSorcery
p1980
aVBasic Land - Plains
p1981
aVSorcery
p1982
aVArtifact Creature - Angel
p1983
aVBasic Land - Plains
p1984
aVBasic Land - Plains
p1985
aVBasic Land - Plains
p1986
aVBasic Land - Plains
p1987
aVSorcery
p1988
aVInstant
p1989
aVBasic Land - Plains
p1990
aVBasic Land - Plains
p1991
aVBasic Land - Plains
p1992
aVBasic Land - Plains
p1993
aVArtifact Creature - Angel
p1994
aVCreature - Insect
p1995
aVSorcery
p1996
aVBasic Land - Plains
p1997
aVInstant
p1998
aVBasic Land - Plains
p1999
aVBasic Land - Plains
p2000
aVBasic Land - Plains
p2001
aVBasic Land - Plains
p2002
aVBasic Land - Plains
p2003
aVBasic Land - Plains
p2004
aVBasic Land - Plains
p2005
aVLand - Mountain Plains
p2006
aVSorcery
p2007
aVCreature - Elemental
p2008
aVBasic Land - Plains
p2009
aVBasic Land - Plains
p2010
aVArtifact Creature - Myr
p2011
aVCreature - Beast
p2012
aVBasic Land - Plains
p2013
aVBasic Land - Plains
p2014
aVSorcery
p2015
aVBasic Land - Plains
p2016
aVBasic Land - Plains
p2017
aVBasic Land - Plains
p2018
aVLand - Mountain Plains
p2019
aVCreature - Rat
p2020
aVBasic Land - Plains
p2021
aVBasic Land - Plains
p2022
aVBasic Land - Plains
p2023
aVLand - Mountain Plains
p2024
aVCreature - Spirit
p2025
aVInstant
p2026
aVCreature - Insect
p2027
aVSorcery
p2028
aVBasic Land - Plains
p2029
aVBasic Land - Plains
p2030
aVBasic Land - Plains
p2031
aVBasic Land - Plains
p2032
aVBasic Land - Plains
p2033
aVBasic Land - Plains
p2034
aVBasic Land - Plains
p2035
aVPhenomenon
p2036
aVBasic Land - Plains
p2037
aVBasic Land - Plains
p2038
aVBasic Land - Plains
p2039
aVBasic Land - Plains
p2040
aVBasic Land - Plains
p2041
aVBasic Land - Plains
p2042
aVBasic Land - Plains
p2043
aVBasic Land - Plains
p2044
aVBasic Land - Plains
p2045
aVBasic Land - Plains
p2046
aVBasic Land - Plains
p2047
aVBasic Land - Plains
p2048
aVBasic Land - Plains
p2049
aVBasic Land - Plains
p2050
aVBasic Land - Plains
p2051
aVBasic Land - Plains
p2052
aVCreature - Zombie Hound
p2053
aVCreature - Spider
p2054
aVSorcery
p2055
aVBasic Land - Plains
p2056
aVArtifact
p2057
aVBasic Land - Plains
p2058
aVBasic Land - Plains
p2059
aVBasic Land - Plains
p2060
aVBasic Land - Plains
p2061
aVArtifact
p2062
aVBasic Land - Plains
p2063
aVBasic Land - Plains
p2064
aVBasic Land - Plains
p2065
aVBasic Land - Plains
p2066
aVBasic Land - Plains
p2067
aVSorcery
p2068
aVCreature - Pegasus
p2069
aVCreature - Sliver
p2070
aVBasic Land - Plains
p2071
aVBasic Land - Plains
p2072
aVBasic Land - Plains
p2073
aVBasic Land - Plains
p2074
aVBasic Land - Plains
p2075
aVBasic Land - Plains
p2076
aVBasic Land - Plains
p2077
aVBasic Land - Plains
p2078
aVBasic Land - Plains
p2079
aVCreature - Zombie
p2080
aVCreature - Lizard
p2081
aVCreature - Rat
p2082
aVBasic Land - Plains
p2083
aVBasic Land - Plains
p2084
aVBasic Land - Plains
p2085
aVLand - Mountain Plains
p2086
aVBasic Land - Plains
p2087
aVBasic Land - Plains
p2088
aVBasic Land - Plains
p2089
aVInstant
p2090
aVBasic Land - Plains
p2091
aVCreature - Insect
p2092
aVBasic Land - Plains
p2093
aVBasic Land - Plains
p2094
aVBasic Land - Plains
p2095
aVBasic Land - Plains
p2096
aVBasic Land - Plains
p2097
aVBasic Land - Plains
p2098
aVBasic Land - Plains
p2099
aVBasic Land - Plains
p2100
aVBasic Land - Plains
p2101
aVBasic Land - Plains
p2102
aVBasic Land - Plains
p2103
aVCreature - Wurm
p2104
aVBasic Land - Plains
p2105
aVBasic Land - Plains
p2106
aVBasic Land - Plains
p2107
aVBasic Land - Plains
p2108
aVArtifact Creature - Angel
p2109
aVBasic Land - Plains
p2110
aVBasic Land - Plains
p2111
aVBasic Land - Plains
p2112
aVBasic Land - Plains
p2113
aVBasic Land - Plains
p2114
aVBasic Land - Plains
p2115
aVBasic Land - Plains
p2116
aVBasic Land - Plains
p2117
aVCreature - Insect
p2118
aVBasic Land - Plains
p2119
aVBasic Land - Plains
p2120
aVBasic Land - Plains
p2121
aVBasic Land - Plains
p2122
aVCreature - Insect
p2123
aVSorcery
p2124
aVBasic Land - Plains
p2125
aVInstant
p2126
aVEnchantment
p2127
aVCreature - Insect
p2128
aVBasic Land - Plains
p2129
aVBasic Land - Plains
p2130
aVBasic Land - Plains
p2131
aVBasic Land - Plains
p2132
aVEnchantment
p2133
aVCreature - Elemental
p2134
aVSorcery
p2135
aVBasic Land - Plains
p2136
aVBasic Land - Plains
p2137
aVBasic Land - Plains
p2138
aVBasic Land - Plains
p2139
aVBasic Land - Plains
p2140
aVBasic Land - Plains
p2141
aVBasic Land - Plains
p2142
aVBasic Land - Plains
p2143
aVBasic Land - Plains
p2144
aVBasic Land - Plains
p2145
aVInstant
p2146
aVCreature - Elemental
p2147
aVCreature - Wurm
p2148
aVBasic Land - Plains
p2149
aVBasic Land - Plains
p2150
aVBasic Land - Plains
p2151
aVBasic Land - Plains
p2152
aVBasic Land - Plains
p2153
aVBasic Land - Plains
p2154
aVBasic Land - Plains
p2155
aVBasic Land - Plains
p2156
aVCreature - Sliver
p2157
aVCreature - Human Cleric
p2158
aVBasic Land - Plains
p2159
aVBasic Land - Plains
p2160
aVBasic Land - Plains
p2161
aVCreature - Insect
p2162
aVEnchantment
p2163
aVSorcery
p2164
aVBasic Land - Plains
p2165
aVBasic Land - Plains
p2166
aVBasic Land - Plains
p2167
aVBasic Land - Plains
p2168
aVBasic Land - Plains
p2169
aVBasic Land - Plains
p2170
aVBasic Land - Plains
p2171
aVBasic Land - Plains
p2172
aVCreature - Spirit
p2173
aVCreature - Beast
p2174
aVSorcery
p2175
aVInstant
p2176
aVSorcery
p2177
aVArtifact
p2178
aVCreature - Insect
p2179
aVSorcery
p2180
aVBasic Land - Plains
p2181
aVBasic Land - Plains
p2182
aVBasic Land - Plains
p2183
aVBasic Land - Plains
p2184
aVCreature - Elf Spellshaper
p2185
aVEnchantment - Aura
p2186
aVCreature - Horror
p2187
aVSorcery
p2188
aVBasic Land - Plains
p2189
aVBasic Land - Plains
p2190
aVBasic Land - Plains
p2191
aVBasic Land - Plains
p2192
aVArtifact
p2193
aVCreature - Rat
p2194
aVBasic Land - Plains
p2195
aVBasic Land - Plains
p2196
aVBasic Land - Plains
p2197
aVBasic Land - Plains
p2198
aVBasic Land - Plains
p2199
aVBasic Land - Plains
p2200
aVInstant
p2201
aVBasic Land - Plains
p2202
aVBasic Land - Plains
p2203
aVBasic Land - Plains
p2204
aVBasic Land - Plains
p2205
aVBasic Land - Plains
p2206
aVVanguard
p2207
aVVanguard
p2208
aVBasic Land - Plains
p2209
aVBasic Land - Plains
p2210
aVBasic Land - Plains
p2211
aVLand - Mountain Plains
p2212
aVCreature - Rat
p2213
aVBasic Land - Plains
p2214
aVBasic Land - Plains
p2215
aVCreature - Spider
p2216
aVArtifact
p2217
aVLand - Mountain Plains
p2218
aVInstant
p2219
aVArtifact
p2220
aVCreature - Beast
p2221
aVEnchantment - Aura
p2222
aVCreature - Frog Mutant
p2223
aVCreature - Spirit
p2224
aVCreature - Kithkin Knight
p2225
aVBasic Land - Plains
p2226
aVBasic Land - Plains
p2227
aVBasic Land - Plains
p2228
aVBasic Land - Plains
p2229
aVBasic Land - Plains
p2230
aVBasic Land - Plains
p2231
aVArtifact Creature - Angel
p2232
aVInstant
p2233
aVBasic Land - Plains
p2234
aVBasic Land - Plains
p2235
aVBasic Land - Plains
p2236
aVBasic Land - Plains
p2237
aVBasic Land - Plains
p2238
aVBasic Land - Plains
p2239
aVBasic Land - Plains
p2240
aVCreature - Plant Elemental
p2241
aVBasic Land - Plains
p2242
aVBasic Land - Plains
p2243
aVBasic Land - Plains
p2244
aVBasic Land - Plains
p2245
aVEnchantment
p2246
aVEnchantment
p2247
aVEnchantment
p2248
aVEnchantment
p2249
aVEnchantment
p2250
aVSorcery
p2251
asS'numbers'
p2252
(lp2253
V86
p2254
aV87
p2255
aV299
p2256
aV300
p2257
aV301
p2258
aV302
p2259
aV218
p2260
aV230
p2261
aV232
p2262
aV233
p2263
aV187
p2264
aV231
p2265
aV199
p2266
aV200
p2267
aV201
p2268
aV202
p2269
aV203
p2270
aV22
p2271
aV11
p2272
aV103
p2273
aV104
p2274
aV105
p2275
aV106
p2276
aV107
p2277
aV108
p2278
aV109
p2279
aV110
p2280
aV111
p2281
aV26
p2282
aV179
p2283
aV231
p2284
aV230
p2285
aV232
p2286
aV233
p2287
aV296
p2288
aV297
p2289
aV298
p2290
aV299
p2291
aV40
p2292
aV39
p2293
aV40
p2294
aV41
p2295
aV42
p2296
aV20
p2297
aV75
p2298
aV231
p2299
aV38
p2300
aV193
p2301
aV230
p2302
aV232
p2303
aV233
p2304
aV24
p2305
aV231
p2306
aV24
p2307
aV218
p2308
aV230
p2309
aV232
p2310
aV233
p2311
aV231
p2312
aV29
p2313
aV188
p2314
aV303
p2315
aV304
p2316
aV305
p2317
aV306
p2318
aV339
p2319
aV168
p2320
aV169
p2321
aV364
p2322
aV97
p2323
aV365
p2324
aV366
p2325
aV367
p2326
aV331
p2327
aV332
p2328
aV333
p2329
aV334
p2330
aV308
p2331
aV87
p2332
ag977
aV146
p2333
aV147
p2334
aV125
p2335
aV87
p2336
aV35
p2337
aV36
p2338
aV50
p2339
aV216
p2340
aV217
p2341
aV218
p2342
aV209
p2343
aV214
p2344
aV215
p2345
aV216
p2346
aV217
p2347
aV218
p2348
aV56
p2349
aV89
p2350
aV154
p2351
aV155
p2352
aV331
p2353
aV332
p2354
aV333
p2355
aV334
p2356
aV232
p2357
aV230
p2358
aV231
p2359
aV27
p2360
aV135
p2361
aV132
p2362
aV133
p2363
aV134
p2364
aV136
p2365
aV38
p2366
aV39
p2367
aV40
p2368
aV331
p2369
aV332
p2370
aV333
p2371
aV334
p2372
aV289
p2373
aV287
p2374
aV288
p2375
aV290
p2376
aV66
p2377
aV116
p2378
aV117
p2379
aV19
p2380
aV269
p2381
aV287
p2382
aV288
p2383
aV289
p2384
aV290
p2385
aV254
p2386
aV338
p2387
aV331
p2388
aV332
p2389
aV333
p2390
aV334
p2391
aV174
p2392
aV34
p2393
aV124
p2394
aV282
p2395
aV283
p2396
aV284
p2397
aV285
p2398
aV251
p2399
aV253
p2400
aV250
p2401
aV252
p2402
aV254
p2403
aV71
p2404
aV116
p2405
aV201
p2406
aV202
p2407
aV203
p2408
aV204
p2409
aV205
p2410
aV334
p2411
aV335
p2412
aV336
p2413
aV44
p2414
aV231
p2415
aV141
p2416
aV230
p2417
aV230
p2418
aV231
p2419
aV232
p2420
aV232
p2421
aV233
p2422
aV233
p2423
aV331
p2424
aV332
p2425
aV333
p2426
aV334
p2427
aV127
p2428
aV288
p2429
aV287
p2430
aV289
p2431
aV290
p2432
aV228
p2433
aV35
p2434
aV36
p2435
aV37
p2436
aV38
p2437
aV230
p2438
aV231
p2439
aV232
p2440
aV233
p2441
aV155
p2442
aV341
p2443
aV342
p2444
aV343
p2445
aV344
p2446
aV73
p2447
aV74
p2448
aV251
p2449
aV192
p2450
aV18
p2451
aV64
p2452
aV230
p2453
aV229
p2454
aV231
p2455
aV232
p2456
aV97
p2457
aV145
p2458
aV73
p2459
aV282
p2460
aV283
p2461
aV284
p2462
aV285
p2463
aV167
p2464
aV166
p2465
aV166
p2466
aV167
p2467
aV168
p2468
aV169
p2469
aV57
p2470
aV34
p2471
aV71
p2472
aV135
p2473
aV136
p2474
aV137
p2475
aV142
p2476
aV143
p2477
aV144
p2478
aV145
p2479
aV146
p2480
aV19
p2481
aV18
p2482
aV38
p2483
aV39
p2484
aV40
p2485
ag977
aV149
p2486
aV31
p2487
aV331
p2488
aV332
p2489
aV333
p2490
aV334
p2491
aV181
p2492
aV182
p2493
aV183
p2494
aV231
p2495
aV121
p2496
aV103
p2497
aV24
p2498
aV173
p2499
aV272
p2500
aV311
p2501
aV154
p2502
aV155
p2503
aV331
p2504
aV332
p2505
aV333
p2506
aV334
p2507
aV66
p2508
aV24
p2509
aV119
p2510
aV260
p2511
aV331
p2512
aV332
p2513
aV333
p2514
aV334
p2515
aV308
p2516
aV363
p2517
aV364
p2518
aV365
p2519
aV366
p2520
aV367
p2521
aV137
p2522
aV138
p2523
aV65
p2524
aV251
p2525
aV316
p2526
aV317
p2527
aV318
p2528
aV319
p2529
aV108
p2530
aV40
p2531
aV250
p2532
aV251
p2533
aV252
p2534
aV60
p2535
aV84
p2536
aV222
p2537
aV294
p2538
aV67
p2539
aV221
p2540
aV249
p2541
aV91
p2542
aV14
p2543
aV29
p2544
aV124
p2545
aV123
p2546
aV46
p2547
aV35
p2548
aV282
p2549
aV283
p2550
aV284
p2551
aV285
p2552
aV37
p2553
aV231
p2554
aV212
p2555
aV190
p2556
aV230
p2557
aV232
p2558
aV233
p2559
aV166
p2560
aV167
p2561
aV168
p2562
aV40
p2563
aV50
p2564
aV174
p2565
aV175
p2566
aV176
p2567
aV177
p2568
aV12
p2569
aV29
p2570
aV52
p2571
aV70
p2572
aV86
p2573
aV28
p2574
as.