(dp0
S'rares'
p1
(lp2
VCommon
p3
asS'editns'
p4
(lp5
VDarksteel
p6
asS'ids'
p7
(lp8
V49035
p9
asS'texts'
p10
(lp11
VFlying<br>Sacrifice Pteron Ghost: Regenerate target artifact.
p12
asS'costs'
p13
(lp14
V{1}{W}
p15
asS'names'
p16
(lp17
VPteron Ghost
p18
asS'toughs'
p19
(lp20
V5
p21
asS'artists'
p22
(lp23
VEdward P. Beard, Jr.
p24
asS'powers'
p25
(lp26
V0
p27
asS'types'
p28
(lp29
VCreature - Spirit
p30
asS'numbers'
p31
(lp32
V10
p33
as.