(dp0
S'rares'
p1
(lp2
VRare
p3
aVRare
p4
aVCommon
p5
aVCommon
p6
aVUncommon
p7
aVUncommon
p8
aVCommon
p9
aVRare
p10
aVRare
p11
aVCommon
p12
aVUncommon
p13
aVCommon
p14
aVUncommon
p15
aVUncommon
p16
aVRare
p17
aVCommon
p18
aVRare
p19
aVRare
p20
aVUncommon
p21
aVCommon
p22
aVUncommon
p23
aVUncommon
p24
aVUncommon
p25
aVCommon
p26
aVRare
p27
aVUncommon
p28
aVUncommon
p29
aVRare
p30
aVRare
p31
aVUncommon
p32
aVCommon
p33
aVRare
p34
aVUncommon
p35
aVUncommon
p36
aVRare
p37
aVRare
p38
aVRare
p39
aVCommon
p40
aVUncommon
p41
aVCommon
p42
aVRare
p43
aVCommon
p44
aVUncommon
p45
aVCommon
p46
aVCommon
p47
aVUncommon
p48
aVRare
p49
aVCommon
p50
aVCommon
p51
aVCommon
p52
aVCommon
p53
aVCommon
p54
aVCommon
p55
aVCommon
p56
aVCommon
p57
aVUncommon
p58
aVUncommon
p59
aVCommon
p60
aVCommon
p61
aVUncommon
p62
aVCommon
p63
aVCommon
p64
aVCommon
p65
aVCommon
p66
aVUncommon
p67
aVCommon
p68
aVCommon
p69
aVUncommon
p70
aVRare
p71
aVCommon
p72
aVUncommon
p73
aVUncommon
p74
aVRare
p75
aVUncommon
p76
aVUncommon
p77
aVRare
p78
aVUncommon
p79
aVRare
p80
aVUncommon
p81
aVCommon
p82
aVUncommon
p83
aVCommon
p84
aVCommon
p85
aVUncommon
p86
aVUncommon
p87
aVCommon
p88
aVCommon
p89
aVRare
p90
aVUncommon
p91
aVRare
p92
aVUncommon
p93
aVCommon
p94
aVRare
p95
aVRare
p96
aVRare
p97
aVCommon
p98
aVCommon
p99
aVCommon
p100
aVUncommon
p101
aVCommon
p102
aVUncommon
p103
aVRare
p104
aVUncommon
p105
aVUncommon
p106
aVRare
p107
aVCommon
p108
aVUncommon
p109
aVUncommon
p110
aVCommon
p111
aVRare
p112
aVUncommon
p113
aVCommon
p114
aVUncommon
p115
aVUncommon
p116
aVUncommon
p117
aVCommon
p118
aVUncommon
p119
aVCommon
p120
aVRare
p121
aVCommon
p122
aVCommon
p123
aVCommon
p124
aVUncommon
p125
aVCommon
p126
aVCommon
p127
aVUncommon
p128
aVCommon
p129
aVCommon
p130
aVUncommon
p131
aVRare
p132
aVUncommon
p133
aVCommon
p134
aVRare
p135
aVUncommon
p136
aVRare
p137
aVCommon
p138
aVUncommon
p139
aVRare
p140
aVCommon
p141
aVUncommon
p142
aVRare
p143
aVCommon
p144
aVRare
p145
aVRare
p146
aVCommon
p147
aVUncommon
p148
aVUncommon
p149
aVUncommon
p150
aVUncommon
p151
aVCommon
p152
aVRare
p153
aVUncommon
p154
aVCommon
p155
aVUncommon
p156
aVCommon
p157
aVRare
p158
aVCommon
p159
aVRare
p160
aVUncommon
p161
aVRare
p162
aVCommon
p163
aVRare
p164
aVCommon
p165
aVCommon
p166
aVRare
p167
aVUncommon
p168
aVUncommon
p169
aVUncommon
p170
aVUncommon
p171
aVUncommon
p172
aVUncommon
p173
aVUncommon
p174
aVCommon
p175
aVUncommon
p176
aVUncommon
p177
aVRare
p178
aVCommon
p179
aVCommon
p180
aVUncommon
p181
aVRare
p182
aVRare
p183
aVRare
p184
aVRare
p185
aVCommon
p186
aVUncommon
p187
aVRare
p188
aVCommon
p189
aVUncommon
p190
aVCommon
p191
aVUncommon
p192
aVCommon
p193
aVUncommon
p194
aVCommon
p195
aVUncommon
p196
aVUncommon
p197
aVRare
p198
aVRare
p199
aVUncommon
p200
aVRare
p201
aVCommon
p202
aVCommon
p203
aVRare
p204
aVRare
p205
aVCommon
p206
aVCommon
p207
aVRare
p208
aVCommon
p209
aVCommon
p210
aVCommon
p211
aVUncommon
p212
aVCommon
p213
aVUncommon
p214
aVRare
p215
aVRare
p216
aVCommon
p217
aVRare
p218
aVCommon
p219
aVUncommon
p220
aVRare
p221
aVCommon
p222
aVCommon
p223
aVCommon
p224
aVCommon
p225
aVCommon
p226
aVCommon
p227
aVCommon
p228
aVRare
p229
aVCommon
p230
aVRare
p231
aVRare
p232
aVCommon
p233
aVRare
p234
aVCommon
p235
aVCommon
p236
aVRare
p237
aVCommon
p238
aVUncommon
p239
aVRare
p240
aVUncommon
p241
aVCommon
p242
aVRare
p243
aVUncommon
p244
aVCommon
p245
aVRare
p246
aVUncommon
p247
aVRare
p248
aVUncommon
p249
aVCommon
p250
aVCommon
p251
aVRare
p252
aVRare
p253
aVRare
p254
aVUncommon
p255
aVRare
p256
aVRare
p257
aVCommon
p258
aVCommon
p259
aVRare
p260
aVRare
p261
aVCommon
p262
aVRare
p263
aVUncommon
p264
aVUncommon
p265
aVRare
p266
aVUncommon
p267
aVUncommon
p268
aVRare
p269
aVUncommon
p270
aVCommon
p271
aVUncommon
p272
aVRare
p273
aVCommon
p274
aVUncommon
p275
aVUncommon
p276
aVRare
p277
aVRare
p278
aVUncommon
p279
aVUncommon
p280
aVCommon
p281
aVCommon
p282
aVUncommon
p283
aVUncommon
p284
aVRare
p285
aVUncommon
p286
aVRare
p287
aVCommon
p288
aVRare
p289
aVCommon
p290
aVCommon
p291
aVUncommon
p292
aVRare
p293
aVCommon
p294
aVCommon
p295
aVCommon
p296
aVRare
p297
aVUncommon
p298
aVUncommon
p299
aVCommon
p300
aVCommon
p301
aVRare
p302
aVCommon
p303
aVCommon
p304
aVRare
p305
aVUncommon
p306
aVCommon
p307
aVCommon
p308
aVRare
p309
aVUncommon
p310
aVCommon
p311
aVUncommon
p312
aVRare
p313
aVCommon
p314
aVUncommon
p315
aVRare
p316
aVRare
p317
aVUncommon
p318
aVUncommon
p319
aVCommon
p320
aVRare
p321
aVCommon
p322
aVUncommon
p323
aVRare
p324
aVUncommon
p325
aVCommon
p326
aVCommon
p327
aVCommon
p328
aVUncommon
p329
aVUncommon
p330
aVCommon
p331
aVUncommon
p332
aVCommon
p333
aVUncommon
p334
aVRare
p335
aVUncommon
p336
aVCommon
p337
aVCommon
p338
aVCommon
p339
aVCommon
p340
aVUncommon
p341
aVRare
p342
aVCommon
p343
aVRare
p344
aVUncommon
p345
aVUncommon
p346
aVCommon
p347
aVCommon
p348
aVRare
p349
aVCommon
p350
aVUncommon
p351
aVCommon
p352
aVRare
p353
aVUncommon
p354
aVUncommon
p355
aVRare
p356
aVRare
p357
aVCommon
p358
aVCommon
p359
aVCommon
p360
aVCommon
p361
aVRare
p362
aVCommon
p363
aVUncommon
p364
aVUncommon
p365
aVRare
p366
aVRare
p367
aVUncommon
p368
aVUncommon
p369
aVCommon
p370
aVCommon
p371
aVUncommon
p372
aVRare
p373
aVRare
p374
aVRare
p375
aVCommon
p376
aVSpecial
p377
aVMythic Rare
p378
aVCommon
p379
aVUncommon
p380
aVCommon
p381
aVUncommon
p382
aVCommon
p383
aVUncommon
p384
aVUncommon
p385
aVRare
p386
aVUncommon
p387
aVRare
p388
aVRare
p389
aVCommon
p390
aVCommon
p391
aVCommon
p392
aVCommon
p393
aVUncommon
p394
aVRare
p395
aVRare
p396
aVMythic Rare
p397
aVRare
p398
aVRare
p399
aVRare
p400
aVUncommon
p401
aVUncommon
p402
aVRare
p403
aVRare
p404
aVUncommon
p405
aVRare
p406
aVUncommon
p407
aVCommon
p408
aVRare
p409
aVRare
p410
aVUncommon
p411
aVUncommon
p412
aVUncommon
p413
aVCommon
p414
aVRare
p415
aVRare
p416
aVRare
p417
aVUncommon
p418
aVUncommon
p419
aVUncommon
p420
aVRare
p421
aVUncommon
p422
aVRare
p423
aVUncommon
p424
aVRare
p425
aVRare
p426
aVCommon
p427
aVUncommon
p428
aVCommon
p429
aVCommon
p430
aVUncommon
p431
aVUncommon
p432
aVCommon
p433
aVRare
p434
aVSpecial
p435
aVUncommon
p436
aVRare
p437
aVUncommon
p438
aVCommon
p439
aVCommon
p440
aVCommon
p441
aVUncommon
p442
aVRare
p443
asS'editns'
p444
(lp445
VMagic: The Gathering-Commander
p446
aVMagic: The Gathering-Commander
p447
aVMagic: The Gathering-Commander
p448
aVMagic: The Gathering-Commander
p449
aVMagic: The Gathering-Commander
p450
aVMagic 2012
p451
aVMagic 2012
p452
aVMagic 2012
p453
aVMagic 2012
p454
aVLimited Edition Beta
p455
aVLimited Edition Beta
p456
aVLimited Edition Beta
p457
aVLimited Edition Beta
p458
aVLimited Edition Beta
p459
aVLimited Edition Beta
p460
aVSaviors of Kamigawa
p461
aVSaviors of Kamigawa
p462
aVSaviors of Kamigawa
p463
aVBattle Royale Box Set
p464
aVBattle Royale Box Set
p465
aVMorningtide
p466
aVMorningtide
p467
aVMorningtide
p468
aVMorningtide
p469
aVMorningtide
p470
aVMorningtide
p471
aVMorningtide
p472
aVMorningtide
p473
aVMagic 2013
p474
aVMagic 2013
p475
aVMagic 2013
p476
aVMagic 2013
p477
aVMagic 2013
p478
aVMagic 2013
p479
aVFourth Edition
p480
aVFourth Edition
p481
aVFourth Edition
p482
aVFourth Edition
p483
aVFourth Edition
p484
aVFourth Edition
p485
aVFourth Edition
p486
aVPlanar Chaos
p487
aVPlanar Chaos
p488
aVPlanar Chaos
p489
aVPlanar Chaos
p490
aVPlanar Chaos
p491
aVPlanar Chaos
p492
aVDuel Decks: Ajani vs. Nicol Bolas
p493
aVDuel Decks: Ajani vs. Nicol Bolas
p494
aVAntiquities
p495
aVAntiquities
p496
aVAlliances
p497
aVAlliances
p498
aVAlliances
p499
aVAlliances
p500
aVDuel Decks: Knights vs. Dragons
p501
aVDuel Decks: Knights vs. Dragons
p502
aVScars of Mirrodin
p503
aVScars of Mirrodin
p504
aVBorn of the Gods
p505
aVBorn of the Gods
p506
aVBorn of the Gods
p507
aVBorn of the Gods
p508
aVMagic 2010
p509
aVMagic 2010
p510
aVMagic 2014 Core Set
p511
aVTempest
p512
aVTempest
p513
aVTempest
p514
aVTempest
p515
aVTempest
p516
aVTempest
p517
aVTempest
p518
aVTempest
p519
aVTempest
p520
aVTenth Edition
p521
aVTenth Edition
p522
aVTenth Edition
p523
aVTenth Edition
p524
aVTenth Edition
p525
aVTenth Edition
p526
aVTenth Edition
p527
aVTenth Edition
p528
aVTenth Edition
p529
aVMercadian Masques
p530
aVMercadian Masques
p531
aVMercadian Masques
p532
aVMercadian Masques
p533
aVMercadian Masques
p534
aVVintage Masters
p535
aVVintage Masters
p536
aVVintage Masters
p537
aVVintage Masters
p538
aVVintage Masters
p539
aVVintage Masters
p540
aVVintage Masters
p541
aVVintage Masters
p542
aVVintage Masters
p543
aVVintage Masters
p544
aVModern Masters
p545
aVModern Masters
p546
aVModern Masters
p547
aVModern Masters
p548
aVThe Dark
p549
aVMirrodin Besieged
p550
aVApocalypse
p551
aVMasters Edition III
p552
aVMasters Edition III
p553
aVMasters Edition III
p554
aVMasters Edition III
p555
aVMasters Edition III
p556
aVRevised Edition
p557
aVRevised Edition
p558
aVRevised Edition
p559
aVRevised Edition
p560
aVRevised Edition
p561
aVRevised Edition
p562
aVRevised Edition
p563
aVRevised Edition
p564
aVMasters Edition II
p565
aVMasters Edition II
p566
aVMasters Edition II
p567
aVMasters Edition II
p568
aVGuildpact
p569
aVGuildpact
p570
aVGuildpact
p571
aVNinth Edition
p572
aVNinth Edition
p573
aVNinth Edition
p574
aVNinth Edition
p575
aVNinth Edition
p576
aVNinth Edition
p577
aVNinth Edition
p578
aVNinth Edition
p579
aVEventide
p580
aVEventide
p581
aVEventide
p582
aVEventide
p583
aVEventide
p584
aVConflux
p585
aVAvacyn Restored
p586
aVAvacyn Restored
p587
aVAvacyn Restored
p588
aVAvacyn Restored
p589
aVPlanechase 2012 Edition
p590
aVDuel Decks: Sorin vs. Tibalt
p591
aVDuel Decks: Sorin vs. Tibalt
p592
aVDuel Decks: Sorin vs. Tibalt
p593
aVOnslaught
p594
aVOnslaught
p595
aVOnslaught
p596
aVOnslaught
p597
aVChampions of Kamigawa
p598
aVChampions of Kamigawa
p599
aVChampions of Kamigawa
p600
aVChampions of Kamigawa
p601
aVChampions of Kamigawa
p602
aVChampions of Kamigawa
p603
aVChampions of Kamigawa
p604
aVBetrayers of Kamigawa
p605
aVUrza's Destiny
p606
aVUrza's Destiny
p607
aVUrza's Destiny
p608
aVUrza's Destiny
p609
aVUrza's Destiny
p610
aVModern Event Deck 2014
p611
aVRavnica: City of Guilds
p612
aVRavnica: City of Guilds
p613
aVRavnica: City of Guilds
p614
aVCommander 2013 Edition
p615
aVCommander 2013 Edition
p616
aVCommander 2013 Edition
p617
aVOdyssey
p618
aVOdyssey
p619
aVOdyssey
p620
aVOdyssey
p621
aVOdyssey
p622
aVOdyssey
p623
aVTime Spiral
p624
aVTime Spiral
p625
aVTime Spiral
p626
aVReturn to Ravnica
p627
aVGatecrash
p628
aVExodus
p629
aVExodus
p630
aVExodus
p631
aVExodus
p632
aVExodus
p633
aVExodus
p634
aVColdsnap
p635
aVUnlimited Edition
p636
aVUnlimited Edition
p637
aVUnlimited Edition
p638
aVUnlimited Edition
p639
aVUnlimited Edition
p640
aVUnlimited Edition
p641
aVIce Age
p642
aVIce Age
p643
aVIce Age
p644
aVIce Age
p645
aVTorment
p646
aVTorment
p647
aVTorment
p648
aVZendikar
p649
aVZendikar
p650
aVClassic Sixth Edition
p651
aVClassic Sixth Edition
p652
aVClassic Sixth Edition
p653
aVClassic Sixth Edition
p654
aVClassic Sixth Edition
p655
aVClassic Sixth Edition
p656
aVClassic Sixth Edition
p657
aVClassic Sixth Edition
p658
aVClassic Sixth Edition
p659
aVClassic Sixth Edition
p660
aVClassic Sixth Edition
p661
aVClassic Sixth Edition
p662
aVMirrodin
p663
aVMirrodin
p664
aVMirrodin
p665
aVShards of Alara
p666
aVShards of Alara
p667
aVShards of Alara
p668
aVShards of Alara
p669
aVShards of Alara
p670
aVShards of Alara
p671
aVShards of Alara
p672
aVSeventh Edition
p673
aVSeventh Edition
p674
aVSeventh Edition
p675
aVSeventh Edition
p676
aVSeventh Edition
p677
aVSeventh Edition
p678
aVSeventh Edition
p679
aVSeventh Edition
p680
aVSeventh Edition
p681
aVSeventh Edition
p682
aVSeventh Edition
p683
aVProphecy
p684
aVProphecy
p685
aVProphecy
p686
aVMagic 2015 Core Set
p687
aVMagic 2015 Core Set
p688
aVMagic 2015 Core Set
p689
aVMagic 2015 Core Set
p690
aVMagic 2015 Core Set
p691
aVUrza's Legacy
p692
aVUrza's Legacy
p693
aVDarksteel
p694
aVDarksteel
p695
aVDarksteel
p696
aVDarksteel
p697
aVRise of the Eldrazi
p698
aVRise of the Eldrazi
p699
aVRise of the Eldrazi
p700
aVRise of the Eldrazi
p701
aVRise of the Eldrazi
p702
aVRise of the Eldrazi
p703
aVRise of the Eldrazi
p704
aVRise of the Eldrazi
p705
aVPromo set for Gatherer
p706
aVShadowmoor
p707
aVShadowmoor
p708
aVShadowmoor
p709
aVShadowmoor
p710
aVShadowmoor
p711
aVShadowmoor
p712
aVNew Phyrexia
p713
aVNew Phyrexia
p714
aVStarter 1999
p715
aVStarter 1999
p716
aVStarter 1999
p717
aVStarter 1999
p718
aVFifth Dawn
p719
aVFifth Dawn
p720
aVFifth Dawn
p721
aVFifth Dawn
p722
aVScourge
p723
aVScourge
p724
aVScourge
p725
aVFuture Sight
p726
aVPortal Second Age
p727
aVPortal Second Age
p728
aVPortal Second Age
p729
aVPortal Second Age
p730
aVPlanechase
p731
aVPlanechase
p732
aVPlanechase
p733
aVDuel Decks: Venser vs. Koth
p734
aVUrza's Saga
p735
aVUrza's Saga
p736
aVUrza's Saga
p737
aVUrza's Saga
p738
aVUrza's Saga
p739
aVUrza's Saga
p740
aVUrza's Saga
p741
aVUrza's Saga
p742
aVUrza's Saga
p743
aVUrza's Saga
p744
aVUrza's Saga
p745
aVUrza's Saga
p746
aVTheros
p747
aVTheros
p748
aVTheros
p749
aVTheros
p750
aVTheros
p751
aVTheros
p752
aVWeatherlight
p753
aVWeatherlight
p754
aVWeatherlight
p755
aVMagic: The Gathering\u2014Conspiracy
p756
aVMagic: The Gathering\u2014Conspiracy
p757
aVMagic: The Gathering\u2014Conspiracy
p758
aVMagic: The Gathering\u2014Conspiracy
p759
aVMagic: The Gathering\u2014Conspiracy
p760
aVMagic: The Gathering\u2014Conspiracy
p761
aVMagic: The Gathering\u2014Conspiracy
p762
aVMagic: The Gathering\u2014Conspiracy
p763
aVMagic: The Gathering\u2014Conspiracy
p764
aVEighth Edition
p765
aVEighth Edition
p766
aVEighth Edition
p767
aVEighth Edition
p768
aVEighth Edition
p769
aVEighth Edition
p770
aVEighth Edition
p771
aVNemesis
p772
aVNemesis
p773
aVNemesis
p774
aVWorldwake
p775
aVWorldwake
p776
aVPremium Deck Series: Graveborn
p777
aVChronicles
p778
aVChronicles
p779
aVChronicles
p780
aVChronicles
p781
aVInvasion
p782
aVInvasion
p783
aVInvasion
p784
aVInvasion
p785
aVInvasion
p786
aVInvasion
p787
aVInvasion
p788
aVInvasion
p789
aVInvasion
p790
aVInvasion
p791
aVInvasion
p792
aVJourney into Nyx
p793
aVJourney into Nyx
p794
aVJourney into Nyx
p795
aVJourney into Nyx
p796
aVJourney into Nyx
p797
aVAlara Reborn
p798
aVAlara Reborn
p799
aVFifth Edition
p800
aVFifth Edition
p801
aVFifth Edition
p802
aVFifth Edition
p803
aVFifth Edition
p804
aVFifth Edition
p805
aVArchenemy
p806
aVArchenemy
p807
aVArchenemy
p808
aVKhans of Tarkir
p809
aVDuel Decks: Jace vs. Vraska
p810
aVDuel Decks: Jace vs. Vraska
p811
aVMirage
p812
aVMirage
p813
aVMirage
p814
aVMirage
p815
aVMirage
p816
aVMirage
p817
aVMirage
p818
aVMirage
p819
aVVanguard
p820
aVInnistrad
p821
aVInnistrad
p822
aVInnistrad
p823
aVLimited Edition Alpha
p824
aVLimited Edition Alpha
p825
aVLimited Edition Alpha
p826
aVLimited Edition Alpha
p827
aVLimited Edition Alpha
p828
aVLimited Edition Alpha
p829
aVVisions
p830
aVVisions
p831
aVVisions
p832
aVVisions
p833
aVVisions
p834
aVBeatdown Box Set
p835
aVMasters Edition IV
p836
aVMasters Edition IV
p837
aVMasters Edition IV
p838
aVDragon's Maze
p839
aVDragon's Maze
p840
aVDragon's Maze
p841
aVDragon's Maze
p842
aVDragon's Maze
p843
aVDragon's Maze
p844
aVStronghold
p845
aVStronghold
p846
aVStronghold
p847
aVLegends
p848
aVLegends
p849
aVLegends
p850
aVLegends
p851
aVLegends
p852
aVLegends
p853
aVLegends
p854
aVLegends
p855
aVLegends
p856
aVLegends
p857
aVLegends
p858
aVDissension
p859
aVDissension
p860
aVDuel Decks: Izzet vs. Golgari
p861
aVDuel Decks: Izzet vs. Golgari
p862
aVLorwyn
p863
aVArabian Nights
p864
aVMagic 2011
p865
aVMagic 2011
p866
aVMagic 2011
p867
aVMagic 2011
p868
aVHomelands
p869
aVHomelands
p870
aVHomelands
p871
aVHomelands
p872
aVHomelands
p873
aVPortal Three Kingdoms
p874
aVPortal Three Kingdoms
p875
aVPortal Three Kingdoms
p876
aVPortal Three Kingdoms
p877
aVTime Spiral "Timeshifted"
p878
aVDuel Decks: Heroes vs. Monsters
p879
aVPremium Deck Series: Fire and Lightning
p880
aVPortal
p881
aVPortal
p882
aVPortal
p883
aVDark Ascension
p884
aVDark Ascension
p885
aVDark Ascension
p886
asS'ids'
p887
(lp888
V247413
p889
aV247339
p890
aV247551
p891
aV247187
p892
aV247517
p893
aV226565
p894
aV226903
p895
aV221484
p896
aV233722
p897
aV512
p898
aV560
p899
aV464
p900
aV465
p901
aV561
p902
aV562
p903
aV74189
p904
aV74604
p905
aV84371
p906
aV21160
p907
aV21200
p908
aV152616
p909
aV152618
p910
aV152619
p911
aV152625
p912
aV152716
p913
aV152836
p914
aV152874
p915
aV154162
p916
aV290288
p917
aV280222
p918
aV253715
p919
aV290289
p920
aV276223
p921
aV288876
p922
aV2066
p923
aV2180
p924
aV2234
p925
aV2301
p926
aV2359
p927
aV2235
p928
aV2360
p929
aV122282
p930
aV122287
p931
aV125880
p932
aV126018
p933
aV126818
p934
aV131007
p935
aV266305
p936
aV249400
p937
aV1045
p938
aV1070
p939
aV3207
p940
aV3208
p941
aV3210
p942
aV3209
p943
aV243441
p944
aV243444
p945
aV209720
p946
aV194123
p947
aV378526
p948
aV378478
p949
aV378421
p950
aV378397
p951
aV193739
p952
aV191336
p953
aV370805
p954
aV4780
p955
aV4781
p956
aV4782
p957
aV4783
p958
aV4839
p959
aV4895
p960
aV4936
p961
aV4680
p962
aV4681
p963
aV106384
p964
aV129696
p965
aV129697
p966
aV129698
p967
aV129699
p968
aV130507
p969
aV132089
p970
aV135188
p971
aV135236
p972
aV136515
p973
aV19538
p974
aV19642
p975
aV19653
p976
aV19641
p977
aV383060
p978
aV383061
p979
aV383062
p980
aV383063
p981
aV383064
p982
aV383065
p983
aV383066
p984
aV383067
p985
aV383068
p986
aV383069
p987
aV370506
p988
aV370412
p989
aV370493
p990
aV370556
p991
aV1718
p992
aV221558
p993
aV27158
p994
aV201161
p995
aV201258
p996
aV201269
p997
aV201163
p998
aV201309
p999
aV1219
p1000
aV1263
p1001
aV1360
p1002
aV1362
p1003
aV1312
p1004
aV1359
p1005
aV1262
p1006
aV1361
p1007
aV184725
p1008
aV184597
p1009
aV184707
p1010
aV184595
p1011
aV96827
p1012
aV96855
p1013
aV96972
p1014
aV83229
p1015
aV83225
p1016
aV83226
p1017
aV83227
p1018
aV83958
p1019
aV83228
p1020
aV83132
p1021
aV83230
p1022
aV147373
p1023
aV153435
p1024
aV157291
p1025
aV158108
p1026
aV158902
p1027
aV150807
p1028
aV278256
p1029
aV239960
p1030
aV240096
p1031
aV275712
p1032
aV226508
p1033
aV368551
p1034
aV368517
p1035
aV368532
p1036
aV39746
p1037
aV41153
p1038
aV9839
p1039
aV41462
p1040
aV50293
p1041
aV50405
p1042
aV75259
p1043
aV79125
p1044
aV79247
p1045
aV79863
p1046
aV80273
p1047
aV74110
p1048
aV15123
p1049
aV15143
p1050
aV15154
p1051
aV15204
p1052
aV15216
p1053
aV382195
p1054
aV87919
p1055
aV89087
p1056
aV88966
p1057
aV376471
p1058
aV376472
p1059
aV376473
p1060
aV29723
p1061
aV29804
p1062
aV29864
p1063
aV29945
p1064
aV31450
p1065
aV31741
p1066
aV109709
p1067
aV109729
p1068
aV113520
p1069
aV277995
p1070
aV366315
p1071
aV6037
p1072
aV6046
p1073
aV6103
p1074
aV6108
p1075
aV6140
p1076
aV6139
p1077
aV121223
p1078
aV814
p1079
aV862
p1080
aV766
p1081
aV767
p1082
aV863
p1083
aV864
p1084
aV2530
p1085
aV2709
p1086
aV2736
p1087
aV2583
p1088
aV29908
p1089
aV33698
p1090
aV34247
p1091
aV180493
p1092
aV178115
p1093
aV11472
p1094
aV14464
p1095
aV14473
p1096
aV14684
p1097
aV15352
p1098
aV15362
p1099
aV15375
p1100
aV11467
p1101
aV15425
p1102
aV14681
p1103
aV14650
p1104
aV14512
p1105
aV48329
p1106
aV48427
p1107
aV49061
p1108
aV174824
p1109
aV174901
p1110
aV174985
p1111
aV175043
p1112
aV175098
p1113
aV176444
p1114
aV179422
p1115
aV12999
p1116
aV13088
p1117
aV13101
p1118
aV15833
p1119
aV25687
p1120
aV15837
p1121
aV11469
p1122
aV25684
p1123
aV11470
p1124
aV15782
p1125
aV15799
p1126
aV24559
p1127
aV24588
p1128
aV24617
p1129
aV383359
p1130
aV383360
p1131
aV383361
p1132
aV383362
p1133
aV383363
p1134
aV12385
p1135
aV12672
p1136
aV43503
p1137
aV48147
p1138
aV48573
p1139
aV50533
p1140
aV193652
p1141
aV193605
p1142
aV194936
p1143
aV193603
p1144
aV193654
p1145
aV193582
p1146
aV193657
p1147
aV194930
p1148
aV97053
p1149
aV141930
p1150
aV146047
p1151
aV152158
p1152
aV154403
p1153
aV158761
p1154
aV159408
p1155
aV214374
p1156
aV218078
p1157
aV21046
p1158
aV20193
p1159
aV21037
p1160
aV20357
p1161
aV43574
p1162
aV50213
p1163
aV73564
p1164
aV73573
p1165
aV44401
p1166
aV45845
p1167
aV47590
p1168
aV126153
p1169
aV6541
p1170
aV6578
p1171
aV6629
p1172
aV6608
p1173
aV205365
p1174
aV205271
p1175
aV205326
p1176
aV284488
p1177
aV10408
p1178
aV10419
p1179
aV5809
p1180
aV5818
p1181
aV5826
p1182
aV8445
p1183
aV8803
p1184
aV9716
p1185
aV10465
p1186
aV5807
p1187
aV5558
p1188
aV5670
p1189
aV373725
p1190
aV373570
p1191
aV373532
p1192
aV373644
p1193
aV373508
p1194
aV373601
p1195
aV4585
p1196
aV4526
p1197
aV4497
p1198
aV382339
p1199
aV382340
p1200
aV382341
p1201
aV382342
p1202
aV382343
p1203
aV382344
p1204
aV382345
p1205
aV382346
p1206
aV382347
p1207
aV45184
p1208
aV45264
p1209
aV45393
p1210
aV45433
p1211
aV45354
p1212
aV45418
p1213
aV45241
p1214
aV21378
p1215
aV21386
p1216
aV22316
p1217
aV189163
p1218
aV189180
p1219
aV270452
p1220
aV2835
p1221
aV2812
p1222
aV2813
p1223
aV2862
p1224
aV22943
p1225
aV22985
p1226
aV23045
p1227
aV23145
p1228
aV23154
p1229
aV23191
p1230
aV23196
p1231
aV25323
p1232
aV23029
p1233
aV22941
p1234
aV22965
p1235
aV380479
p1236
aV380480
p1237
aV380481
p1238
aV380482
p1239
aV380483
p1240
aV175256
p1241
aV147530
p1242
aV3936
p1243
aV3937
p1244
aV4151
p1245
aV4004
p1246
aV3938
p1247
aV4152
p1248
aV212653
p1249
aV220576
p1250
aV220515
p1251
aV386635
p1252
aV380224
p1253
aV380255
p1254
aV3306
p1255
aV3307
p1256
aV3358
p1257
aV3461
p1258
aV3548
p1259
aV3549
p1260
aV3460
p1261
aV3405
p1262
aV191135
p1263
aV230768
p1264
aV247423
p1265
aV222111
p1266
aV217
p1267
aV264
p1268
aV169
p1269
aV170
p1270
aV265
p1271
aV266
p1272
aV3723
p1273
aV3726
p1274
aV3698
p1275
aV3724
p1276
aV3725
p1277
aV26636
p1278
aV202580
p1279
aV202447
p1280
aV202461
p1281
aV368967
p1282
aV368958
p1283
aV369022
p1284
aV369033
p1285
aV368993
p1286
aV368978
p1287
aV5209
p1288
aV5210
p1289
aV5211
p1290
aV1499
p1291
aV1500
p1292
aV1541
p1293
aV1631
p1294
aV1540
p1295
aV1496
p1296
aV1418
p1297
aV1419
p1298
aV1497
p1299
aV1498
p1300
aV1542
p1301
aV-107375
p1302
aV107375
p1303
aV338402
p1304
aV338471
p1305
aV139679
p1306
aV979
p1307
aV205066
p1308
aV208227
p1309
aV205082
p1310
aV205038
p1311
aV2956
p1312
aV2975
p1313
aV3008
p1314
aV2955
p1315
aV2954
p1316
aV10501
p1317
aV10576
p1318
aV10588
p1319
aV10592
p1320
aV108885
p1321
aV373408
p1322
aV234705
p1323
aV4391
p1324
aV4315
p1325
aV4390
p1326
aV244759
p1327
aV262701
p1328
aV270779
p1329
asS'texts'
p1330
(lp1331
VUntap all creatures you control and all creatures target opponent controls. You and that opponent each gain control of all creatures the other controls until end of turn. Those creatures gain haste until end of turn.
p1332
aVFlying<br>When Reiver Demon enters the battlefield, if you cast it from your hand, destroy all nonartifact, nonblack creatures. They can't be regenerated.
p1333
aVDestroy target artifact or enchantment and up to one other target artifact or enchantment.
p1334
aVReturn target creature to its owner's hand.<br>Draw a card.
p1335
aVExile target artifact or enchantment. If you cast this spell during your main phase, you may exile up to one other target artifact or enchantment.
p1336
aVRootbound Crag enters the battlefield tapped unless you control a Mountain or a Forest.<br>{T}: Add {R} or {G} to your mana pool.
p1337
aV{T}: Destroy target tapped creature.
p1338
aVFlying<br>When Rune-Scarred Demon enters the battlefield, search your library for a card, put it into your hand, then shuffle your library.
p1339
aVRusted Sentinel enters the battlefield tapped.
p1340
aVSedge Troll gets +1/+1 as long as you control a Swamp.<br>{B}: Regenerate Sedge Troll.
p1341
aVFlying<br>Whenever a creature dealt damage by Sengir Vampire this turn dies, put a +1/+1 counter on Sengir Vampire.
p1342
aVFlying<br>Vigilance <i>(Attacking doesn't cause this creature to tap.)</i>
p1343
aVForestwalk
p1344
aVDestroy target artifact.
p1345
aVFlying<br>{R}: Shivan Dragon gets +1/+0 until end of turn.
p1346
aVDestroy target artifact or enchantment if its converted mana cost is less than or equal to the number of cards in your hand.<br>Draw a card.
p1347
aVWhenever you cast a legendary spell, draw a card.
p1348
aVCreatures with power 2 or less can't attack you.
p1349
aVPut target creature card from a graveyard onto the battlefield under your control. You lose life equal to its converted mana cost.
p1350
aVIslandwalk<br>{G}: Regenerate River Boa.
p1351
aVTarget creature you control gains protection from the color of your choice until end of turn. Clash with an opponent. If you win, return Redeem the Lost to its owner's hand. <i>(Each clashing player reveals the top card of his or her library, then puts that card on the top or bottom. A player wins if his or her card had a higher converted mana cost.)</i>
p1352
aVDraw a card. Clash with an opponent. If you win, return Research the Deep to its owner's hand. <i>(Each clashing player reveals the top card of his or her library, then puts that card on the top or bottom. A player wins if his or her card had a higher converted mana cost.)</i>
p1353
aVRelease the Ants deals 1 damage to target creature or player. Clash with an opponent. If you win, return Release the Ants to its owner's hand. <i>(Each clashing player reveals the top card of his or her library, then puts that card on the top or bottom. A player wins if his or her card had a higher converted mana cost.)</i>
p1354
aVEnchant creature<br>Enchanted creature gets +2/+2.<br>When enchanted creature dies, you may return Reins of the Vinesteed from your graveyard to the battlefield attached to a creature that shares a creature type with that creature.
p1355
aVFlying<br>When Reveillark leaves the battlefield, return up to two target creature cards with power 2 or less from your graveyard to the battlefield.<br>Evoke {5}{W} <i>(You may cast this spell for its evoke cost. If you do, it's sacrificed when it enters the battlefield.)</i>
p1356
aVReturn target creature card from a graveyard to its owner's hand. Clash with an opponent. If you win, return Revive the Fallen to its owner's hand. <i>(Each clashing player reveals the top card of his or her library, then puts that card on the top or bottom. A player wins if his or her card had a higher converted mana cost.)</i>
p1357
aVReveal cards from the top of your library until you reveal a land card. Put that card onto the battlefield and the rest on the bottom of your library in any order. Clash with an opponent. If you win, return Recross the Paths to its owner's hand. <i>(Each clashing player reveals the top card of his or her library, then puts that card on the top or bottom. A player wins if his or her card had a higher converted mana cost.)</i>
p1358
aVEquipped creature gets +2/+1 and has haste.<br>Whenever a Warrior creature enters the battlefield, you may attach Obsidian Battle-Axe to it.<br>Equip {3}
p1359
aVExile target instant or sorcery card from your graveyard and target instant or sorcery card from an opponent's graveyard. Copy those cards. Cast the copies if able without paying their mana costs. Exile Spelltwine.
p1360
aVFlying<br>When Sphinx of Uthuun enters the battlefield, reveal the top five cards of your library. An opponent separates those cards into two piles. Put one pile into your hand and the other into your graveyard.
p1361
aVAttacking creatures get +2/+0 until end of turn.
p1362
aVTurn to Slag deals 5 damage to target creature. Destroy all Equipment attached to that creature.
p1363
aVFlash <i>(You may cast this spell any time you could cast an instant.)</i><br>You may cast green creature cards as though they had flash.
p1364
aVU
p1365
aV{2}, {T}: Put a charge counter on Red Mana Battery.<br><br>{T}, Remove any number of charge counters from Red Mana Battery: Add {R} to your mana pool, then add an additional {R} to your mana pool for each charge counter removed this way.
p1366
aVEnchant artifact an opponent controls<br>Whenever enchanted artifact becomes tapped, choose one- Relic Bind deals 1 damage to target player; or target player gains 1 life.
p1367
aVSandstorm deals 1 damage to each attacking creature.
p1368
aVForestwalk
p1369
aVAs Shapeshifter enters the battlefield, choose a number between 0 and 7.<br>At the beginning of your upkeep, you may choose a number between 0 and 7.<br>Shapeshifter's power is equal to the last chosen number and its toughness is equal to 7 minus that number.
p1370
aVDestroy target artifact.
p1371
aVFlying<br>{R}: Shivan Dragon gets +1/+0 until end of turn.
p1372
aV{W}: Regenerate Revered Dead.
p1373
aVCounter target spell that targets a permanent you control.
p1374
aVEnchant permanent<br>Vanishing 3 <i>(This permanent enters the battlefield with three time counters on it. At the beginning of your upkeep, remove a time counter from it. When the last is removed, sacrifice it.)</i><br>When Reality Acid leaves the battlefield, enchanted permanent's controller sacrifices it.
p1375
aVAll Sliver creatures have haste.
p1376
aVTrample<br>Madness {2}{R} <i>(If you discard this card, you may cast it for its madness cost instead of putting it into your graveyard.)</i>
p1377
aVReturn each Aura card from your graveyard to the battlefield. Only creatures can be enchanted this way. <i>(Aura cards that can't enchant a creature on the battlefield remain in your graveyard.)</i>
p1378
aVReturn target permanent to its owner's hand. Then that player discards a card.
p1379
aVEnchant creature<br>Enchanted creature can't attack or block.<br>At the beginning of your upkeep, you may gain 1 life.
p1380
aVReturn target artifact card from your graveyard to your hand.
p1381
aVYou gain X life, where X is twice the damage dealt to you so far this turn by artifacts.
p1382
aVCumulative upkeep {W} <i>(At the beginning of your upkeep, put an age counter on this permanent, then sacrifice it unless you pay its upkeep cost for each age counter on it.)</i><br>Whenever a Swamp, Mountain, black permanent, or red permanent becomes tapped, Royal Decree deals 1 damage to that permanent's controller.
p1383
aVDestroy target creature with power 4 or greater. It can't be regenerated.
p1384
aV{2}, Exile the top card of your library: You gain 1 life.
p1385
aVDefender<br>Whenever Shield Sphere blocks, put a -0/-1 counter on it.
p1386
aVExile target creature that dealt damage to you this turn.
p1387
aVDestroy target creature with power 4 or greater. It can't be regenerated.
p1388
aV{W}, Sacrifice Salvage Scout: Return target artifact card from your graveyard to your hand.
p1389
aVScrapdiver Serpent is unblockable as long as defending player controls an artifact.
p1390
aVUntil end of turn, target creature gains "{T}: Return target nonland permanent to its owner's hand."
p1391
aVExile target artifact or enchantment.
p1392
aVTarget creature gets +2/+0 and gains first strike until end of turn.
p1393
aVYou draw X cards and you lose X life, where X is your devotion to black. <i>(Each {B} in the mana costs of permanents you control counts toward your devotion to black.)</i>
p1394
aVPrevent all damage that would be dealt to you and creatures you control this turn.
p1395
aVFlying<br>When Sage Owl enters the battlefield, look at the top four cards of your library, then put them back in any order.
p1396
aV{G}: Exile target card from a graveyard. If it was a creature card, put a +1/+1 counter on Scavenging Ooze and you gain 1 life.
p1397
aVReturn up to X target cards from your graveyard to your hand, where X is the number of black permanents target opponent controls as you cast Reap.
p1398
aVSkip your draw step.<br>Whenever you play a card, draw a card.<br>Your maximum hand size is two.
p1399
aVPrevent all combat damage that would be dealt this turn. You gain 1 life for each attacking creature.
p1400
aVScragnoth can't be countered.<br>Protection from blue
p1401
aVAs an additional cost to cast Scorched Earth, discard X land cards.<br>Destroy X target lands.
p1402
aV{1}{W}, Sacrifice Sacred Guide: Reveal cards from the top of your library until you reveal a white card. Put that card into your hand and exile all other cards revealed this way.
p1403
aV{T}: Add {1} to your mana pool.<br>{T}: Add {U} or {B} to your mana pool. Rootwater Depths doesn't untap during your next untap step.
p1404
aVTrample <i>(If this creature would assign enough damage to its blockers to destroy them, you may have it assign the rest of its damage to defending player or planeswalker.)</i>
p1405
aV{1}{G}: Rootwalla gets +2/+2 until end of turn. Activate this ability only once each turn.
p1406
aVFlying<br>At the beginning of your upkeep, you may return target creature card from your graveyard to the battlefield.
p1407
aV{1}{G}: Rootwalla gets +2/+2 until end of turn. Activate this ability only once each turn.
p1408
aV{T}: Destroy target tapped creature.
p1409
aV{R}, Sacrifice Bloodfire Colossus: Bloodfire Colossus deals 6 damage to each creature and each player.
p1410
aVWhenever a creature enters the battlefield under your control, you gain life equal to its toughness.
p1411
aVPut target attacking creature on the bottom of its owner's library. Its controller gains life equal to its toughness.
p1412
aVDefender, flying <i>(This creature can't attack, and it can block creatures with flying.)</i>
p1413
aVWhenever Sylvan Basilisk becomes blocked by a creature, destroy that creature.
p1414
aV{T}: Gain control of target creature for as long as that creature is enchanted.
p1415
aVSacrifice any number of permanents. You gain 2 life for each permanent sacrificed this way.
p1416
aV{1}: Prevent the next 1 damage that would be dealt to Revered Elder this turn.
p1417
aVPeat Bog enters the battlefield tapped with two depletion counters on it.<br>{T}, Remove a depletion counter from Peat Bog: Add {B}{B} to your mana pool. If there are no depletion counters on Peat Bog, sacrifice it.
p1418
aV{W}{W}: Put a 1/1 white Soldier creature token onto the battlefield. Activate this ability only if you control no creatures and only once each turn.
p1419
aVForestwalk <i>(This creature is unblockable as long as defending player controls a Forest.)</i>
p1420
aVSacrifice a creature, Return Recurring Nightmare to its owner's hand: Return target creature card from your graveyard to the battlefield. Activate this ability only any time you could cast a sorcery.
p1421
aVReturn target card from your graveyard to your hand.
p1422
aVEach player sacrifices a creature. Put an X/X black Demon creature token with flying onto the battlefield, where X is the total power of the creatures sacrificed this way.
p1423
aVYou gain 6 life.<br>Cycling {1}{W} <i>({1}{W}, Discard this card: Draw a card.)</i><br>When you cycle Renewed Faith, you may gain 2 life.
p1424
aVPut target creature on top of its owner's library.
p1425
aVReturn target permanent to its owner's hand.<br>Cycling {2} <i>({2}, Discard this card: Draw a card.)</i>
p1426
aVReveal the top three cards of your library and put one of them into your hand. You gain life equal to that card's converted mana cost. Put all other cards revealed this way into your graveyard.
p1427
aVEcho {3} <i>(At the beginning of your upkeep, if this came under your control since the beginning of your last upkeep, sacrifice it unless you pay its echo cost.)</i><br>{1}, {T}: Tap target artifact, creature, or land.
p1428
aVDiscard any number of cards at random. Creatures you control get +1/+0 until end of turn for each card discarded this way.
p1429
aVPut a 6/6 green Wurm creature token onto the battlefield.<br>Flashback {3}{G} <i>(You may cast this card from your graveyard for its flashback cost. Then exile it.)</i>
p1430
aVDraw a card.
p1431
aVPut a 2/5 green Treefolk Shaman creature token onto the battlefield.<br>Whenever a Forest enters the battlefield under your control, you may return Reach of Branches from your graveyard to your hand.
p1432
aVFlying<br>When Reveillark leaves the battlefield, return up to two target creature cards with power 2 or less from your graveyard to the battlefield.<br>Evoke {5}{W} <i>(You may cast this spell for its evoke cost. If you do, it's sacrificed when it enters the battlefield.)</i>
p1433
aV{T}: Target player exiles a card from his or her graveyard.<br>{1}, Exile Relic of Progenitus: Exile all cards from all graveyards. Draw a card.
p1434
aV{X}, {T}: Change the target of target spell with a single target if that target is you. The new target must be a player. X is twice the converted mana cost of that spell.
p1435
aVFlying<br>Whenever a creature an opponent controls dies, you may gain 3 life.<br>Whenever an opponent discards a card, you may gain 3 life.
p1436
aV{T}: Target land becomes the basic land type of your choice until end of turn.
p1437
aVRolling Earthquake deals X damage to each creature without horsemanship and each player.
p1438
aVYou may choose not to untap Rubinia Soulsinger during your untap step.<br>{T}: Gain control of target creature for as long as you control Rubinia and Rubinia remains tapped.
p1439
aVFlying
p1440
aVHorsemanship <i>(This creature can't be blocked except by creatures with horsemanship.)</i>
p1441
aVHorsemanship <i>(This creature can't be blocked except by creatures with horsemanship.)</i>
p1442
aVFlying<br>At the beginning of your upkeep, Serendib Efreet deals 1 damage to you.
p1443
aV{T}, Sacrifice an artifact: Put a +1/+1 counter on target creature. Activate this ability only during your upkeep.
p1444
aVFlying
p1445
aV{X}, {T}: The next time you would draw a card this turn, instead look at the top X cards of your library, put all but one of them on the bottom of your library in a random order, then draw a card. X can't be 0.
p1446
aVFlying<br>{R}: Shivan Dragon gets +1/+0 until end of turn.
p1447
aVYou gain life equal to the damage dealt to you this turn. Simulacrum deals damage to target creature you control equal to the damage dealt to you this turn.
p1448
aVCast Siren's Call only during an opponent's turn, before attackers are declared.<br>Creatures the active player controls attack this turn if able.<br>At the beginning of the next end step, destroy all non-Wall creatures that player controls that didn't attack this turn. Ignore this effect for each creature the player didn't control continuously since the beginning of the turn.
p1449
aVChange the text of target spell or permanent by replacing all instances of one color word with another. <i>(For example, you may change "target black spell" to "target blue spell." This effect lasts indefinitely.)</i>
p1450
aVDestroy target creature with power 4 or greater. It can't be regenerated.
p1451
aVChoose two target creatures an opponent controls. That player chooses and sacrifices one of those creatures. Put a -1/-1 counter on the other.
p1452
aVDestroy all tapped creatures. You gain 2 life for each creature destroyed this way.
p1453
aVCumulative upkeep {2} <i>(At the beginning of your upkeep, put an age counter on this permanent, then sacrifice it unless you pay its upkeep cost for each age counter on it.)</i><br>If a land is tapped for mana, it produces colorless mana instead of any other type.
p1454
aVElectrolyze deals 2 damage divided as you choose among one or two target creatures and/or players.<br>Draw a card.
p1455
aVWhenever Bioplasm attacks, exile the top card of your library. If it's a creature card, Bioplasm gets +X/+Y until end of turn, where X is the exiled creature card's power and Y is its toughness.
p1456
aV{W}, {T}: Tap target creature.
p1457
aVWhenever you cast an enchantment spell, you may draw a card.
p1458
aVCreatures you control have vigilance. <i>(Attacking doesn't cause them to tap.)</i>
p1459
aVFlying<br>{R}: Shivan Dragon gets +1/+0 until end of turn.
p1460
aVShock deals 2 damage to target creature or player.
p1461
aVDraw three cards, then discard a card.
p1462
aVFlying, vigilance <i>(This creature can't be blocked except by creatures with flying or reach, and attacking doesn't cause this creature to tap.)</i>
p1463
aVDestroy target green creature. It can't be regenerated.<br>Draw a card.
p1464
aVLook at the top two cards of your library. Put one of them into your hand and the other on the bottom of your library.
p1465
aVWhen Regal Force enters the battlefield, draw a card for each green creature you control.
p1466
aVEnchant creature<br>Enchanted creature can't attack or block.<br>At the beginning of your upkeep, you may gain 1 life.
p1467
aV{W/B}{W/B}{W/B}: Restless Apparition gets +3/+3 until end of turn.<br>Persist <i>(When this creature dies, if it had no -1/-1 counters on it, return it to the battlefield under its owner's control with a -1/-1 counter on it.)</i>
p1468
aVRekindled Flame deals 4 damage to target creature or player.<br>At the beginning of your upkeep, if an opponent has no cards in hand, you may return Rekindled Flame from your graveyard to your hand.
p1469
aVWither <i>(This deals damage to creatures in the form of -1/-1 counters.)</i><br>Persist <i>(When this creature dies, if it had no -1/-1 counters on it, return it to the battlefield under its owner's control with a -1/-1 counter on it.)</i>
p1470
aVWhen Rhox Meditant enters the battlefield, if you control a green permanent, draw a card.
p1471
aVVigilance<br>As Riders of Gavony enters the battlefield, choose a creature type.<br>Human creatures you control have protection from creatures of the chosen type.
p1472
aVRighteous Blow deals 2 damage to target attacking or blocking creature.
p1473
aVWhenever Riot Ringleader attacks, Human creatures you control get +1/+0 until end of turn.
p1474
aVChoose an order for artifacts, creatures, and lands. Each player sacrifices one permanent of the first type, sacrifices two of the second type, then sacrifices three of the third type.
p1475
aVWhen you encounter Reality Shaping, starting with you, each player may put a permanent card from his or her hand onto the battlefield. <i>(Then planeswalk away from this phenomenon.)</i>
p1476
aV{1}{B}: Return Reassembling Skeleton from your graveyard to the battlefield tapped.
p1477
aVTarget sorcery card in your graveyard gains flashback until end of turn. The flashback cost is equal to its mana cost. <i>(Mana cost includes color.)</i><br>Flashback {3}{R} <i>(You may cast this card from your graveyard for its flashback cost. Then exile it.)</i>
p1478
aVWhen Revenant Patriarch enters the battlefield, if {W} was spent to cast it, target player skips his or her next combat phase.<br>Revenant Patriarch can't block.
p1479
aVHaste<br>Reckless One's power and toughness are each equal to the number of Goblins on the battlefield.
p1480
aVYou gain 6 life.<br>Cycling {1}{W} <i>({1}{W}, Discard this card: Draw a card.)</i><br>When you cycle Renewed Faith, you may gain 2 life.
p1481
aVDraw X cards. For each card drawn this way, discard a card unless you sacrifice a permanent.
p1482
aVEnchant land <i>(Target a land as you cast this. This card enters the battlefield attached to that land.)</i><br>Enchanted land is an Island.
p1483
aVDestroy target Spirit.
p1484
aVBushido 2 <i>(When this blocks or becomes blocked, it gets +2/+2 until end of turn.)</i>
p1485
aVBushido 1 <i>(When this blocks or becomes blocked, it gets +1/+1 until end of turn.)</i><br>{B}: Cursed Ronin gets +1/+1 until end of turn.
p1486
aVSacrifice any number of lands. Add {1} to your mana pool for each land sacrificed this way.
p1487
aVWhenever you cast a Spirit or Arcane spell, Soul of Magma deals 1 damage to target creature.
p1488
aVSearch your library for an Arcane card, reveal that card, and put it into your hand. Then shuffle your library.
p1489
aVAs Swirl the Mists enters the battlefield, choose a color word.<br>All instances of color words in the text of spells and permanents are changed to the chosen color word.
p1490
aVReturn all artifacts and enchantments to their owners' hands.
p1491
aVWhen Reliquary Monk dies, destroy target artifact or enchantment.
p1492
aVReturn all enchantment cards from your graveyard to the battlefield. <i>(Auras with nothing to enchant remain in your graveyard.)</i>
p1493
aVReturn target permanent you control to its owner's hand.
p1494
aVAs an additional cost to cast Reckless Abandon, sacrifice a creature.<br>Reckless Abandon deals 4 damage to target creature or player.
p1495
aVWhenever a creature is dealt damage, Repercussion deals that much damage to that creature's controller.
p1496
aV{T}: Target player exiles a card from his or her graveyard.<br>{1}, Exile Relic of Progenitus: Exile all cards from all graveyards. Draw a card.
p1497
aVTarget creature gets -1/-1 until end of turn.<br>Dredge 3 <i>(If you would draw a card, instead you may put exactly three cards from the top of your library into your graveyard. If you do, return this card from your graveyard to your hand. Otherwise, draw a card.)</i>
p1498
aVWhenever a nonartifact permanent enters the battlefield under your control, you may return another permanent you control that shares a card type with it to its owner's hand.
p1499
aVDestroy target artifact.<br>Draw a card.
p1500
aVDestroy two target nonblack creatures. You lose 5 life.
p1501
aVChoose target creature. When that creature dies this turn, return a creature card from its owner's graveyard to the battlefield under the control of that creature's owner.
p1502
aVPut target land card from a graveyard onto the battlefield under your control.
p1503
aVPut target creature on top of its owner's library.
p1504
aV{W}, {T}: Tap target creature.<br>Threshold- {W}{W}, {T}: Tap two target creatures. Activate this ability only if seven or more cards are in your graveyard.
p1505
aVAs an additional cost to cast Liquid Fire, choose a number between 0 and 5.<br>Liquid Fire deals X damage to target creature and 5 minus X damage to that creature's controller, where X is the chosen number.
p1506
aVAt the beginning of each player's upkeep, that player sacrifices an artifact, creature, or land.
p1507
aVFlying<br>Discard a card: Pulsating Illusion gets +4/+4 until end of turn. Activate this ability only once each turn.
p1508
aVAbandoned Outpost enters the battlefield tapped.<br>{T}: Add {W} to your mana pool.<br>{T}, Sacrifice Abandoned Outpost: Add one mana of any color to your mana pool.
p1509
aVExile target artifact or enchantment. If you cast this spell during your main phase, you may exile up to one other target artifact or enchantment.
p1510
aVBuyback {3} <i>(You may pay an additional {3} as you cast this spell. If you do, put this card into your hand as it resolves.)</i><br>Copy target instant or sorcery spell. You may choose new targets for the copy.
p1511
aVSuspend 6\u2014{W} <i>(Rather than cast this card from your hand, pay {W} and exile it with six time counters on it. At the beginning of your upkeep, remove a time counter. When the last is removed, cast it without paying its mana cost.)</i><br>Each player chooses a number of lands he or she controls equal to the number of lands controlled by the player who controls the fewest, then sacrifices the rest. Players sacrifice creatures and discard cards the same way.
p1512
aV{B}{R}: Target blocking creature gets -1/-1 until end of turn.<br>{B}{R}: Target player who lost life this turn loses 1 life.
p1513
aVCreatures you control get +2/+2 until end of turn.
p1514
aVBuyback\u2014Sacrifice a land. <i>(You may sacrifice a land in addition to any other costs as you cast this spell. If you do, put this card into your hand as it resolves.)</i><br>You gain 2 life.
p1515
aV{0}: Remove target attacking creature you control from combat and untap it.
p1516
aVSacrifice a creature, Return Recurring Nightmare to its owner's hand: Return target creature card from your graveyard to the battlefield. Activate this ability only any time you could cast a sorcery.
p1517
aVWhenever Reckless Ogre attacks alone, it gets +3/+0 until end of turn.
p1518
aVUntil end of turn, creatures you control gain "{1}: Regenerate this creature."
p1519
aVPut target card from your graveyard on top of your library.
p1520
aVTarget creature gets +3/+3 until end of turn.<br>Recover {1}{G} <i>(When a creature is put into your graveyard from the battlefield, you may pay {1}{G}. If you do, return this card from your graveyard to your hand. Otherwise, exile this card.)</i>
p1521
aVChoose one- Counter target blue spell; or destroy target blue permanent.
p1522
aVEnchant creature<br>Enchanted creature has protection from red. This effect doesn't remove Red Ward.
p1523
aVForestwalk
p1524
aVDestroy target artifact.
p1525
aVFlying<br>{R}: Shivan Dragon gets +1/+0 until end of turn.
p1526
aVYou gain life equal to the damage dealt to you this turn. Simulacrum deals damage to target creature you control equal to the damage dealt to you this turn.
p1527
aVCumulative upkeep {1}{U}{U} <i>(At the beginning of your upkeep, put an age counter on this permanent, then sacrifice it unless you pay its upkeep cost for each age counter on it.)</i><br>If tapped for mana, Plains produce {R}, Swamps produce {G}, Mountains produce {W}, and Forests produce {B} instead of any other type.
p1528
aVPrevent all combat damage that would be dealt by target attacking creature this turn.
p1529
aVEnchant creature<br>Enchanted creature gets +0/+2 and can't be the target of spells.
p1530
aV{U}: Sea Spirit gets +1/+0 until end of turn.
p1531
aVAs an additional cost to cast Restless Dreams, discard X cards.<br>Return X target creature cards from your graveyard to your hand.
p1532
aVReveal a card in your hand, then put that card onto the battlefield if it has the same name as a permanent.
p1533
aVVigilance<br>Threshold- As long as seven or more cards are in your graveyard, Reborn Hero has "When Reborn Hero dies, you may pay {W}{W}. If you do, return Reborn Hero to the battlefield under your control."
p1534
aVKicker {5} <i>(You may pay an additional {5} as you cast this spell.)</i><br>Put a token that's a copy of target creature onto the battlefield. If Rite of Replication was kicked, put five of those tokens onto the battlefield instead.
p1535
aVIslandwalk<br>{G}: Regenerate River Boa.
p1536
aVThe next time a source of your choice would deal damage to you this turn, prevent that damage. You gain life equal to the damage prevented this way.
p1537
aVCreatures you control get +1/+1 until end of turn.
p1538
aVFirst strike; reach <i>(This creature can block creatures with flying.)</i>
p1539
aVReturn target card from your graveyard to your hand.
p1540
aVSearch your library for an artifact or enchantment card and reveal that card. Shuffle your library, then put the card on top of it.
p1541
aVAn opponent chooses one- You draw three cards at the beginning of the next turn's upkeep; or you search your library for a card, put that card into your hand, then shuffle your library.
p1542
aVCounter target spell with converted mana cost X.
p1543
aVForestwalk
p1544
aVDestroy target artifact.
p1545
aVDestroy all artifacts. They can't be regenerated.
p1546
aVShock deals 2 damage to target creature or player.
p1547
aVFlying<br>Whenever Sibilant Spirit attacks, defending player may draw a card.
p1548
aVEnchant artifact<br>Enchanted artifact has "At the beginning of your upkeep, you lose 2 life."
p1549
aVFlying<br>When Reiver Demon enters the battlefield, if you cast it from your hand, destroy all nonartifact, nonblack creatures. They can't be regenerated.
p1550
aVSearch your library for a nonland card and reveal it. Each opponent who cast a card this turn with the same name as that card loses 6 life. Then shuffle your library. <br>{B}{B}: Return Grim Reminder from your graveyard to your hand. Activate this ability only during your upkeep.
p1551
aVExalted <i>(Whenever a creature you control attacks alone, that creature gets +1/+1 until end of turn.)</i><br>Whenever a creature you control attacks alone, you may tap target creature.
p1552
aV{T}: Add {W}, {U}, or {B} to your mana pool.
p1553
aVFirst strike<br>Whenever another creature dies, you may put a +1/+1 counter on Rockslide Elemental.
p1554
aVAt the beginning of your end step, if you control a creature with power 5 or greater, you may have Exuberant Firestoker deal 2 damage to target player.<br>{T}: Add {1} to your mana pool.
p1555
aVDefender<br>Exalted <i>(Whenever a creature you control attacks alone, that creature gets +1/+1 until end of turn.)</i>
p1556
aV{R}: Undead Leotau gets +1/-1 until end of turn.<br>Unearth {2}{B} <i>({2}{B}: Return this card from your graveyard to the battlefield. It gains haste. Exile it at the beginning of the next end step or if it would leave the battlefield. Unearth only as a sorcery.)</i>
p1557
aVPlay with the top card of your library revealed.<br>As long as the top card of your library is an artifact or creature card, Skill Borrower has all activated abilities of that card. <i>(If any of the abilities use that card's name, use this creature's name instead.)</i>
p1558
aVDestroy X target nonblack creatures. Draw X cards.
p1559
aVSacrifice any number of artifacts, creatures, and/or lands. Draw a card for each permanent sacrificed this way.
p1560
aVReturn target creature card from your graveyard to the battlefield.
p1561
aVPhyrexian Colossus doesn't untap during your untap step.<br>Pay 8 life: Untap Phyrexian Colossus.<br>Phyrexian Colossus can't be blocked except by three or more creatures.
p1562
aVLook at the top seven cards of your library. Put two of them into your hand and the rest into your graveyard.
p1563
aVDestroy target artifact.
p1564
aVCreatures you control get +0/+2 until end of turn.
p1565
aVShock deals 2 damage to target creature or player.
p1566
aVTarget player loses 4 life and you gain 4 life.
p1567
aVWhenever a creature dies, you may pay {1}. If you do, you gain 1 life.
p1568
aVYou have no maximum hand size.
p1569
aVWhenever one or more creatures attack you, if Reveille Squad is untapped, you may untap all creatures you control.
p1570
aVCounter target spell unless its controller pays {X}, where X is its converted mana cost.
p1571
aVRebel Informer can't be the target of white spells or abilities from white sources.<br>{3}: Put target nontoken Rebel on the bottom of its owner's library.
p1572
aVAt the beginning of your upkeep, return a creature you control to its owner's hand.
p1573
aVWhenever equipped creature deals combat damage to a player, you may draw a card.<br>Equip {2} <i>({2}: Attach to target creature you control. Equip only as a sorcery.)</i>
p1574
aVWhen Rotfeaster Maggot enters the battlefield, exile target creature card from a graveyard. You gain life equal to that card's toughness.
p1575
aV{T}, Discard a card: Draw a card.
p1576
aV{2}: Target creature gets +1/+0 until end of turn.
p1577
aVReturn all artifacts to their owners' hands.<br>Cycling {2} <i>({2}, Discard this card: Draw a card.)</i>
p1578
aVShuffle all creature cards from target player's graveyard into that player's library.<br>Cycling {2} <i>({2}, Discard this card: Draw a card.)</i>
p1579
aVChoose one- Destroy target land; or search your library for a land card, put that card onto the battlefield, then shuffle your library.<br>Entwine {1}{G} <i>(Choose both if you pay the entwine cost.)</i>
p1580
aVAs an additional cost to cast Reshape, sacrifice an artifact.<br>Search your library for an artifact card with converted mana cost X or less and put it onto the battlefield. Then shuffle your library.
p1581
aVReturn all artifacts you control to their owner's hand.
p1582
aVPut two target artifacts on top of their owners' libraries.
p1583
aVDefender<br>{T}: Prevent the next 1 damage that would be dealt to you this turn.
p1584
aVWhenever another creature enters the battlefield under your control, you may have Renegade Doppelganger become a copy of that creature until end of turn. <i>(If it does, it loses this ability for the rest of the turn.)</i>
p1585
aVEach player's life total becomes the lowest life total among all players.
p1586
aVTap up to two target creatures.<br>Draw a card.
p1587
aVWhen Runed Servitor dies, each player draws a card.
p1588
aV0: Reveal the top card of your library and put it into your hand. Sarkhan the Mad deals damage to himself equal to that card's converted mana cost.<br>-2: Target creature's controller sacrifices it, then that player puts a 5/5 red Dragon creature token with flying onto the battlefield.<br>-4: Each Dragon creature you control deals damage equal to its power to target player.
p1589
aVWhen Sea Gate Oracle enters the battlefield, look at the top two cards of your library. Put one of them into your hand and the other on the bottom of your library.
p1590
aVDraw two cards, then shuffle a card from your hand into your library.
p1591
aVFlying<br>Revenant's power and toughness are each equal to the number of creature cards in your graveyard.
p1592
aVWhite creatures you control have "{T}: You gain 1 life."
p1593
aVDestroy all nonwhite creatures.
p1594
aVWhenever you cast a red spell, Tattermunge Duo gets +1/+1 until end of turn.<br>Whenever you cast a green spell, Tattermunge Duo gains forestwalk until end of turn.
p1595
aVHorde of Boggarts's power and toughness are each equal to the number of red permanents you control.<br>Horde of Boggarts can't be blocked except by two or more creatures.
p1596
aVSacrifice Cursecatcher: Counter target instant or sorcery spell unless its controller pays {1}.
p1597
aVYou gain 1 life for each tapped artifact, creature, and land you control.
p1598
aVScrapyard Salvo deals damage to target player equal to the number of artifact cards in your graveyard.
p1599
aVWhen Sensor Splicer enters the battlefield, put a 3/3 colorless Golem artifact creature token onto the battlefield.<br>Golem creatures you control have vigilance.
p1600
aVDraw four cards.
p1601
aVPut target creature on top of its owner's library.
p1602
aVTarget player takes an extra turn after this one.
p1603
aVDraw two cards.
p1604
aV{T}: Tap target artifact.
p1605
aVDestroy all creatures that dealt damage to you this turn.
p1606
aVAdd {W}{U}{B}{R}{G} to your mana pool.
p1607
aVFlying, vigilance <i>(This creature can't be blocked except by creatures with flying or reach, and attacking doesn't cause this creature to tap.)</i>
p1608
aVAny number of target players each gain life equal to the highest converted mana cost among permanents you control.
p1609
aVReturn target creature card from your graveyard to your hand.<br>Storm <i>(When you cast this spell, copy it for each spell cast before it this turn. You may choose new targets for the copies.)</i>
p1610
aVChoose one- You gain 6 life; or prevent the next 6 damage that would be dealt to target creature this turn.
p1611
aVWhen a nonblack creature enters the battlefield, sacrifice Grave Peril. If you do, destroy that creature.
p1612
aVTake an extra turn after this one.
p1613
aVSacrifice Goblin Firestarter: Goblin Firestarter deals 1 damage to target creature or player. Activate this ability only during your turn, before attackers are declared.
p1614
aVDefender, flying
p1615
aVReach <i>(This creature can block creatures with flying.)</i>
p1616
aVTarget creature gets +3/+0 and gains haste until end of turn.<br>Flashback {2}{R} <i>(You may cast this card from your graveyard for its flashback cost. Then exile it.)</i>
p1617
aVUntap all creatures that attacked this turn. After this main phase, there is an additional combat phase followed by an additional main phase.
p1618
aV{T}: Target player exiles a card from his or her graveyard.<br>{1}, Exile Relic of Progenitus: Exile all cards from all graveyards. Draw a card.
p1619
aVExile target artifact or enchantment.
p1620
aVCreatures you control have "Whenever this creature becomes blocked by a creature, this creature gets +1/+1 until end of turn."
p1621
aVWhenever a nontoken creature you control dies, you may search your library for a card with the same name as that creature, reveal it, and put it into your hand. If you do, shuffle your library.
p1622
aV{W}: The next time a black source of your choice would deal damage to you this turn, prevent that damage.<br>Cycling {2} <i>({2}, Discard this card: Draw a card.)</i>
p1623
aVDestroy target nonartifact, nonblack creature. It can't be regenerated.<br>Cycling {2} <i>({2}, Discard this card: Draw a card.)</i>
p1624
aVSacrifice an enchantment: You gain life equal to the sacrificed enchantment's converted mana cost.
p1625
aVAt the beginning of your upkeep, you may put a verse counter on Discordant Dirge.<br>{B}, Sacrifice Discordant Dirge: Look at target opponent's hand and choose up to X cards from it, where X is the number of verse counters on Discordant Dirge. That player discards those cards.
p1626
aVYou may choose not to untap Mana Leech during your untap step.<br>{T}: Tap target land. It doesn't untap during its controller's untap step for as long as Mana Leech remains tapped.
p1627
aVSacrifice any number of artifacts, creatures, and/or lands. Draw a card for each permanent sacrificed this way.
p1628
aVCounter target spell. Untap up to four lands.
p1629
aV{T}: Prevent the next 2 damage that would be dealt to target creature or player this turn.
p1630
aVSacrifice Sanctum Guardian: The next time a source of your choice would deal damage to target creature or player this turn, prevent that damage.
p1631
aVAt the beginning of your upkeep, flip a coin. If you lose the flip, return Scoria Wurm to its owner's hand.
p1632
aVWhen Reverent Hunter enters the battlefield, put a number of +1/+1 counters on it equal to your devotion to green. <i>(Each {G} in the mana costs of permanents you control counts toward your devotion to green.)</i>
p1633
aV{R}, Sacrifice Satyr Hedonist: Add {R}{R}{R} to your mana pool.
p1634
aV{3}{G}: Target creature must be blocked this turn if able.
p1635
aVTrample
p1636
aVTarget creature gets +2/+2 until end of turn. Untap that creature.
p1637
aV{2}{B}: Each opponent loses 1 life. You gain life equal to the life lost this way.
p1638
aVCumulative upkeep {1} <i>(At the beginning of your upkeep, put an age counter on this permanent, then sacrifice it unless you pay its upkeep cost for each age counter on it.)</i><br>When Revered Unicorn leaves the battlefield, you gain life equal to the number of age counters on it.
p1639
aVReturn target instant or sorcery card from your graveyard to your hand.
p1640
aVFlying<br>When Sage Owl enters the battlefield, look at the top four cards of your library, then put them back in any order.
p1641
aV{T}: Add to your mana pool one mana of any type that a land you control could produce.
p1642
aVEach player sacrifices a creature. Put an X/X black Demon creature token with flying onto the battlefield, where X is the total power of the creatures sacrificed this way.
p1643
aV{3}: Put target card from a graveyard on the bottom of its owner's library.
p1644
aVDestroy target artifact or enchantment and up to one other target artifact or enchantment.
p1645
aVPrevent all combat damage that would be dealt this turn. You gain 1 life for each attacking creature.
p1646
aVFlying<br>At the beginning of your upkeep, you may return target creature card from your graveyard to the battlefield.
p1647
aVParley- Each player reveals the top card of his or her library. For each nonland card revealed this way, you put a 1/1 white Spirit creature token with flying onto the battlefield. Then each player draws a card.
p1648
aVYou may cast Rout any time you could cast an instant if you pay {2} more to cast it.<br>Destroy all creatures. They can't be regenerated.
p1649
aVWhen Runed Servitor dies, each player draws a card.
p1650
aVYou gain 4 life.
p1651
aV{T}, Sacrifice an artifact: Draw a card.
p1652
aVDefender <i>(This creature can't attack.)</i><br>{T}: Add {G} to your mana pool.
p1653
aVPut two target lands on top of their owners' libraries.
p1654
aVSpineless Thug can't block.
p1655
aVEnchant creature <i>(Target a creature as you cast this. This card enters the battlefield attached to that creature.)</i><br>Whenever enchanted creature deals damage, you gain that much life.
p1656
aVWhen Staunch Defenders enters the battlefield, you gain 4 life.
p1657
aVIf an opponent controls a Swamp and you control a Forest, you may cast Refreshing Rain without paying its mana cost.<br>Target player gains 6 life.
p1658
aVFading 2 <i>(This artifact enters the battlefield with two fade counters on it. At the beginning of your upkeep, remove a fade counter from it. If you can't, sacrifice it.)</i><br>{T}: You gain 2 life.
p1659
aVIf you control a Forest, rather than pay Reverent Silence's mana cost, you may have each other player gain 6 life.<br>Destroy all enchantments.
p1660
aVIf an opponent cast a blue spell this turn, you may pay {R} rather than pay Ricochet Trap's mana cost.<br>Change the target of target spell with a single target.
p1661
aVDestroy target land, then Roiling Terrain deals damage to that land's controller equal to the number of land cards in that player's graveyard.
p1662
aVPut target creature card from a graveyard onto the battlefield under your control. You lose life equal to its converted mana cost.
p1663
aVPlayers play with their hands revealed.
p1664
aVProtection from red
p1665
aVYou may choose not to untap Rubinia Soulsinger during your untap step.<br>{T}: Gain control of target creature for as long as you control Rubinia and Rubinia remains tapped.
p1666
aV{2}, {T}: Exile target creature you control.<br>At the beginning of your upkeep, you may sacrifice Safe Haven. If you do, return each card exiled with Safe Haven to the battlefield under its owner's control.
p1667
aVPrevent all combat damage that would be dealt by target attacking creature this turn.<br><br>Draw a card.
p1668
aVReturn target creature to its owner's hand.<br>Draw a card.
p1669
aVDestroy two target nonblack creatures. You lose 5 life.
p1670
aVReturn two target cards from your graveyard to your hand. Exile Restock.
p1671
aVReturn target permanent to its owner's hand. Then that player discards a card.
p1672
aV{1}, Pay 2 life: Reckless Assault deals 1 damage to target creature or player.
p1673
aVReveal the top three cards of your library and put one of them into your hand. You gain life equal to that card's converted mana cost. Put all other cards revealed this way into your graveyard.
p1674
aVWhenever an opponent casts a multicolored spell, you gain 4 life.
p1675
aVReturn target creature card from your graveyard to your hand.<br>Draw a card.
p1676
aVYou gain 3 life.<br>Draw a card.
p1677
aVFlying<br>At the beginning of your upkeep, you may return target creature card from your graveyard to the battlefield.
p1678
aVWhen Returned Reveler dies, each player puts the top three cards of his or her library into his or her graveyard.
p1679
aVPut four 2/2 red and green Satyr creature tokens with haste onto the battlefield.
p1680
aVChoose one or both- Return target creature card from your graveyard to your hand; and/or return target enchantment card from your graveyard to your hand.
p1681
aVChoose target creature or player. Scry 3, then reveal the top card of your library. Riddle of Lightning deals damage equal to that card's converted mana cost to that creature or player. <i>(To scry 3, look at the top three cards of your library, then put any number of them on the bottom of your library and the rest on top in any order.)</i>
p1682
aVFlying<br>At the beginning of your upkeep, return an enchantment you control to its owner's hand.
p1683
aVFlying<br>Whenever a source an opponent controls deals damage to you, you may put that many +1/+1 counters on Retaliator Griffin.
p1684
aVIf you would draw a card, instead reveal the top three cards of your library. Put all creature cards revealed this way into your hand and the rest on the bottom of your library in any order.
p1685
aVDiscard X cards, then return a card from your graveyard to your hand for each card discarded this way. Exile Recall.
p1686
aVWhenever Reef Pirates deals damage to an opponent, that player puts the top card of his or her library into his or her graveyard.
p1687
aV{T}: Prevent the next 1 damage that would be dealt to target creature or player this turn.<br>{1}{W}{W}, {T}: Target creature gains vigilance until end of turn.
p1688
aVForestwalk
p1689
aVDestroy target artifact.
p1690
aVFlying<br>{R}: Shivan Dragon gets +1/+0 until end of turn.
p1691
aVWhen you set this scheme in motion, search your library for up to two basic land cards, put them onto the battlefield tapped, then shuffle your library.
p1692
aVPut target creature card from a graveyard onto the battlefield under your control. You lose life equal to its converted mana cost.
p1693
aV{1}{B}: Return Reassembling Skeleton from your graveyard to the battlefield tapped.
p1694
aVDestroy target blocking creature. Creatures that were blocked by that creature this combat gain trample until end of turn.
p1695
aVWhenever another creature dies, scry 1. <i>(Look at the top card of your library. You may put that card on the bottom of your library.)</i><br>{B}: Reaper of the Wilds gains deathtouch until end of turn.<br>{1}{G}: Reaper of the Wilds gains hexproof until end of turn.
p1696
aVCounter target spell. If that spell is countered this way, put it into its owner's hand instead of into that player's graveyard.<br>Draw a card.
p1697
aVDestroy all green creatures or all white creatures. They can't be regenerated. You lose 2 life for each creature that died this way.
p1698
aV{B}: Regenerate Restless Dead.
p1699
aVTarget artifact, creature, or land phases out. <i>(While it's phased out, it's treated as though it doesn't exist. It phases in before its controller untaps during his or her next untap step.)</i>
p1700
aVChoose one- Destroy target Plains and target white creature; or destroy target Island and target blue creature.
p1701
aVWhenever an opponent casts a spell that targets you or a creature you control, you may draw a card.
p1702
aVWhenever Rock Basilisk blocks or becomes blocked by a non-Wall creature, destroy that creature at end of combat.
p1703
aVEnchant creature <i>(Target a creature as you cast this. This card enters the battlefield attached to that creature.)</i><br>{G}: Regenerate enchanted creature. <i>(The next time that creature would be destroyed this turn, it isn't. Instead tap it, remove all damage from it, and remove it from combat.)</i>
p1704
aVSandstorm deals 1 damage to each attacking creature.
p1705
aVEach creature you control gets +1/+1 for each of its colors.
p1706
aVAt the beginning of each upkeep, if no spells were cast last turn, transform Reckless Waif.
p1707
aVRolling Temblor deals 2 damage to each creature without flying.<br>Flashback {4}{R}{R} <i>(You may cast this card from your graveyard for its flashback cost. Then exile it.)</i>
p1708
aVYou may pay {0} rather than pay the mana cost for Zombie creature spells you cast.
p1709
aV{T}: Add {2} to your mana pool.
p1710
aVWhenever a creature dies, you may pay {1}. If you do, you gain 1 life.
p1711
aVCounter target spell with converted mana cost X.
p1712
aVEnchant artifact<br>You control enchanted artifact.
p1713
aVDestroy target land.
p1714
aVYou may spend white mana as though it were red mana.
p1715
aVDestroy all creatures with power 4 or greater. They can't be regenerated.
p1716
aVFlanking <i>(Whenever a creature without flanking blocks this creature, the blocking creature gets -1/-1 until end of turn.)</i><br>{U}{U}: Teferi's Honor Guard phases out. <i>(While it's phased out, it's treated as though it doesn't exist. It phases in before you untap during your next untap step.)</i>
p1717
aV{W}, Pay 2 life: The next time a source of your choice would deal damage to you this turn, prevent that damage.
p1718
aVIslandwalk<br>{G}: Regenerate River Boa.
p1719
aVReveal the first card you draw each turn. Whenever you reveal a basic land card this way, draw a card.
p1720
aVRemote Isle enters the battlefield tapped.<br>{T}: Add {U} to your mana pool.<br>Cycling {2} <i>({2}, Discard this card: Draw a card.)</i>
p1721
aVRockslide Ambush deals damage to target creature equal to the number of Mountains you control.
p1722
aVSandstorm deals 1 damage to each attacking creature.
p1723
aV{6}, {T}: Prevent all damage that would be dealt to you this turn by creatures with flying.
p1724
aVCounter target spell. Its controller can't cast spells this turn.
p1725
aVEvolve <i>(Whenever a creature enters the battlefield under your control, if that creature has greater power or toughness than this creature, put a +1/+1 counter on this creature.)</i><br>Whenever Renegade Krasis evolves, put a +1/+1 counter on each other creature you control with a +1/+1 counter on it.
p1726
aVEach player sacrifices a multicolored permanent.
p1727
aVReturn each creature that dealt damage this turn to its owner's hand.
p1728
aVYou gain 1 life for each creature your opponents control. Prevent all damage that would be dealt to you this turn.
p1729
aVFirst strike<br>Riot Piker attacks each turn if able.
p1730
aVChange the target of target spell that targets only a player. The new target must be a player.
p1731
aVUntap all creatures you control and all creatures target opponent controls. You and that opponent each gain control of all creatures the other controls until end of turn. Those creatures gain haste until end of turn.
p1732
aVFlying<br>Revenant's power and toughness are each equal to the number of creature cards in your graveyard.
p1733
aVAll damage that would be dealt this turn by target sorcery spell is dealt to that spell's controller instead.
p1734
aVAny number of target creatures become blue until end of turn.
p1735
aV{T}: Target creature loses all "bands with other" abilities until end of turn.
p1736
aVDefender <i>(This creature can't attack.)</i><br>Whenever Wall of Caltrops blocks a creature, if no non-Wall creatures are blocking that creature, Wall of Caltrops gains banding until end of turn. <i>(If any creatures with banding you control are blocking a creature, you divide that creature's combat damage, not its controller, among any of the creatures it's being blocked by.)</i>
p1737
aVStorm Seeker deals damage to target player equal to the number of cards in that player's hand.
p1738
aVAt the beginning of your draw step, you may draw two additional cards. If you do, choose two cards in your hand drawn this turn. For each of those cards, pay 4 life or put the card on top of your library.
p1739
aVSyphon Soul deals 2 damage to each other player. You gain life equal to the damage dealt this way.
p1740
aVEnchant creature<br>At the beginning of the upkeep of enchanted creature's controller, put a -0/-1 counter on that creature.<br>When enchanted creature dies, that creature's controller chooses a creature that Takklemaggot could enchant. If he or she does, return Takklemaggot to the battlefield under your control attached to that creature. If he or she doesn't, return Takklemaggot to the battlefield under your control as a non-Aura enchantment. It loses "enchant creature" and gains "At the beginning of that player's upkeep, Takklemaggot deals 1 damage to him or her."
p1741
aVCast Teleport only during the declare attackers step.<br>Target creature is unblockable this turn.
p1742
aVRemove Tempest Efreet from your deck before playing if you're not playing for ante.<br>{T}, Sacrifice Tempest Efreet: Target opponent may pay 10 life. If that player doesn't, he or she reveals a card at random from his or her hand. Exchange ownership of the revealed card and Tempest Efreet. Put the revealed card into your hand and Tempest Efreet from anywhere into that player's graveyard.
p1743
aVEnchant creature<br>Enchanted creature gets +1/+0.<br>{R}{R}{R}: Regenerate enchanted creature.
p1744
aVPut a 3/1 red Elemental creature token onto the battlefield unless any opponent has you draw a card. Repeat this process two more times.
p1745
aVChoose up to four cards you own from outside the game and shuffle them into your library.<br>
p1746
aV{1}{B}: Return Reassembling Skeleton from your graveyard to the battlefield tapped.
p1747
aVTarget player shuffles his or her graveyard into his or her library.
p1748
aVWhenever you clash, you may pay {1}. If you do, put a 3/1 red Elemental Shaman creature token onto the battlefield. If you won, that token gains haste until end of turn. <i>(This ability triggers after the clash ends.)</i>
p1749
aVProtection from red
p1750
aVRotting Legion enters the battlefield tapped.
p1751
aV{T}: Destroy target tapped creature.
p1752
aVHexproof <i>(This creature can't be the target of spells or abilities your opponents control.)</i>
p1753
aVPrevent all damage that would be dealt to you and creatures you control this turn.
p1754
aV{T}: Reveka, Wizard Savant deals 2 damage to target creature or player and doesn't untap during your next untap step.
p1755
aVAs an additional cost to cast Renewal, sacrifice a land.<br>Search your library for a basic land card and put that card onto the battlefield. Then shuffle your library.<br>Draw a card at the beginning of the next turn's upkeep.
p1756
aVFlip a coin. If you win the flip, Winter Sky deals 1 damage to each creature and each player. If you lose the flip, each player draws a card.
p1757
aV{W}{W}, {T}: Prevent the next 4 damage that would be dealt this turn to target creature you control. Tap that creature. It doesn't untap during your next untap step.
p1758
aVFlying, protection from red
p1759
aVVigilance; horsemanship <i>(This creature can't be blocked except by creatures with horsemanship.)</i>
p1760
aVSwampwalk
p1761
aVIslandwalk
p1762
aS''
p1763
aVReturn target creature card from your graveyard to the battlefield.
p1764
aVReturn target card from your graveyard to your hand.
p1765
aVCopy target instant or sorcery spell. You may choose new targets for the copy.
p1766
aVWhite creatures get +2/+0 until end of turn.
p1767
aVDestroy target tapped creature.
p1768
aVFlying<br>Haste <i>(This creature can attack and {T} as soon as it comes under your control.)</i>
p1769
aVFlying<br>Whenever another non-Spirit creature you control dies, put a 1/1 white Spirit creature token with flying onto the battlefield.
p1770
aVReturn target creature you own to your hand.<br>Flashback {W} <i>(You may cast this card from your graveyard for its flashback cost. Then exile it.)</i>
p1771
aVDestroy target land. Scorch the Fields deals 1 damage to each Human creature.
p1772
asS'costs'
p1773
(lp1774
V{3}{B}
p1775
aV{2}{U}{U}
p1776
aV{4}{B}{B}{B}{B}
p1777
aV{4}{G}
p1778
aV{2}{U}
p1779
aV{4}{G}{G}
p1780
aV{X}{G}{G}
p1781
aV{4}
p1782
aV{1}{G}
p1783
aV{R}
p1784
aV{W}
p1785
aV{1}{G}
p1786
aV{1}{G}
p1787
aV{2}{W}{W}
p1788
aV{1}{W}{W}
p1789
aV{1}{G}{G}
p1790
aV{2}{G}
p1791
aV{2}{W}{W}
p1792
aV{B}
p1793
aS'0'
p1794
aV{1}{W}
p1795
aV{1}{U}
p1796
aV{1}{R}
p1797
aV{3}{G}
p1798
aV{4}{W}
p1799
aV{1}{B}
p1800
aV{2}{G}
p1801
aV{4}{G}
p1802
aV{1}{U}
p1803
aV{7}{U}{U}{U}
p1804
aV{X}{R}{R}
p1805
aV{2}{R}
p1806
aV{3}{G}
p1807
ag1794
aV{4}
p1808
aV{2}{U}
p1809
aV{3}{G}{G}{G}
p1810
aV{R}
p1811
aV{W}
p1812
aV{1}{G}
p1813
aV{1}{W}{W}
p1814
aV{1}{W}
p1815
aV{W}
p1816
aV{2}{U}
p1817
aV{3}{G}
p1818
aV{3}{R}{R}
p1819
aV{3}{W}
p1820
aV{X}{B}{B}
p1821
aV{G}{W}
p1822
aV{U}
p1823
aV{W}{W}
p1824
aV{W}
p1825
aV{W}
p1826
aV{1}{W}
p1827
aV{1}{W}
p1828
aV{W}
p1829
aV{1}{W}
p1830
aV{3}{W}{W}
p1831
aV{7}
p1832
aV{3}{G}{G}
p1833
aV{1}{G}{W}
p1834
aV{1}{R}
p1835
aV{U}
p1836
aV{X}{G}
p1837
aV{1}{R}
p1838
aV{5}
p1839
aV{1}{G}
p1840
aV{1}{G}
p1841
aV{4}{G}{G}
p1842
aV{1}{G}
p1843
aV{4}{R}
p1844
aV{2}{W}
p1845
ag1794
aV{B}
p1846
aV{1}{B}{B}
p1847
aV{6}{W}{W}{W}
p1848
aV{1}{G}
p1849
aV{2}{R}{R}
p1850
aV{2}{U}
p1851
aV{1}{U}
p1852
aV{2}{G}
p1853
aV{2}{W}
p1854
aV{2}{B}
p1855
aV{1}{B}{B}
p1856
aV{1}{W}
p1857
aV{2}{W}
p1858
ag1794
aV{3}{W}
p1859
aV{1}{G}
p1860
aV{3}{W}{W}
p1861
aV{2}{W}
p1862
aV{4}{G}{G}
p1863
aV{B}
p1864
aV{R}
p1865
aV{2}{B}
p1866
aV{1}{G}
p1867
aV{4}{B}{B}
p1868
aV{2}{W}
p1869
aV{3}{U}
p1870
aV{U}
p1871
aV{4}{G}
p1872
aV{4}{W}
p1873
aV{B}
p1874
aV{4}
p1875
aV{X}{R}
p1876
aV{U}
p1877
aV{X}{X}{U}
p1878
aV{1}{G}{G}
p1879
aV{1}{U}
p1880
aV{U}{U}
p1881
aV{2}{U}{U}
p1882
aV{U}
p1883
aV{1}{G}
p1884
aV{2}{W}{W}
p1885
aV{W}{W}
p1886
aV{R}
p1887
aV{W}
p1888
aV{1}{G}
p1889
aV{1}{W}{W}
p1890
aV{4}{U}
p1891
aV{W}
p1892
aV{1}{W}
p1893
aV{2}{R}{R}
p1894
aV{X}{U}
p1895
aV{2}{B}
p1896
aV{4}{B}
p1897
aV{G}
p1898
aV{R}
p1899
aV{1}{G}
p1900
aV{2}{R}{R}
p1901
aV{2}{U}
p1902
aV{1}{U}
p1903
aV{1}{W}{W}
p1904
aV{2}{U}{U}
p1905
aV{4}{G}{G}{G}
p1906
aV{2}{W}
p1907
aV{W/B}{W/B}{W/B}
p1908
aV{2}{R}{R}
p1909
aV{2}{B/G}
p1910
ag1794
aV{4}{R}
p1911
aV{4}{G}{G}
p1912
aV{3}{R}{R}
p1913
aV{3}{B}{B}
p1914
ag1794
aV{1}{B}
p1915
aV{1}{R}
p1916
aV{4}{B}
p1917
aV{3}{R}
p1918
aV{2}{W}
p1919
aV{X}{U}
p1920
aV{2}{U}
p1921
aV{2}{B}
p1922
aV{W}
p1923
aV{2}{B}
p1924
aV{6}{W}{W}
p1925
aV{U}
p1926
aV{5}{U}
p1927
aV{2}
p1928
aV{3}{U}{U}
p1929
aV{2}{W}
p1930
aV{3}{W}
p1931
aV{U}
p1932
aV{R}
p1933
aV{1}{R}{R}
p1934
aV{1}{W}
p1935
aV{1}{U}
p1936
aV{1}{R}
p1937
aV{2}{G}
p1938
aV{1}{B}{B}
p1939
aV{1}{G}{G}
p1940
aV{1}{G}
p1941
aV{3}{U}
p1942
aV{2}{W}{W}
p1943
aV{1}{R}
p1944
aV{3}{B}{B}
p1945
aV{R}
p1946
aV{2}{G}
p1947
aV{2}{W}{W}
p1948
aV{1}{R}{R}
p1949
aV{0}
p1950
aV{X}{B}{R}
p1951
aV{U}
p1952
aV{W}
p1953
aV{W}
p1954
aV{2}{B}
p1955
aV{3}{R}
p1956
aV{1}{G}
p1957
aV{G}
p1958
aV{1}{G}
p1959
aV{R}
p1960
aV{W}
p1961
aV{1}{G}
p1962
aV{1}{G}
p1963
aV{2}{W}{W}
p1964
aV{1}{W}{W}
p1965
aV{U}{U}{U}
p1966
aV{W}
p1967
aV{2}{G}{W}
p1968
aV{1}{G}
p1969
aV{B}
p1970
aV{U}
p1971
aV{2}{W}
p1972
aV{4}{G}{G}
p1973
aV{2}{B}{B}
p1974
aV{1}{W}{W}
p1975
aV{1}{W}
p1976
aV{2}{W}
p1977
aV{1}{G}
p1978
aV{1}{W}
p1979
aV{W}
p1980
aV{1}{U}{U}
p1981
aV{X}{X}{U}
p1982
aV{3}{R}
p1983
aV{4}{G}
p1984
aV{2}{R}{R}
p1985
aV{1}{U}
p1986
aV{1}{B}{B}
p1987
aV{4}{B}{B}{B}{B}
p1988
aV{2}{U}
p1989
aV{1}
p1990
aV{B}
p1991
aV{X}{G}
p1992
aV{2}{G}
p1993
aV{5}{W}{W}
p1994
aV{4}{G}
p1995
aV{4}{W}
p1996
aV{4}{G}
p1997
aV{4}{B}
p1998
aV{2}{B}{B}
p1999
aV{R}
p2000
aV{3}{R}
p2001
aV{G}
p2002
aV{1}{G}
p2003
aV{2}{R}{R}
p2004
aV{1}{U}
p2005
aV{1}{W}
p2006
aV{1}{W}{W}
p2007
aV{2}{W}{W}
p2008
aV{2}{U}
p2009
aV{2}{B}
p2010
aV{2}{W}
p2011
aV{1}
p2012
aV{1}{U}
p2013
aV{1}{W}
p2014
aV{G}
p2015
aV{2}{U}
p2016
aV{1}{G}
p2017
aV{3}{G}
p2018
aV{X}{U}{U}
p2019
aV{U}
p2020
aV{3}{G}{G}
p2021
aV{5}{R}
p2022
aV{X}{U}{U}
p2023
aV{2}{G}
p2024
aV{4}{U}{U}
p2025
aV{2}{U}
p2026
aV{3}
p2027
aV{1}{U}
p2028
aV{5}{B}{B}
p2029
aV{4}{B}
p2030
aV{4}{W}
p2031
aV{2}
p2032
ag1794
aV{1}{G/W}
p2033
aV{3}{W/U}
p2034
aV{2/W}{2/U}{2/B}{2/R}{2/G}
p2035
aV{2}{R}
p2036
aV{4}{B}
p2037
aV{1}{U}{U}
p2038
aV{2}{R}{R}
p2039
aV{1}{U}
p2040
aV{G}
p2041
aV{2}
p2042
aV{2}{W}{W}
p2043
aV{4}{R}{R}
p2044
aV{1}{B}{B}
p2045
aV{W}
p2046
aV{2}{B}
p2047
aV{3}{W}
p2048
aV{4}{U}{U}
p2049
aV{U}
p2050
aV{5}{B}{B}
p2051
aV{G}
p2052
aV{2}{R}{R}
p2053
aV{R}
p2054
aV{2}{R}{R}
p2055
aV{1}
p2056
aV{1}{W}
p2057
aV{2}{G}
p2058
aV{3}{W}
p2059
aV{1}{U}{U}
p2060
aV{3}{G}
p2061
aV{2}{R}{R}
p2062
aV{3}{U}{U}
p2063
aV{3}{B}
p2064
aV{1}{W}
p2065
aV{R}
p2066
ag1794
aV{2}{B}{B}
p2067
aV{2}{U}{U}
p2068
aV{1}{R}{R}
p2069
aV{2}{W}
p2070
aV{2}{B}
p2071
aV{2}{B}{G}
p2072
aV{4}{B}
p2073
aV{3}{B}
p2074
aV{1}{W}
p2075
aV{4}{G}
p2076
aV{1}{U}{U}
p2077
aV{B}
p2078
aV{4}{G}{G}
p2079
aV{2}{U}
p2080
ag1794
aV{1}{B}{B}
p2081
aV{4}{B}{B}
p2082
aV{2}
p2083
aV{4}{G}
p2084
aV{1}{G}
p2085
aV{1}{W}
p2086
aV{2}{U}{U}
p2087
aV{2}{R}{R}
p2088
aV{1}{G}
p2089
aV{R}
p2090
aV{1}{G}
p2091
aV{1}{U}
p2092
aV{3}{G}
p2093
aV{3}
p2094
aV{3}{G}
p2095
aV{3}
p2096
aV{3}{W}
p2097
aV{B}
p2098
aV{G}
p2099
aV{X}{X}{U}
p2100
aV{1}{U}
p2101
aV{1}{W}
p2102
aV{2}{W}
p2103
aV{2}{U}
p2104
aV{1}{B}{B}
p2105
aV{3}{G}{G}
p2106
aV{1}{U}{B}
p2107
aV{2}{B}{R}
p2108
aV{2}{W}{U}
p2109
aV{2}{W}
p2110
aV{2}{B}
p2111
aV{2}{W}
p2112
aV{6}{W}{W}{W}
p2113
aV{3}{G}
p2114
aV{G}
p2115
aV{1}{W}
p2116
aV{1}{B}
p2117
aV{3}{R}{R}{G}{G}
p2118
aV{G}{W}
p2119
aV{1}{R}{G}{W}
p2120
aV{X}{X}{U}
p2121
aV{1}{U}{U}
p2122
aV{1}{W}
p2123
aV{1}{G}
p2124
aV{1}{U}
p2125
aV{1}{W}{W}
p2126
ag1794
aV{B}
p2127
aV{1}{B}
p2128
aV{B}
p2129
aV{3}{U}
p2130
aV{2}{B}{G}
p2131
aV{3}{B}{B}
p2132
aV{1}{B}
p2133
aV{1}{U}
p2134
aV{2}{R}{R}
p2135
aV{3}{R}{W}
p2136
aV{1}{W}{U}
p2137
aV{3}{R}
p2138
aV{1}{G}
p2139
ag1794
aV{2}{W}
p2140
aV{G}
p2141
aV{3}{B}{B}{B}
p2142
aV{R}
p2143
aV{W}
p2144
aV{1}{G}
p2145
aV{1}{G}
p2146
aV{2}{W}{W}
p2147
aV{1}{W}{W}
p2148
aV{1}{W}
p2149
aV{2}{W}
p2150
aV{2}{R}{R}
p2151
aV{1}{W}
p2152
aV{W}
p2153
ag1794
aV{U}
p2154
aV{R}
p2155
aV{1}{G}
p2156
aV{2}{U}{R}
p2157
aV{1}{G}{W}
p2158
aV{X}{2}{U}{B}
p2159
aV{W}{U}{U}
p2160
aV{1}{G}{G}
p2161
aV{1}{W}
p2162
aV{1}{U}
p2163
aV{2}{U}{U}
p2164
aV{4}{B}
p2165
aV{U}{U}
p2166
aV{2}{U}{U}
p2167
aV{1}{G}{G}
p2168
aV{W}
p2169
aV{3}{G}{G}{G}
p2170
aV{X}{X}{U}
p2171
aV{4}
p2172
aV{2}
p2173
aV{2}{U}
p2174
aV{1}{U}
p2175
aV{G}
p2176
aV{3}{U}{R}
p2177
aV{G}{U}
p2178
aV{1}{B}
p2179
aV{2}{U}
p2180
aV{3}{R}
p2181
aV{1}{W}
p2182
aV{2}{R}
p2183
aV{X}{G}
p2184
aV{1}{R}
p2185
aV{1}{R}
p2186
aV{2}{U}{U}
p2187
aV{2}{G}
p2188
aV{2}{R}{R}
p2189
aV{1}{U}{U}
p2190
aV{1}{U}{U}
p2191
aV{4}{U}
p2192
aV{4}{R}
p2193
aV{B}
p2194
aV{2}{R}{R}
p2195
aV{2}{W}{W}
p2196
aV{1}{G}
p2197
aV{R}{R}
p2198
aV{1}{W}
p2199
aV{4}{G}
p2200
aV{2}{W}
p2201
aV{2}{B}
p2202
aV{3}{U}{U}
p2203
aV{5}{W}
p2204
asS'names'
p2205
(lp2206
VReins of Power
p2207
aVReiver Demon
p2208
aVRelic Crush
p2209
aVRepulse
p2210
aVReturn to Dust
p2211
aVReassembling Skeleton
p2212
aVReclaim
p2213
aVRedirect
p2214
aVReverberate
p2215
aVRed Elemental Blast
p2216
aVRed Ward
p2217
aVRegeneration
p2218
aVRegrowth
p2219
aVResurrection
p2220
aVReverse Damage
p2221
aVRending Vines
p2222
aVReki, the History of Kamigawa
p2223
aVReverence
p2224
aVReanimate
p2225
aVRemote Isle
p2226
aVRedeem the Lost
p2227
aVResearch the Deep
p2228
aVRelease the Ants
p2229
aVReins of the Vinesteed
p2230
aVReveillark
p2231
aVRevive the Fallen
p2232
aVRecross the Paths
p2233
aVReach of Branches
p2234
aVRedirect
p2235
aVRewind
p2236
aVReckless Brute
p2237
aVReverberate
p2238
aVRevive
p2239
aVReliquary Tower
p2240
aVRed Mana Battery
p2241
aVRelic Bind
p2242
aVRebirth
p2243
aVRed Elemental Blast
p2244
aVRed Ward
p2245
aVRegeneration
p2246
aVReverse Damage
p2247
aVRevered Dead
p2248
aVRebuff the Wicked
p2249
aVReality Acid
p2250
aVReflex Sliver
p2251
aVReckless Wurm
p2252
aVRetether
p2253
aVRecoil
p2254
aVRecumbent Bliss
p2255
aVReconstruction
p2256
aVReverse Polarity
p2257
aVReinforcements
p2258
aVReinforcements
p2259
aVReprisal
p2260
aVReprisal
p2261
aVReciprocate
p2262
aVReprisal
p2263
aVRelic Putrescence
p2264
aVRevoke Existence
p2265
aVReap What Is Sown
p2266
aVReckless Reveler
p2267
aVRetraction Helix
p2268
aVRevoke Existence
p2269
aVRegenerate
p2270
aVRelentless Rats
p2271
aVRegathan Firecat
p2272
aVReality Anchor
p2273
aVReap
p2274
aVRecycle
p2275
aVRespite
p2276
aVRenegade Warlord
p2277
aVRepentance
p2278
aVReflecting Pool
p2279
aVReanimate
p2280
aVReckless Spite
p2281
aVReya Dawnbringer
p2282
aVRegeneration
p2283
aVRelentless Assault
p2284
aVReminisce
p2285
aVRemove Soul
p2286
aVRecollect
p2287
aVReviving Dose
p2288
aVRecover
p2289
aVRelentless Rats
p2290
aVRenounce
p2291
aVRevered Elder
p2292
aVRemote Farm
p2293
aVReverent Mantra
p2294
aVRevive
p2295
aVRealm Seekers
p2296
aVReanimate
p2297
aVReckless Charge
p2298
aVRecurring Nightmare
p2299
aVRegrowth
p2300
aVReign of the Pit
p2301
aVRenewed Faith
p2302
aVRepel
p2303
aVRescind
p2304
aVReviving Vapors
p2305
aVReach Through Mists
p2306
aVReach of Branches
p2307
aVReveillark
p2308
aVRelic of Progenitus
p2309
aVReflecting Mirror
p2310
aVRed Sun's Zenith
p2311
aVReef Shaman
p2312
aVRecall
p2313
aVReincarnation
p2314
aVRemove Soul
p2315
aVReset
p2316
aVReveka, Wizard Savant
p2317
aVReconstruction
p2318
aVRegrowth
p2319
aVResurrection
p2320
aVReverse Polarity
p2321
aVRed Elemental Blast
p2322
aVRed Ward
p2323
aVRegeneration
p2324
aVReverse Damage
p2325
aVRed Cliffs Armada
p2326
aVReinforcements
p2327
aVReprisal
p2328
aVRetribution
p2329
aVRepeal
p2330
aVRestless Bones
p2331
aVRevenant Patriarch
p2332
aVReclaim
p2333
aVReflexes
p2334
aVRegeneration
p2335
aVRelentless Assault
p2336
aVReminisce
p2337
aVRemove Soul
p2338
aVReverse Damage
p2339
aVRewind
p2340
aVRegal Force
p2341
aVRecumbent Bliss
p2342
aVRestless Apparition
p2343
aVRekindled Flame
p2344
aVRendclaw Trow
p2345
aVReliquary Tower
p2346
aVReforge the Soul
p2347
aVRenegade Demon
p2348
aVRestoration Angel
p2349
aVRevenge of the Hunted
p2350
aVReality Shaping
p2351
aVReassembling Skeleton
p2352
aVRecoup
p2353
aVRevenant Patriarch
p2354
aVReckless One
p2355
aVRenewed Faith
p2356
aVRead the Runes
p2357
aVReminisce
p2358
aVRend Spirit
p2359
aVReciprocate
p2360
aVRend Flesh
p2361
aVReverse the Sands
p2362
aVReach Through Mists
p2363
aVReweave
p2364
aVReito Lantern
p2365
aVReduce to Dreams
p2366
aVReliquary Monk
p2367
aVReplenish
p2368
aVRescue
p2369
aVReckless Abandon
p2370
aVRepercussion
p2371
aVRelic of Progenitus
p2372
aVRemand
p2373
aVReroute
p2374
aVRecollect
p2375
aVReckless Spite
p2376
aVReincarnation
p2377
aVRestore
p2378
aVRepel
p2379
aVResilient Wanderer
p2380
aVRecoup
p2381
aVRepentant Vampire
p2382
aVReckless Charge
p2383
aVRefresh
p2384
aVReturn to Dust
p2385
aVReiterate
p2386
aVRestore Balance
p2387
aVRest in Peace
p2388
aVRealmwright
p2389
aVReaping the Rewards
p2390
aVReconnaissance
p2391
aVRecurring Nightmare
p2392
aVReckless Ogre
p2393
aVResuscitate
p2394
aVReclaim
p2395
aVResize
p2396
aVRed Elemental Blast
p2397
aVRed Ward
p2398
aVRegeneration
p2399
aVRegrowth
p2400
aVResurrection
p2401
aVReverse Damage
p2402
aVReality Twist
p2403
aVRed Scarab
p2404
aVReclamation
p2405
aVRegeneration
p2406
aVRestless Dreams
p2407
aVRetraced Image
p2408
aVReborn Hero
p2409
aVReckless Scholar
p2410
aVRelic Crush
p2411
aVReverse Damage
p2412
aVRemedy
p2413
aVRegal Unicorn
p2414
aVRegeneration
p2415
aVReprisal
p2416
aVResistance Fighter
p2417
aVRelearn
p2418
aVRecall
p2419
aVReckless Embermage
p2420
aVRedwood Treefolk
p2421
aVRelentless Assault
p2422
aVRemove Soul
p2423
aVRelic Bane
p2424
aVReiver Demon
p2425
aVRegress
p2426
aVRelic of Progenitus
p2427
aVResounding Roar
p2428
aVResounding Silence
p2429
aVResounding Thunder
p2430
aVResounding Wave
p2431
aVResounding Scream
p2432
aVRealm Razer
p2433
aVRedwood Treefolk
p2434
aVRevenant
p2435
aVReprocess
p2436
aVReflexes
p2437
aVReckless Embermage
p2438
aVReclaim
p2439
aVRegeneration
p2440
aVRelentless Assault
p2441
aVRemove Soul
p2442
aVReprisal
p2443
aVReverse Damage
p2444
aVReveille Squad
p2445
aVRethink
p2446
aVRebel Informer
p2447
aVReclamation Sage
p2448
aVResearch Assistant
p2449
aVResolute Archangel
p2450
aVRestock
p2451
aVReturn to the Ranks
p2452
aVRebuild
p2453
aVRepopulate
p2454
aVReap and Sow
p2455
aVReshape
p2456
aVRetract
p2457
aVRebuking Ceremony
p2458
aVReality Spasm
p2459
aVRealms Uncharted
p2460
aVRecurring Insight
p2461
aVRegress
p2462
aVReinforced Bulwark
p2463
aVRenegade Doppelganger
p2464
aVRepay in Kind
p2465
aVRepel the Darkness
p2466
aVRevenant
p2467
aVResplendent Mentor
p2468
aVRevelsong Horn
p2469
aVReflecting Pool
p2470
aVReknit
p2471
aVRepel Intruders
p2472
aVReaper King
p2473
aVReaper of Sheoldred
p2474
aVRemember the Fallen
p2475
aVRelearn
p2476
aVRelentless Assault
p2477
aVRemove Soul
p2478
aVRenewing Touch
p2479
aVRelic Barrier
p2480
aVRetaliate
p2481
aVReversal of Fortune
p2482
aVRelentless Rats
p2483
aVReward the Faithful
p2484
aVReaping the Graves
p2485
aVRecuperate
p2486
aVReality Strobe
p2487
aVRemove
p2488
aVReturn of the Nightstalkers
p2489
aVRenewing Touch
p2490
aVRelentless Assault
p2491
aVReckless Charge
p2492
aVRelentless Assault
p2493
aVRelic of Progenitus
p2494
aVRevoke Existence
p2495
aVRetaliation
p2496
aVRemembrance
p2497
aVRescind
p2498
aVRejuvenate
p2499
aVRetromancer
p2500
aVRecantation
p2501
aVReclusive Wight
p2502
aVRedeem
p2503
aVReflexes
p2504
aVRemote Isle
p2505
aVReprocess
p2506
aVRewind
p2507
aVRead the Bones
p2508
aVReaper of the Wilds
p2509
aVRescue from the Underworld
p2510
aVReturned Centaur
p2511
aVReturned Phalanx
p2512
aVReverent Hunter
p2513
aVRevered Unicorn
p2514
aVRedwood Treefolk
p2515
aVRelearn
p2516
aVRealm Seekers
p2517
aVReckless Scholar
p2518
aVReckless Spite
p2519
aVReflecting Pool
p2520
aVReign of the Pit
p2521
aVReito Lantern
p2522
aVRelic Crush
p2523
aVRespite
p2524
aVReya Dawnbringer
p2525
aVRedeem
p2526
aVRewind
p2527
aVRelentless Assault
p2528
aVRevive
p2529
aVReflexes
p2530
aVRegeneration
p2531
aVRemove Soul
p2532
aVRefreshing Rain
p2533
aVRejuvenation Chamber
p2534
aVReverent Silence
p2535
aVRefraction Trap
p2536
aVRest for the Weary
p2537
aVReanimate
p2538
aVRevelation
p2539
aVRecall
p2540
aVRemove Soul
p2541
aVRepentant Blacksmith
p2542
aVRestrain
p2543
aVRepulse
p2544
aVReckless Spite
p2545
aVRestock
p2546
aVRecoil
p2547
aVReckless Assault
p2548
aVReviving Vapors
p2549
aVRewards of Diversity
p2550
aVRecover
p2551
aVReviving Dose
p2552
aVReya Dawnbringer
p2553
aVRenowned Weaver
p2554
aVReprisal
p2555
aVReturned Reveler
p2556
aVRevel of the Fallen God
p2557
aVReviving Melody
p2558
aVReborn Hope
p2559
aVRetaliator Griffin
p2560
aVRecall
p2561
aVReef Pirates
p2562
aVRepentant Blacksmith
p2563
aVRegeneration
p2564
aVRemove Soul
p2565
aVReverse Damage
p2566
aVRealms Befitting My Majesty
p2567
aVReanimate
p2568
aVReassembling Skeleton
p2569
aVRetribution of the Ancients
p2570
aVReaper of the Wilds
p2571
aVRemand
p2572
aVReign of Terror
p2573
aVRestless Dead
p2574
aVReality Ripple
p2575
aVReign of Chaos
p2576
aVReflect Damage
p2577
aVReparations
p2578
aVReckless Embermage
p2579
aVRegeneration
p2580
aVReaper King Avatar
p2581
aVReaper from the Abyss
p2582
aVRebuke
p2583
aVReckless Waif
p2584
aVRed Elemental Blast
p2585
aVRed Ward
p2586
aVRegeneration
p2587
aVRegrowth
p2588
aVResurrection
p2589
aVReverse Damage
p2590
aVRelic Ward
p2591
aVRetribution of the Meek
p2592
aVRelentless Assault
p2593
aVRemedy
p2594
aVResistance Fighter
p2595
aVRemote Isle
p2596
aVReconstruction
p2597
aVRed Elemental Blast
p2598
aVRegrowth
p2599
aVReady // Willing (Ready)
p2600
aVReap Intellect
p2601
aVRender Silent
p2602
aVRenegade Krasis
p2603
aVRenounce the Guilds
p2604
aVRestore the Peace
p2605
aVRebound
p2606
aVReins of Power
p2607
aVRevenant
p2608
aVReset
p2609
aVReverberation
p2610
aVReincarnation
p2611
aVRemove Enchantments
p2612
aVRebirth
p2613
aVRecall
p2614
aVRed Mana Battery
p2615
aVRelic Barrier
p2616
aVRelic Bind
p2617
aVRemove Soul
p2618
aVRevelation
p2619
aVResearch // Development (Development)
p2620
aVResearch // Development (Research)
p2621
aVReassembling Skeleton
p2622
aVReminisce
p2623
aVRebellion of the Flamekin
p2624
aVRepentant Blacksmith
p2625
aVReassembling Skeleton
p2626
aVRedirect
p2627
aVRelentless Rats
p2628
aVReverberate
p2629
aVReveka, Wizard Savant
p2630
aVRenewal
p2631
aVRetribution
p2632
aVReef Pirates
p2633
aVReef Pirates
p2634
aVRed Cliffs Armada
p2635
aVRenegade Troops
p2636
aVReturn to Battle
p2637
aVRelentless Assault
p2638
aVResurrection
p2639
aVRegrowth
p2640
aVReverberate
p2641
aVRenewing Dawn
p2642
aVRedwood Treefolk
p2643
aVRegal Unicorn
p2644
aVReap the Seagraf
p2645
aVRelentless Skaabs
p2646
aVRequiem Angel
p2647
asS'toughs'
p2648
(lp2649
S'N/A'
p2650
aV6
p2651
ag2650
ag2650
ag2650
aV2
p2652
ag2650
ag2650
ag2650
ag2650
ag2650
ag2650
ag2650
ag2650
ag2650
ag2650
ag2652
ag2650
ag2650
ag2650
ag2650
ag2650
ag2650
ag2650
aV3
p2653
ag2650
ag2650
ag2650
ag2650
ag2650
ag2651
ag2650
ag2650
ag2650
ag2650
ag2650
ag2650
ag2650
ag2650
ag2650
ag2650
aV1
p2654
ag2650
ag2650
ag2652
aV4
p2655
ag2650
ag2650
ag2650
ag2650
ag2650
ag2650
ag2650
ag2650
ag2650
ag2650
ag2650
ag2650
ag2650
ag2650
ag2651
ag2650
ag2650
ag2650
ag2652
ag2652
ag2650
ag2650
ag2650
ag2650
ag2654
ag2650
ag2650
ag2650
ag2650
ag2651
ag2650
ag2650
ag2650
ag2650
ag2650
ag2650
ag2650
ag2653
ag2650
ag2652
ag2650
ag2650
ag2650
ag2652
ag2650
ag2650
ag2650
ag2650
ag2650
ag2650
ag2650
ag2650
ag2650
ag2650
ag2650
ag2653
ag2650
ag2650
ag2650
ag2652
ag2650
ag2650
ag2650
ag2650
ag2654
ag2650
ag2650
ag2650
ag2650
ag2650
ag2650
ag2650
ag2650
ag2655
ag2650
ag2650
ag2650
ag2650
ag2654
ag2653
ag2650
ag2650
ag2650
ag2650
ag2650
ag2650
ag2650
ag2650
aV5
p2656
ag2650
ag2652
ag2650
ag2654
ag2650
ag2650
ag2654
ag2655
ag2650
ag2650
ag2654
ag2650
ag2653
aV*
p2657
ag2650
ag2650
ag2650
ag2650
ag2650
ag2650
ag2650
ag2650
ag2650
ag2650
ag2650
ag2654
ag2650
ag2650
ag2650
ag2650
ag2650
ag2650
ag2650
ag2650
ag2650
ag2650
ag2650
ag2650
ag2653
ag2650
ag2657
ag2650
ag2650
ag2650
ag2650
ag2650
ag2650
ag2656
ag2650
ag2650
ag2650
ag2653
ag2650
ag2650
ag2650
ag2650
ag2650
ag2650
ag2650
ag2650
ag2650
ag2650
ag2650
ag2650
ag2650
ag2650
ag2650
ag2652
ag2655
ag2650
ag2650
ag2650
ag2653
ag2650
ag2650
ag2654
ag2650
ag2650
ag2652
ag2653
ag2650
ag2650
ag2650
ag2654
ag2650
ag2650
ag2650
ag2650
ag2650
ag2650
ag2650
ag2651
ag2651
ag2657
ag2650
ag2650
ag2655
ag2650
ag2650
ag2650
ag2650
ag2650
ag2650
ag2653
ag2650
ag2652
ag2652
ag2652
ag2652
ag2650
ag2650
ag2650
ag2650
ag2650
ag2650
ag2650
ag2650
ag2650
ag2650
ag2650
ag2650
ag2650
ag2653
ag2650
ag2650
ag2652
ag2652
ag2650
ag2650
ag2650
ag2650
ag2650
ag2652
ag2650
ag2650
ag2650
ag2650
ag2650
ag2650
ag2650
ag2650
ag2652
ag2650
ag2650
ag2650
ag2650
ag2650
ag2650
ag2650
ag2650
ag2650
ag2650
ag2650
ag2650
ag2650
ag2650
ag2650
ag2650
ag2654
ag2650
ag2653
ag2650
ag2650
ag2650
ag2650
ag2650
ag2650
aV0
p2658
ag2650
ag2655
ag2652
ag2656
ag2652
ag2654
ag2650
ag2655
ag2653
ag2650
ag2650
ag2650
ag2650
ag2650
ag2650
ag2651
ag2650
ag2650
ag2650
ag2650
ag2650
ag2650
ag2650
ag2650
ag2650
ag2650
ag2650
ag2650
ag2650
ag2650
ag2650
ag2650
ag2654
ag2650
ag2650
ag2650
ag2650
ag2650
ag2650
ag2650
ag2650
ag2650
ag2650
ag2654
ag2655
ag2650
ag2655
ag2650
ag2650
ag2650
ag2655
ag2650
ag2655
ag2654
ag2650
ag2650
ag2650
ag2650
ag2650
ag2656
ag2650
ag2656
ag2650
ag2650
ag2653
ag2650
ag2650
ag2650
ag2650
ag2654
ag2650
ag2650
ag2652
ag2650
ag2654
ag2650
ag2650
ag2650
ag2650
ag2650
ag2650
ag2650
ag2650
ag2650
ag2650
ag2652
ag2650
ag2650
ag2650
ag2650
ag2650
ag2650
ag2650
ag2655
ag2650
ag2650
ag2650
ag2650
ag2654
ag2650
ag2650
ag2650
ag2650
ag2650
ag2650
ag2650
ag2650
ag2650
ag2650
ag2650
ag2650
ag2650
ag2654
ag2650
ag2650
ag2654
ag2652
ag2650
ag2655
ag2650
ag2654
ag2650
ag2650
ag2655
ag2655
ag2655
ag2652
ag2650
ag2650
ag2650
ag2650
ag2650
ag2650
ag2651
ag2653
ag2650
ag2654
ag2654
asS'artists'
p2659
(lp2660
VColin MacNeil
p2661
aVBrom
p2662
aVSteven Belledin
p2663
aVAaron Boyd
p2664
aVWayne Reynolds
p2665
ag1763
ag1763
ag1763
ag1763
aVRichard Thomas
p2666
aVDan Frazier
p2667
aVQuinton Hoover
p2668
aVDameon Willich
p2669
aVDan Frazier
p2670
aVDameon Willich
p2671
aVDan Frazier
p2672
aVEdward P. Beard, Jr.
p2673
aVIttoku
p2674
aVRobert Bliss
p2675
aVCiruelo
p2676
aVScott M. Fischer
p2677
aVEric Fortune
p2678
aVRon Spencer
p2679
aVJim Pavelec
p2680
aVJim Murray
p2681
aVSteven Belledin
p2682
aVGreg Hildebrandt
p2683
aVScott Hampton
p2684
aVIzzy
p2685
aVDermot Power
p2686
aVJohann Bodin
p2687
aVjD
p2688
aVJames Ryman
p2689
aVMatt Stewart
p2690
aVMark Tedin
p2691
aVChristopher Rush
p2692
aVMark Tedin
p2693
aVRichard Thomas
p2694
aVDan Frazier
p2695
aVQuinton Hoover
p2696
aVDameon Willich
p2697
aVRon Spears
p2698
aVStephen Tappin
p2699
aVJames Wong
p2700
aVLuca Zontini
p2701
aVGreg Staples
p2702
aVDan Scott
p2703
aVAlan Pollack
p2704
aVTodd Lockwood
p2705
aVAnson Maddocks
p2706
aVJustin Hampton
p2707
aVDiana Vick
p2708
aVDiana Vick
p2709
aVRandy Asplund-Faith
p2710
aVRandy Asplund-Faith
p2711
aVPat Lee
p2712
aVCiruelo
p2713
aVAllen Williams
p2714
aVAllen Williams
p2715
aVCynthia Sheppard
p2716
aVMike Sass
p2717
aVPhill Simmer
p2718
aVAdam Paquette
p2719
aVRebecca Guay
p2720
aVThomas M. Baxa
p2721
aVEric Velhagen
p2722
aVRandy Gallegos
p2723
aVRon Chironna
p2724
aVPhil Foglio
p2725
aVRebecca Guay
p2726
aVRon Spencer
p2727
aVRon Spencer
p2728
aVAdam Rex
p2729
aVRobert Bliss
p2730
aVPete Venters
p2731
aVMatthew D. Wilson
p2732
aVJeremy Jarvis
p2733
aVGreg Hildebrandt
p2734
aVRalph Horsley
p2735
aVAdam Rex
p2736
aVPete Venters
p2737
aVD. Alexander Gregory
p2738
aVNelson DeCastro
p2739
aVThomas M. Baxa
p2740
aVCarl Critchlow
p2741
aVDonato Giancola
p2742
aVRob Alexander
p2743
aVRebecca Guay
p2744
aVMatthew Wilson
p2745
aVMike Sass
p2746
aVRobert Bliss
p2747
aVScott M. Fischer
p2748
aVJeff Laubenstein
p2749
aVDan Scott
p2750
aVEvan Shipard
p2751
aVDave Dorman
p2752
aVTerese Nielsen
p2753
aVAdam Rex
p2754
aVPete Venters
p2755
ag1763
ag1763
ag1763
ag1763
aVMark Poole
p2756
ag1763
aVScott M. Fischer
p2757
aVEdward P. Beard, Jr.
p2758
aVBrian Snoddy
p2759
aVNicola Leonard
p2760
aVSusan Van Camp
p2761
aVHong Yan
p2762
aVAnson Maddocks
p2763
aVDameon Willich
p2764
aVDan Frazier
p2765
aVJustin Hampton
p2766
aVRichard Thomas
p2767
aVDan Frazier
p2768
aVQuinton Hoover
p2769
aVDameon Willich
p2770
aVZhang Jiazhen
p2771
aVDiane Vick
p2772
aVRandy Asplund
p2773
aVMark Tedin
p2774
aVDan Scott
p2775
aVGlenn Fabry
p2776
aVNick Percival
p2777
aVAndrew Robinson
p2778
aVDonato Giancola
p2779
aVAdam Rex
p2780
aVGreg & Tim Hildebrandt
p2781
aVRalph Horsley
p2782
aVAdam Rex
p2783
aVThomas Gianni
p2784
aVDermot Power
p2785
aVBrandon Kitkouski
p2786
aVTodd Lockwood
p2787
aVJeff Easley
p2788
aVZoltan Boros & Gabor Szikszai
p2789
aVWarren Mahy
p2790
aVJesper Ejsing
p2791
aVTomasz Jedruszek
p2792
aVJohannes Voss
p2793
aVChristopher Moeller
p2794
aVVolkan Baga
p2795
ag1763
aVAustin Hsu
p2796
aVDave Dorman
p2797
aVNick Percival
p2798
aVRon Spencer
p2799
aVDave Dorman
p2800
aVAlan Pollack
p2801
aVBradley Williams
p2802
aVStephen Tappin
p2803
aVPat Lee
p2804
aVStephen Tappin
p2805
aVJeremy Jarvis
p2806
aVAnthony S. Waters
p2807
aVAlex Horley-Orlandelli
p2808
aVTim Hildebrandt
p2809
aVDaren Bader
p2810
aVThomas M. Baxa
p2811
aVJim Nelson
p2812
aVGreg Staples
p2813
aVRon Spears
p2814
aVMichael Sutfin
p2815
aVJean-Sbastien Rossbach
p2816
aVMark A. Nelson
p2817
aVChristopher Rush
p2818
aVPete Venters
p2819
aVKarl Kopinski
p2820
aVSteve Prescott
p2821
aVJohn Avon
p2822
aVTerese Nielsen
p2823
aVClyde Caldwell
p2824
aVDave Dorman
p2825
aVMark Tedin
p2826
aVScott M. Fischer
p2827
aVKeith Garletts
p2828
aVWayne Reynolds
p2829
aVDan Scott
p2830
aVMark Poole
p2831
aVTerese Nielsen
p2832
aVSlawomir Maniak
p2833
aVHeather Hudson
p2834
aVVal Mayerik
p2835
aVJeff Laubenstein
p2836
aVPaolo Parente
p2837
aVRebecca Guay
p2838
aVAndrew Robinson
p2839
aVDaren Bader
p2840
aVRichard Thomas
p2841
aVDan Frazier
p2842
aVQuinton Hoover
p2843
aVDameon Willich
p2844
aVDan Frazier
p2845
aVDameon Willich
p2846
aVJames Ernest
p2847
aVSandra Everingham
p2848
aVDameon Willich
p2849
aVJustin Hampton
p2850
aVJohn Matson
p2851
aVGreg Staples
p2852
aVGary Ruddell
p2853
aVSteve Prescott
p2854
aVSteven Belledin
p2855
aVThomas Gianni
p2856
aVZina Saunders
p2857
aVZina Saunders
p2858
aVQuinton Hoover
p2859
aVRandy Asplund
p2860
aVCecil Fernando
p2861
aVZina Saunders
p2862
aVBrian Snoddy
p2863
aVTom Kyffin
p2864
aVSteve Luke
p2865
aVGeofrey Darrow
p2866
aVMike Dringenberg
p2867
aVEric Peterson
p2868
aVBrom
p2869
aVRandy Gallegos
p2870
aVJean-Sbastien Rossbach
p2871
aVSteve Prescott
p2872
aVMark Zug
p2873
aVJon Foster
p2874
aVIzzy
p2875
aVThomas M. Baxa
p2876
aVHideaki Takamura
p2877
aVD. J. Cleland-Hura
p2878
aVAndrew Goldhawk
p2879
aVJohn Howe
p2880
aVDonato Giancola
p2881
aVBob Petillo
p2882
aVGreg & Tim Hildebrandt
p2883
aVAdam Rex
p2884
aVGreg & Tim Hildebrandt
p2885
aVAdam Rex
p2886
aVCiruelo
p2887
aVEric Peterson
p2888
aVGreg & Tim Hildebrandt
p2889
aVMatt Cavotta
p2890
aVScott M. Fischer
p2891
aVChristopher Moeller
p2892
aVSvetlin Velinov
p2893
aVAnthony Palumbo
p2894
aVDaren Bader
p2895
aVMichael Komarck
p2896
aVL. A. Williams
p2897
aVUna Fricker
p2898
aVRob Alexander
p2899
aVJon Foster
p2900
aVMatt Cavotta
p2901
aVIttoku
p2902
aVJason Felix
p2903
aVVolkan Baga
p2904
aVZoltan Boros & Gabor Szikszai
p2905
aVIzzy
p2906
aVRyan Pancoast
p2907
aVJames Ryman
p2908
aVVance Kovacs
p2909
aVScott Chou
p2910
aVTerese Nielsen
p2911
aVFranz Vohwinkel
p2912
aVFranz Vohwinkel
p2913
aVFred Fields
p2914
aVZoltan Boros & Gabor Szikszai
p2915
aVTrevor Hairsine
p2916
aVJim Murray
p2917
ag1763
ag1763
aVZina Saunders
p2918
aVG. Darrow and I. Rabarot
p2919
aVMike Dringenberg
p2920
aVRebecca Guay
p2921
aVNottsuo
p2922
aVVance Kovacs
p2923
aVGreg Hildebrandt
p2924
aVThomas M. Baxa
p2925
aVMatt Cavotta
p2926
aVRon Spencer
p2927
aVTim Hildebrandt
p2928
aVDan Scott
p2929
aVDiTerlizzi
p2930
aVRandy Gallegos
p2931
aVRebecca Guay
p2932
aVTom Wnerstrand
p2933
aVScott M. Fischer
p2934
aVGreg Hildebrandt
p2935
aVJean-Sbastien Rossbach
p2936
ag1763
aVTom Fleming
p2937
aVVal Mayerik
p2938
aVAdam Rex
p2939
aVGreg Simanson
p2940
aVRobh Ruppel
p2941
aVGreg Simanson
p2942
aVVincent Evans
p2943
aVD. Alexander Gregory
p2944
aVSteve White
p2945
aVCiruelo
p2946
aVMark Tedin
p2947
aVDermot Power
p2948
aVLars Grant-West
p2949
aVKarl Kopinski
p2950
aVRaymond Swanland
p2951
aVLucas Graciano
p2952
aVSeb McKinnon
p2953
aVWesley Burt
p2954
aVDavid A. Cherry
p2955
aVPhil Foglio
p2956
aVZina Saunders
p2957
aVMike Sass
p2958
aVSteve Prescott
p2959
aVKarl Kopinski
p2960
aVFred Fields
p2961
aVEvan Shipard
p2962
aVGreg Hildebrandt
p2963
aVSteven Belledin
p2964
aVRebecca Guay
p2965
aVMatthew D. Wilson
p2966
aVD. Alexander Gregory
p2967
aVDermot Power
p2968
aVGreg & Tim Hildebrandt
p2969
aVMatthew D. Wilson
p2970
aVSteve White
p2971
aVAdam Rex
p2972
aVAdam Rex
p2973
aVDon Hazeltine
p2974
aVAlan Pollack
p2975
aVDon Hazeltine
p2976
aVZoltan Boros & Gabor Szikszai
p2977
aVJames Paick
p2978
ag1763
aVKaja Foglio
p2979
aVBrian Snoddy
p2980
aVBrian Snoddy
p2981
aVDrew Tucker
p2982
aVDave Dorman
p2983
aVAaron Boyd
p2984
aVChippy
p2985
aVDaren Bader
p2986
aVAlan Pollack
p2987
aVJeff Easley
p2988
aVPete Venters
p2989
aVDarrell Riche
p2990
aVNelson DeCastro
p2991
aVD. Alexander Gregory
p2992
aVMatthew D. Wilson
p2993
aVYohann Schepacz
p2994
aVRaymond Swanland
p2995
aVAllen Williams
p2996
aVAdam Paquette
p2997
aVCynthia Sheppard
p2998
aVWarren Mahy
p2999
aVJesper Ejsing
p3000
aVRichard Kane Ferguson
p3001
aVTom Wnerstrand
p3002
aVDrew Tucker
p3003
aVQuinton Hoover
p3004
aVMike Dringenberg
p3005
aVThomas Gianni
p3006
aVVronique Meignaud
p3007
aVRobert Bliss
p3008
aVAustin Hsu
p3009
aVSvetlin Velinov
p3010
aVKarl Kopinski
p3011
aVZoltan Boros
p3012
aVGary Leach
p3013
aVIan Miller
p3014
aVAlan Rabinowitz
p3015
aVKathryn Rathke
p3016
aVRon Spencer
p3017
aVDouglas Shuler
p3018
aVTom Kyffin
p3019
aVCharles Gillespie
p3020
aVUDON
p3021
aVMatt Stewart
p3022
aVIgor Kieryluk
p3023
aVMichael C. Hayes
p3024
aVRichard Thomas
p3025
aVDan Frazier
p3026
aVQuinton Hoover
p3027
aVDameon Willich
p3028
aVDan Frazier
p3029
aVDameon Willich
p3030
aVJohn Coulthart
p3031
aVNathalie Hertz
p3032
aVG. Darrow and I. Rabarot
p3033
aVZina Saunders
p3034
aVCecil Fernando
p3035
aVCiruelo
p3036
aVAnson Maddocks
p3037
aVRichard Thomas
p3038
aVDameon Willich
p3039
aVZoltan Boros
p3040
aVSteven Belledin
p3041
aVMatt Stewart
p3042
aVHoward Lyon
p3043
aVDaarken
p3044
aVKev Walker
p3045
aVDoug Chaffee
p3046
aVColin MacNeil
p3047
aVTerese Nielsen
p3048
aVNicola Leonard
p3049
aVJustin Hampton
p3050
aVEdward Beard, Jr.
p3051
aVBrian Snoddy
p3052
aVMark Tedin
p3053
aVBrian Snoddy
p3054
aVMark Tedin
p3055
aVHarold McNeill
p3056
aVChristopher Rush
p3057
aVBrian Snoddy
p3058
aVKaja Foglio
p3059
aVGreg Staples
p3060
aVGreg Staples
p3061
aVAustin Hsu
p3062
aVRalph Horsley
p3063
aVDan Dos Santos
p3064
aVDrew Tucker
p3065
aVAustin Hsu
p3066
aVIzzy
p3067
aVThomas M. Baxa
p3068
aVjD
p3069
aVSusan Van Camp
p3070
aVKaja Foglio
p3071
aVMark Tedin
p3072
aVTom Wnerstrand
p3073
aVTom Wnerstrand
p3074
aVZhang Jiazhen
p3075
aVLiu Jianjian
p3076
aVDing Songjian
p3077
aVHe Jiancheng
p3078
aVDan Frazier
p3079
aVDan Scott
p3080
ag1763
aVJohn Avon
p3081
aVSteve Luke
p3082
aVZina Saunders
p3083
aVEric Deschamps
p3084
aVChristopher Moeller
p3085
aVDavid Palumbo
p3086
asS'powers'
p3087
(lp3088
g2650
ag2654
ag2650
ag2650
ag2650
ag2651
ag2650
ag2650
ag2650
ag2650
ag2650
ag2650
ag2650
ag2650
ag2650
ag2650
ag2654
ag2650
ag2650
ag2650
ag2650
ag2650
ag2650
ag2650
ag2655
ag2650
ag2650
ag2650
ag2650
ag2650
ag2653
ag2650
ag2650
ag2650
ag2650
ag2650
ag2650
ag2650
ag2650
ag2650
ag2650
ag2654
ag2650
ag2650
ag2652
ag2655
ag2650
ag2650
ag2650
ag2650
ag2650
ag2650
ag2650
ag2650
ag2650
ag2650
ag2650
ag2650
ag2650
ag2650
ag2652
ag2650
ag2650
ag2650
ag2654
ag2654
ag2650
ag2650
ag2650
ag2650
ag2652
ag2650
ag2650
ag2650
ag2650
ag2655
ag2650
ag2650
ag2650
ag2650
ag2650
ag2650
ag2650
ag2656
ag2650
ag2654
ag2650
ag2650
ag2650
ag2653
ag2650
ag2650
ag2650
ag2650
ag2650
ag2650
ag2650
ag2650
ag2650
ag2650
ag2650
ag2654
ag2650
ag2650
ag2650
ag2652
ag2650
ag2650
ag2650
ag2650
ag2655
ag2650
ag2650
ag2650
ag2650
ag2650
ag2650
ag2650
ag2650
ag2656
ag2650
ag2650
ag2650
ag2650
ag2654
ag2655
ag2650
ag2650
ag2650
ag2650
ag2650
ag2650
ag2650
ag2650
ag2656
ag2650
ag2652
ag2650
ag2654
ag2650
ag2650
ag2653
ag2651
ag2650
ag2650
ag2654
ag2650
ag2655
ag2657
ag2650
ag2650
ag2650
ag2650
ag2650
ag2650
ag2650
ag2650
ag2650
ag2650
ag2650
ag2654
ag2650
ag2650
ag2650
ag2650
ag2650
ag2650
ag2650
ag2650
ag2650
ag2650
ag2650
ag2650
ag2652
ag2650
ag2657
ag2650
ag2650
ag2650
ag2650
ag2650
ag2650
ag2653
ag2650
ag2650
ag2650
ag2653
ag2650
ag2650
ag2650
ag2650
ag2650
ag2650
ag2650
ag2650
ag2650
ag2650
ag2650
ag2650
ag2650
ag2650
ag2650
ag2652
ag2651
ag2650
ag2650
ag2650
ag2652
ag2650
ag2650
ag2654
ag2650
ag2650
ag2658
ag2652
ag2650
ag2650
ag2650
ag2653
ag2650
ag2650
ag2650
ag2650
ag2650
ag2650
ag2650
ag2655
ag2653
ag2657
ag2650
ag2650
ag2655
ag2650
ag2650
ag2650
ag2650
ag2650
ag2650
ag2653
ag2650
ag2654
ag2652
aV7
p3089
ag2652
ag2650
ag2650
ag2650
ag2650
ag2650
ag2650
ag2650
ag2650
ag2650
ag2650
ag2650
ag2650
ag2650
ag2656
ag2650
ag2650
ag2652
ag2652
ag2650
ag2650
ag2650
ag2650
ag2650
ag2655
ag2650
ag2650
ag2650
ag2650
ag2650
ag2650
ag2650
ag2650
ag2652
ag2650
ag2650
ag2650
ag2650
ag2650
ag2650
ag2650
ag2650
ag2650
ag2650
ag2650
ag2650
ag2650
ag2650
ag2650
ag2650
ag2654
ag2650
ag2653
ag2650
ag2650
ag2650
ag2650
ag2650
ag2650
ag2652
ag2650
ag2656
ag2655
ag2653
ag2652
ag2654
ag2650
ag2654
ag2653
ag2650
ag2650
ag2650
ag2650
ag2650
ag2650
ag2653
ag2650
ag2650
ag2650
ag2650
ag2650
ag2650
ag2650
ag2650
ag2650
ag2650
ag2650
ag2650
ag2650
ag2650
ag2650
ag2650
ag2654
ag2650
ag2650
ag2650
ag2650
ag2650
ag2650
ag2650
ag2650
ag2650
ag2650
ag2652
ag2655
ag2650
ag2654
ag2650
ag2650
ag2650
ag2655
ag2650
ag2654
ag2654
ag2650
ag2650
ag2650
ag2650
ag2650
ag2652
ag2650
ag2654
ag2650
ag2650
ag2653
ag2650
ag2650
ag2650
ag2650
ag2652
ag2650
ag2650
ag2652
ag2650
ag2653
ag2650
ag2650
ag2650
ag2650
ag2650
ag2650
ag2650
ag2650
ag2650
ag2650
ag2652
ag2650
ag2650
ag2650
ag2650
ag2650
ag2650
ag2650
ag2653
ag2650
ag2650
ag2650
ag2650
ag2654
ag2650
ag2650
ag2650
ag2650
ag2650
ag2650
ag2650
ag2650
ag2650
ag2650
ag2650
ag2650
ag2650
ag2654
ag2650
ag2650
ag2654
ag2651
ag2650
ag2652
ag2650
ag2654
ag2650
ag2650
ag2654
ag2654
ag2656
ag2655
ag2650
ag2650
ag2650
ag2650
ag2650
ag2650
ag2653
ag2652
ag2650
ag2652
ag2654
asS'types'
p3090
(lp3091
VInstant
p3092
aVCreature - Demon
p3093
aVInstant
p3094
aVInstant
p3095
aVInstant
p3096
aVCreature - Skeleton Warrior
p3097
aVInstant
p3098
aVInstant
p3099
aVInstant
p3100
aVInstant
p3101
aVEnchantment - Aura
p3102
aVEnchantment - Aura
p3103
aVSorcery
p3104
aVSorcery
p3105
aVInstant
p3106
aVInstant - Arcane
p3107
aVLegendary Creature - Human Shaman
p3108
aVEnchantment
p3109
aVSorcery
p3110
aVLand
p3111
aVInstant
p3112
aVSorcery
p3113
aVInstant
p3114
aVEnchantment - Aura
p3115
aVCreature - Elemental
p3116
aVSorcery
p3117
aVSorcery
p3118
aVTribal Instant - Treefolk
p3119
aVInstant
p3120
aVInstant
p3121
aVCreature - Ogre Warrior
p3122
aVInstant
p3123
aVSorcery
p3124
aVLand
p3125
aVArtifact
p3126
aVEnchantment - Aura
p3127
aVSorcery
p3128
aVInstant
p3129
aVEnchantment - Aura
p3130
aVEnchantment - Aura
p3131
aVInstant
p3132
aVCreature - Spirit Soldier
p3133
aVInstant
p3134
aVEnchantment - Aura
p3135
aVCreature - Sliver
p3136
aVCreature - Wurm
p3137
aVSorcery
p3138
aVInstant
p3139
aVEnchantment - Aura
p3140
aVSorcery
p3141
aVInstant
p3142
aVInstant
p3143
aVInstant
p3144
aVInstant
p3145
aVInstant
p3146
aVInstant
p3147
aVInstant
p3148
aVEnchantment - Aura
p3149
aVSorcery
p3150
aVInstant
p3151
aVCreature - Satyr
p3152
aVInstant
p3153
aVSorcery
p3154
aVInstant
p3155
aVCreature - Rat
p3156
aVCreature - Elemental Cat
p3157
aVInstant
p3158
aVInstant
p3159
aVEnchantment
p3160
aVInstant
p3161
aVCreature - Human Warrior
p3162
aVSorcery
p3163
aVLand
p3164
aVSorcery
p3165
aVInstant
p3166
aVLegendary Creature - Angel
p3167
aVEnchantment - Aura
p3168
aVSorcery
p3169
aVSorcery
p3170
aVInstant
p3171
aVSorcery
p3172
aVInstant
p3173
aVSorcery
p3174
aVCreature - Rat
p3175
aVInstant
p3176
aVCreature - Human Cleric
p3177
aVLand
p3178
aVInstant
p3179
aVSorcery
p3180
aVCreature - Elf Scout
p3181
aVSorcery
p3182
aVSorcery
p3183
aVEnchantment
p3184
aVSorcery
p3185
aVSorcery
p3186
aVInstant
p3187
aVInstant
p3188
aVInstant
p3189
aVInstant
p3190
aVInstant - Arcane
p3191
aVTribal Instant - Treefolk
p3192
aVCreature - Elemental
p3193
aVArtifact
p3194
aVArtifact
p3195
aVSorcery
p3196
aVCreature - Merfolk Shaman
p3197
aVSorcery
p3198
aVInstant
p3199
aVInstant
p3200
aVInstant
p3201
aVLegendary Creature - Dwarf Wizard
p3202
aVSorcery
p3203
aVSorcery
p3204
aVSorcery
p3205
aVInstant
p3206
aVInstant
p3207
aVEnchantment - Aura
p3208
aVEnchantment - Aura
p3209
aVInstant
p3210
aVCreature - Human Soldier
p3211
aVInstant
p3212
aVInstant
p3213
aVSorcery
p3214
aVInstant
p3215
aVCreature - Skeleton
p3216
aVCreature - Spirit
p3217
aVInstant
p3218
aVEnchantment - Aura
p3219
aVEnchantment - Aura
p3220
aVSorcery
p3221
aVSorcery
p3222
aVInstant
p3223
aVInstant
p3224
aVInstant
p3225
aVCreature - Elemental
p3226
aVEnchantment - Aura
p3227
aVCreature - Spirit
p3228
aVSorcery
p3229
aVCreature - Troll
p3230
aVLand
p3231
aVSorcery
p3232
aVCreature - Demon
p3233
aVCreature - Angel
p3234
aVSorcery
p3235
aVPhenomenon
p3236
aVCreature - Skeleton Warrior
p3237
aVSorcery
p3238
aVCreature - Spirit
p3239
aVCreature - Goblin Avatar
p3240
aVInstant
p3241
aVInstant
p3242
aVSorcery
p3243
aVInstant
p3244
aVInstant
p3245
aVInstant - Arcane
p3246
aVSorcery
p3247
aVInstant - Arcane
p3248
aVInstant - Arcane
p3249
aVArtifact
p3250
aVSorcery
p3251
aVCreature - Human Monk Cleric
p3252
aVSorcery
p3253
aVInstant
p3254
aVSorcery
p3255
aVEnchantment
p3256
aVArtifact
p3257
aVInstant
p3258
aVInstant
p3259
aVSorcery
p3260
aVInstant
p3261
aVInstant
p3262
aVSorcery
p3263
aVInstant
p3264
aVCreature - Human Nomad
p3265
aVSorcery
p3266
aVCreature - Vampire
p3267
aVSorcery
p3268
aVInstant
p3269
aVInstant
p3270
aVInstant
p3271
aVSorcery
p3272
aVEnchantment
p3273
aVCreature - Vedalken Wizard
p3274
aVInstant
p3275
aVEnchantment
p3276
aVEnchantment
p3277
aVCreature - Ogre
p3278
aVInstant
p3279
aVInstant
p3280
aVInstant
p3281
aVInstant
p3282
aVEnchantment - Aura
p3283
aVEnchantment - Aura
p3284
aVSorcery
p3285
aVSorcery
p3286
aVInstant
p3287
aVEnchantment
p3288
aVEnchantment - Aura
p3289
aVEnchantment
p3290
aVEnchantment - Aura
p3291
aVSorcery
p3292
aVSorcery
p3293
aVCreature - Human Soldier
p3294
aVCreature - Human Wizard
p3295
aVInstant
p3296
aVInstant
p3297
aVInstant
p3298
aVCreature - Unicorn
p3299
aVEnchantment - Aura
p3300
aVInstant
p3301
aVCreature - Human Soldier
p3302
aVSorcery
p3303
aVSorcery
p3304
aVCreature - Human Wizard
p3305
aVCreature - Treefolk
p3306
aVSorcery
p3307
aVInstant
p3308
aVEnchantment - Aura
p3309
aVCreature - Demon
p3310
aVInstant
p3311
aVArtifact
p3312
aVInstant
p3313
aVInstant
p3314
aVInstant
p3315
aVInstant
p3316
aVSorcery
p3317
aVCreature - Beast
p3318
aVCreature - Treefolk
p3319
aVCreature - Spirit
p3320
aVSorcery
p3321
aVEnchantment - Aura
p3322
aVCreature - Human Wizard
p3323
aVInstant
p3324
aVEnchantment - Aura
p3325
aVSorcery
p3326
aVInstant
p3327
aVInstant
p3328
aVInstant
p3329
aVCreature - Human Rebel
p3330
aVInstant
p3331
aVCreature - Human Mercenary Rebel
p3332
aVCreature - Elf Shaman
p3333
aVCreature - Human Wizard
p3334
aVCreature - Angel
p3335
aVSorcery
p3336
aVSorcery
p3337
aVInstant
p3338
aVInstant
p3339
aVSorcery
p3340
aVSorcery
p3341
aVInstant
p3342
aVSorcery
p3343
aVInstant
p3344
aVInstant
p3345
aVSorcery
p3346
aVInstant
p3347
aVArtifact Creature - Wall
p3348
aVCreature - Shapeshifter
p3349
aVSorcery
p3350
aVInstant
p3351
aVCreature - Spirit
p3352
aVCreature - Kithkin Cleric
p3353
aVArtifact
p3354
aVLand
p3355
aVInstant
p3356
aVInstant
p3357
aVLegendary Artifact Creature - Scarecrow
p3358
aVCreature - Horror
p3359
aVSorcery
p3360
aVSorcery
p3361
aVSorcery
p3362
aVInstant
p3363
aVSorcery
p3364
aVArtifact
p3365
aVInstant
p3366
aVSorcery
p3367
aVCreature - Rat
p3368
aVInstant
p3369
aVInstant
p3370
aVInstant
p3371
aVSorcery
p3372
aVInstant
p3373
aVSorcery
p3374
aVSorcery
p3375
aVSorcery
p3376
aVSorcery
p3377
aVSorcery
p3378
aVArtifact
p3379
aVSorcery
p3380
aVEnchantment
p3381
aVEnchantment
p3382
aVInstant
p3383
aVSorcery
p3384
aVCreature - Viashino Shaman
p3385
aVEnchantment
p3386
aVCreature - Zombie Minion
p3387
aVInstant
p3388
aVEnchantment - Aura
p3389
aVLand
p3390
aVSorcery
p3391
aVInstant
p3392
aVSorcery
p3393
aVCreature - Gorgon
p3394
aVInstant
p3395
aVCreature - Zombie Centaur
p3396
aVCreature - Zombie Soldier
p3397
aVCreature - Human Archer
p3398
aVCreature - Unicorn
p3399
aVCreature - Treefolk
p3400
aVSorcery
p3401
aVCreature - Elf Scout
p3402
aVCreature - Human Wizard
p3403
aVInstant
p3404
aVLand
p3405
aVSorcery
p3406
aVArtifact
p3407
aVInstant
p3408
aVInstant
p3409
aVLegendary Creature - Angel
p3410
aVInstant
p3411
aVInstant
p3412
aVSorcery
p3413
aVSorcery
p3414
aVEnchantment - Aura
p3415
aVEnchantment - Aura
p3416
aVInstant
p3417
aVInstant
p3418
aVArtifact
p3419
aVSorcery
p3420
aVInstant - Trap
p3421
aVInstant
p3422
aVSorcery
p3423
aVWorld Enchantment
p3424
aVSorcery
p3425
aVInstant
p3426
aVCreature - Human
p3427
aVInstant
p3428
aVInstant
p3429
aVInstant
p3430
aVSorcery
p3431
aVInstant
p3432
aVEnchantment
p3433
aVInstant
p3434
aVEnchantment
p3435
aVSorcery
p3436
aVInstant
p3437
aVLegendary Creature - Angel
p3438
aVCreature - Human Shaman
p3439
aVInstant
p3440
aVCreature - Zombie Satyr
p3441
aVSorcery
p3442
aVSorcery
p3443
aVSorcery
p3444
aVCreature - Griffin
p3445
aVSorcery
p3446
aVCreature - Zombie Pirate
p3447
aVCreature - Human
p3448
aVEnchantment - Aura
p3449
aVInstant
p3450
aVInstant
p3451
aVScheme
p3452
aVSorcery
p3453
aVCreature - Skeleton Warrior
p3454
aVEnchantment
p3455
aVCreature - Gorgon
p3456
aVInstant
p3457
aVSorcery
p3458
aVCreature - Skeleton
p3459
aVInstant
p3460
aVSorcery
p3461
aVInstant
p3462
aVEnchantment
p3463
aVCreature - Human Wizard
p3464
aVEnchantment - Aura
p3465
aVVanguard
p3466
aVCreature - Demon
p3467
aVInstant
p3468
aVCreature - Human Rogue Werewolf
p3469
aVInstant
p3470
aVEnchantment - Aura
p3471
aVEnchantment - Aura
p3472
aVSorcery
p3473
aVSorcery
p3474
aVInstant
p3475
aVEnchantment - Aura
p3476
aVSorcery
p3477
aVSorcery
p3478
aVInstant
p3479
aVCreature - Human Soldier
p3480
aVLand
p3481
aVSorcery
p3482
aVInstant
p3483
aVSorcery
p3484
aVInstant
p3485
aVSorcery
p3486
aVInstant
p3487
aVCreature - Beast Mutant
p3488
aVInstant
p3489
aVInstant
p3490
aVInstant
p3491
aVInstant
p3492
aVCreature - Spirit
p3493
aVInstant
p3494
aVInstant
p3495
aVInstant
p3496
aVInstant
p3497
aVSorcery
p3498
aVSorcery
p3499
aVArtifact
p3500
aVArtifact
p3501
aVEnchantment - Aura
p3502
aVInstant
p3503
aVWorld Enchantment
p3504
aVInstant
p3505
aVInstant
p3506
aVCreature - Skeleton Warrior
p3507
aVSorcery
p3508
aVTribal Enchantment - Elemental
p3509
aVCreature - Human
p3510
aVCreature - Skeleton Warrior
p3511
aVInstant
p3512
aVCreature - Rat
p3513
aVInstant
p3514
aVLegendary Creature - Dwarf Wizard
p3515
aVSorcery
p3516
aVSorcery
p3517
aVCreature - Zombie Pirate
p3518
aVCreature - Zombie Pirate
p3519
aVCreature - Human Soldier
p3520
aVCreature - Human Soldier
p3521
aVSorcery
p3522
aVSorcery
p3523
aVSorcery
p3524
aVSorcery
p3525
aVInstant
p3526
aVSorcery
p3527
aVCreature - Treefolk
p3528
aVCreature - Unicorn
p3529
aVSorcery
p3530
aVCreature - Zombie
p3531
aVCreature - Angel
p3532
asS'numbers'
p3533
(lp3534
V57
p3535
aV95
p3536
aV168
p3537
aV58
p3538
aV28
p3539
aV104
p3540
aV191
p3541
aV74
p3542
aV152
p3543
aV211
p3544
aV212
p3545
aV213
p3546
aV214
p3547
aV215
p3548
aV216
p3549
aV143
p3550
aV142
p3551
aV26
p3552
aV29
p3553
aV115
p3554
aV21
p3555
aV46
p3556
aV98
p3557
aV134
p3558
aV22
p3559
aV76
p3560
aV133
p3561
aV132
p3562
aV64
p3563
aV65
p3564
aV144
p3565
aV145
p3566
aV187
p3567
aV227
p3568
aV35
p3569
aV75
p3570
aV88
p3571
aV308
p3572
aV309
p3573
aV310
p3574
aV311
p3575
aV29
p3576
aV12
p3577
aV45
p3578
aV138
p3579
aV120
p3580
aV13
p3581
aV61
p3582
aV26
p3583
aV71
p3584
aV72
p3585
aV100
p3586
aV174
p3587
aV175
p3588
aV176
p3589
aV24
p3590
aV27
p3591
aV77
p3592
aV18
p3593
aV154
p3594
aV106
p3595
aV49
p3596
aV25
p3597
aV202
p3598
aV108
p3599
aV150
p3600
aV127
p3601
aV128
p3602
aV129
p3603
aV130
p3604
aV164
p3605
aV193
p3606
aV218
p3607
aV311
p3608
aV312
p3609
aV35
p3610
aV290
p3611
aV225
p3612
aV99
p3613
aV100
p3614
aV289
p3615
aV34
p3616
aV172
p3617
aV173
p3618
aV42
p3619
aV43
p3620
aV323
p3621
aV44
p3622
aV262
p3623
aV226
p3624
aV136
p3625
aV181
p3626
aV137
p3627
aV227
p3628
aV138
p3629
aV42
p3630
aV89
p3631
aV90
p3632
aV259
p3633
ag1763
ag1763
ag1763
ag1763
ag3089
aV74
p3634
aV29
p3635
aV46
p3636
aV130
p3637
aV47
p3638
aV48
p3639
aV49
p3640
aV30
p3641
aV37
p3642
aV47
p3643
aV48
p3644
aV227
p3645
aV228
p3646
aV229
p3647
aV230
p3648
aV62
p3649
aV28
p3650
aV29
p3651
aV148
p3652
aV32
p3653
aV58
p3654
aV59
p3655
aV264
p3656
aV211
p3657
aV265
p3658
aV212
p3659
aV92
p3660
aV93
p3661
aV35
p3662
aV94
p3663
aV74
p3664
aV13
p3665
aV94
p3666
aV61
p3667
aV127
p3668
aV143
p3669
aV151
p3670
aV118
p3671
aV32
p3672
aV191
p3673
aV30
p3674
aV44
p3675
aV63
p3676
aV16
p3677
aV222
p3678
aV50
p3679
aV104
p3680
aV105
p3681
aV141
p3682
aV40
p3683
aV140
p3684
aV41
p3685
aV81
p3686
aV82
p3687
aV267
p3688
aV49
p3689
aV14
p3690
aV15
p3691
aV44
p3692
aV94
p3693
aV95
p3694
aV21
p3695
aV63
p3696
aV139
p3697
aV178
p3698
aV91
p3699
aV166
p3700
aV167
p3701
aV98
p3702
aV43
p3703
aV216
p3704
aV157
p3705
aV215
p3706
aV264
p3707
aV39
p3708
aV175
p3709
aV38
p3710
aV18
p3711
aV45
p3712
aV16
p3713
aV17
p3714
aV72
p3715
aV98
p3716
aV121
p3717
aV120
p3718
aV117
p3719
aV12
p3720
aV17
p3721
aV215
p3722
aV216
p3723
aV217
p3724
aV218
p3725
aV95
p3726
aV204
p3727
aV225
p3728
aV344
p3729
aV79
p3730
aV46
p3731
aV14
p3732
aV60
p3733
aV179
p3734
aV39
p3735
aV36
p3736
aV35
p3737
aV248
p3738
aV37
p3739
aV38
p3740
aV93
p3741
aV92
p3742
aV201
p3743
aV247
p3744
aV202
p3745
aV94
p3746
aV76
p3747
aV75
p3748
aV48
p3749
aV218
p3750
aV144
p3751
aV22
p3752
aV110
p3753
aV54
p3754
aV83
p3755
aV187
p3756
aV264
p3757
aV160
p3758
aV159
p3759
aV213
p3760
aV212
p3761
aV263
p3762
aV265
p3763
aV214
p3764
aV95
p3765
aV33
p3766
aV34
p3767
aV18
p3768
aV42
p3769
aV75
p3770
aV194
p3771
aV77
p3772
aV28
p3773
aV195
p3774
aV29
p3775
aV40
p3776
aV111
p3777
aV81
p3778
aV31
p3779
aV32
p3780
aV82
p3781
aV81
p3782
aV206
p3783
aV82
p3784
aV83
p3785
aV223
p3786
aV84
p3787
aV125
p3788
aV42
p3789
aV24
p3790
aV19
p3791
aV261
p3792
aV278
p3793
aV236
p3794
aV147
p3795
aV260
p3796
aV72
p3797
aV21
p3798
aV48
p3799
aV115
p3800
aV49
p3801
aV140
p3802
aV147
p3803
aV13
p3804
aV77
p3805
aV58
p3806
aV22
p3807
aV72
p3808
aV21
p3809
aV43
p3810
aV33
p3811
aV54
p3812
aV78
p3813
aV141
p3814
aV61
p3815
aV62
p3816
aV124
p3817
ag1763
aV272
p3818
aV34
p3819
aV92
p3820
aV271
p3821
aV209
p3822
aV91
p3823
aV153
p3824
aV33
p3825
aV208
p3826
aV324
p3827
aV154
p3828
aV93
p3829
aV101
p3830
aV201
p3831
aV102
p3832
aV103
p3833
aV104
p3834
aV173
p3835
aV111
p3836
aV155
p3837
aV156
p3838
aV38
p3839
aV104
p3840
aV123
p3841
aV210
p3842
aV29
p3843
aV202
p3844
aV175
p3845
aV176
p3846
aV79
p3847
aV37
p3848
aV96
p3849
aV214
p3850
aV276
p3851
aV213
p3852
aV275
p3853
aV95
p3854
aV110
p3855
aV137
p3856
aV111
p3857
aV17
p3858
aV18
p3859
ag1763
aV20
p3860
aV94
p3861
aV95
p3862
aV96
p3863
aV30
p3864
aV70
p3865
aV121
p3866
aV206
p3867
aV264
p3868
aV263
p3869
aV265
p3870
aV32
p3871
aV122
p3872
aV31
p3873
aV33
p3874
aV137
p3875
aV23
p3876
aV79
p3877
aV155
p3878
aV138
p3879
aV76
p3880
aV123
p3881
aV79
p3882
aV80
p3883
aV191
p3884
aV376
p3885
aV377
p3886
aV378
p3887
aV36
p3888
aV21
p3889
aV22
p3890
aV85
p3891
aV63
p3892
aV26
p3893
aV42
p3894
aV43
p3895
aV79
p3896
aV156
p3897
aV224
p3898
aV225
p3899
aV326
p3900
aV327
p3901
aV79
p3902
aV112
p3903
aV29
p3904
aV159
p3905
aV230
p3906
aV231
p3907
aV232
p3908
aV233
p3909
aV234
p3910
aV235
p3911
aV91
p3912
aV92
p3913
aV145
p3914
aV146
p3915
aV147
p3916
aV11
p3917
aV59
p3918
aV131
p3919
aV163
p3920
aV132
p3921
aV95
p3922
aV96
p3923
aV47
p3924
ag2656
aV97
p3925
aV71
p3926
aV72
p3927
aV126
p3928
aV51
p3929
aV52
p3930
aV74
p3931
aV120
p3932
aV265
p3933
aV266
p3934
aV267
p3935
aV268
p3936
aV269
p3937
aV270
p3938
aV271
p3939
aV155
p3940
aV155
p3941
aV50
p3942
aV22
p3943
aV188
p3944
aV79
p3945
aV112
p3946
aV71
p3947
aV113
p3948
aV155
p3949
aV30
p3950
aV41
p3951
aV62
p3952
aV126
p3953
aV127
p3954
aV51
p3955
aV120
p3956
aV81
p3957
aV119
p3958
aV12
p3959
aV64
p3960
ag1763
aV79
p3961
aV186
p3962
aV187
p3963
aV72
p3964
aV45
p3965
aV18
p3966
as.