(dp0
S'rares'
p1
(lp2
VMythic Rare
p3
aVRare
p4
aVCommon
p5
aVCommon
p6
aVRare
p7
aVUncommon
p8
aVUncommon
p9
aVRare
p10
aVRare
p11
aVRare
p12
aVCommon
p13
aVCommon
p14
aVUncommon
p15
aVUncommon
p16
aVCommon
p17
aVCommon
p18
aVRare
p19
aVCommon
p20
aVUncommon
p21
aVCommon
p22
aVUncommon
p23
aVRare
p24
aVUncommon
p25
aVCommon
p26
aVRare
p27
aVCommon
p28
aVUncommon
p29
aVCommon
p30
aVUncommon
p31
aVRare
p32
aVUncommon
p33
aVCommon
p34
aVRare
p35
aVRare
p36
aVRare
p37
aVCommon
p38
aVUncommon
p39
aVCommon
p40
aVUncommon
p41
aVUncommon
p42
aVRare
p43
aVCommon
p44
aVCommon
p45
aVCommon
p46
aVRare
p47
aVRare
p48
aVCommon
p49
aVUncommon
p50
aVCommon
p51
aVRare
p52
aVCommon
p53
aVUncommon
p54
aVUncommon
p55
aVUncommon
p56
aVUncommon
p57
aVUncommon
p58
aVRare
p59
aVUncommon
p60
aVRare
p61
aVCommon
p62
aVCommon
p63
aVUncommon
p64
aVCommon
p65
aVCommon
p66
aVRare
p67
aVCommon
p68
aVCommon
p69
aVRare
p70
aVCommon
p71
aVRare
p72
aVUncommon
p73
aVRare
p74
aVCommon
p75
aVCommon
p76
aVCommon
p77
aVCommon
p78
aVCommon
p79
aVRare
p80
aVUncommon
p81
aVCommon
p82
aVRare
p83
aVUncommon
p84
aVUncommon
p85
aVUncommon
p86
aVUncommon
p87
aVCommon
p88
aVCommon
p89
aVRare
p90
aVUncommon
p91
aVRare
p92
aVUncommon
p93
aVCommon
p94
aVCommon
p95
aVUncommon
p96
aVSpecial
p97
aVRare
p98
aVUncommon
p99
aVCommon
p100
aVCommon
p101
aVRare
p102
aVRare
p103
aVCommon
p104
aVRare
p105
aVCommon
p106
aVCommon
p107
aVCommon
p108
aVCommon
p109
aVCommon
p110
aVCommon
p111
aVCommon
p112
asS'editns'
p113
(lp114
VMagic: The Gathering-Commander
p115
aVMagic: The Gathering-Commander
p116
aVMagic: The Gathering-Commander
p117
aVMagic 2012
p118
aVMagic 2012
p119
aVMagic 2012
p120
aVSaviors of Kamigawa
p121
aVSaviors of Kamigawa
p122
aVSaviors of Kamigawa
p123
aVMorningtide
p124
aVMagic 2013
p125
aVDuel Decks: Ajani vs. Nicol Bolas
p126
aVScars of Mirrodin
p127
aVScars of Mirrodin
p128
aVMagic 2010
p129
aVMagic 2014 Core Set
p130
aVTempest
p131
aVTenth Edition
p132
aVTenth Edition
p133
aVMercadian Masques
p134
aVMercadian Masques
p135
aVMercadian Masques
p136
aVMercadian Masques
p137
aVMercadian Masques
p138
aVModern Masters
p139
aVModern Masters
p140
aVThe Dark
p141
aVMirrodin Besieged
p142
aVFallen Empires
p143
aVMasters Edition III
p144
aVMasters Edition II
p145
aVGuildpact
p146
aVGuildpact
p147
aVNinth Edition
p148
aVEventide
p149
aVConflux
p150
aVAvacyn Restored
p151
aVPlanechase 2012 Edition
p152
aVOnslaught
p153
aVOnslaught
p154
aVCommander 2013 Edition
p155
aVCommander 2013 Edition
p156
aVReturn to Ravnica
p157
aVReturn to Ravnica
p158
aVGatecrash
p159
aVGatecrash
p160
aVGatecrash
p161
aVGatecrash
p162
aVColdsnap
p163
aVIce Age
p164
aVZendikar
p165
aVZendikar
p166
aVClassic Sixth Edition
p167
aVMirrodin
p168
aVMirrodin
p169
aVMirrodin
p170
aVMirrodin
p171
aVDuel Decks: Elspeth vs. Tezzeret
p172
aVDuel Decks: Elspeth vs. Tezzeret
p173
aVMagic 2015 Core Set
p174
aVMagic 2015 Core Set
p175
aVRise of the Eldrazi
p176
aVShadowmoor
p177
aVShadowmoor
p178
aVShadowmoor
p179
aVShadowmoor
p180
aVNew Phyrexia
p181
aVFifth Dawn
p182
aVScourge
p183
aVPlanechase
p184
aVUrza's Saga
p185
aVUrza's Saga
p186
aVUrza's Saga
p187
aVUrza's Saga
p188
aVUrza's Saga
p189
aVUrza's Saga
p190
aVUrza's Saga
p191
aVUrza's Saga
p192
aVMagic: The Gathering\u2014Conspiracy
p193
aVEighth Edition
p194
aVEighth Edition
p195
aVNemesis
p196
aVNemesis
p197
aVWorldwake
p198
aVWorldwake
p199
aVWorldwake
p200
aVChronicles
p201
aVChronicles
p202
aVInvasion
p203
aVInvasion
p204
aVFifth Edition
p205
aVKhans of Tarkir
p206
aVKhans of Tarkir
p207
aVKhans of Tarkir
p208
aVVanguard
p209
aVInnistrad
p210
aVInnistrad
p211
aVDragon's Maze
p212
aVDragon's Maze
p213
aVDragon's Maze
p214
aVStronghold
p215
aVLegends
p216
aVLegends
p217
aVLorwyn
p218
aVArabian Nights
p219
aVArabian Nights
p220
aVPremium Deck Series: Slivers
p221
aVMagic 2011
p222
aVPlaneshift
p223
aVDark Ascension
p224
asS'ids'
p225
(lp226
V236477
p227
aV247414
p228
aV247181
p229
aV221893
p230
aV220130
p231
aV220241
p232
aV50430
p233
aV87600
p234
aV-87600
p235
aV153460
p236
aV249705
p237
aV259282
p238
aV209282
p239
aV194069
p240
aV189888
p241
aV370764
p242
aV4625
p243
aV136285
p244
aV136291
p245
aV19622
p246
aV19864
p247
aV19869
p248
aV19895
p249
aV19627
p250
aV370470
p251
aV370445
p252
aV1719
p253
aV213746
p254
aV2011
p255
aV201227
p256
aV184516
p257
aV96916
p258
aV97199
p259
aV83236
p260
aV153434
p261
aV142301
p262
aV240183
p263
aV271142
p264
aV40601
p265
aV41160
p266
aV376476
p267
aV376477
p268
aV265396
p269
aV265394
p270
aV366462
p271
aV366424
p272
aV366235
p273
aV366245
p274
aV121247
p275
aV2420
p276
aV189624
p277
aV197536
p278
aV14722
p279
aV46118
p280
aV46138
p281
aV48174
p282
aV48112
p283
aV222737
p284
aV222717
p285
aV383367
p286
aV383368
p287
aV194946
p288
aV142003
p289
aV147389
p290
aV154005
p291
aV158754
p292
aV227528
p293
aV73587
p294
aV43729
p295
aV205354
p296
aV10694
p297
aV11698
p298
aV5810
p299
aV5811
p300
aV5812
p301
aV5813
p302
aV5814
p303
aV8447
p304
aV382350
p305
aV45403
p306
aV45390
p307
aV21347
p308
aV21388
p309
aV198378
p310
aV197770
p311
aV194678
p312
aV2790
p313
aV2878
p314
aV22949
p315
aV23095
p316
aV4187
p317
aV386641
p318
aV386642
p319
aV386643
p320
aV182277
p321
aV244681
p322
aV227298
p323
aV369075
p324
aV368966
p325
aV369025
p326
aV5213
p327
aV1543
p328
aV1682
p329
aV139508
p330
aV966
p331
aV965
p332
aV207933
p333
aV207337
p334
aV25942
p335
aV244726
p336
asS'texts'
p337
(lp338
VAt the beginning of combat on your turn, choose an opponent at random. Ruhan of the Fomori attacks that player this combat if able.
p339
aVDestroy all nonbasic lands.
p340
aVRupture Spire enters the battlefield tapped.<br>When Rupture Spire enters the battlefield, sacrifice it unless you pay {1}.<br>{T}: Add one mana of any color to your mana pool.
p341
aVFlying<br>Vigilance <i>(Attacking doesn't cause this creature to tap.)</i>
p342
aVShock deals 2 damage to target creature or player.
p343
aV{G}: Choose one- Until end of turn, Skinshifter becomes a 4/4 Rhino and gains trample; or until end of turn, Skinshifter becomes a 2/2 Bird and gains flying; or until end of turn, Skinshifter becomes a 0/8 Plant. Activate this ability only once each turn.
p344
aVWhen Rushing-Tide Zubera dies, if 4 or more damage was dealt to it this turn, draw three cards.
p345
aVPrevent all damage that would be dealt to creatures you control.
p346
aVPrevent all damage that would be dealt to creatures you control.
p347
aVWhenever Order of the Golden Cricket attacks, you may pay {W}. If you do, it gains flying until end of turn.
p348
aVVolcanic Geyser deals X damage to target creature or player.
p349
aVRupture Spire enters the battlefield tapped.<br>When Rupture Spire enters the battlefield, sacrifice it unless you pay {1}.<br>{T}: Add one mana of any color to your mana pool.
p350
aVSeachrome Coast enters the battlefield tapped unless you control two or fewer other lands.<br>{T}: Add {W} or {U} to your mana pool.
p351
aVTarget creature gets +1/+1 and gains first strike until end of turn.
p352
aVWhen Siege-Gang Commander enters the battlefield, put three 1/1 red Goblin creature tokens onto the battlefield.<br>{1}{R}, Sacrifice a Goblin: Siege-Gang Commander deals 2 damage to target creature or player.
p353
aVFlying<br>Whenever a creature dealt damage by Sengir Vampire this turn dies, put a +1/+1 counter on Sengir Vampire.
p354
aVBlue spells you cast cost {1} less to cast.
p355
aVU
p356
aVW
p357
aVFlying<br>Whenever Venomous Dragonfly blocks or becomes blocked by a creature, destroy that creature at end of combat.
p358
aVWhenever Deepwood Tantiv becomes blocked, you gain 2 life.
p359
aVPut a 1/1 green Saproling creature token onto the battlefield for each card in your hand.
p360
aVYou may return two Islands you control to their owner's hand rather than pay Gush's mana cost.<br><br>Draw two cards.
p361
aVSacrifice Shock Troops: Shock Troops deals 2 damage to target creature or player.
p362
aVChoose one- Untap all lands you control; or until end of turn, lands you control become 2/2 creatures that are still lands.<br>Entwine {2}{G} <i>(Choose both if you pay the entwine cost.)</i>
p363
aVEquipped creature gets +1/+1 and is every creature type.<br>Equip {2}
p364
aV{T}: Add {R} to your mana pool.
p365
aVInfect <i>(This creature deals damage to creatures in the form of -1/-1 counters and to players in the form of poison counters.)</i><br>Whenever Septic Rats attacks, if defending player is poisoned, it gets +1/+1 until end of turn.
p366
aVRuins of Trokair enters the battlefield tapped.<br>{T}: Add {W} to your mana pool.<br>{T}, Sacrifice Ruins of Trokair: Add {W}{W} to your mana pool.
p367
aV{T}: Choose two target blocking creatures an opponent controls. If each of those creatures could block all creatures that the other is blocking, remove both of them from combat. Each one then blocks all creatures the other was blocking. <br>Whenever Sorrow's Path becomes tapped, it deals 2 damage to you and each creature you control.
p368
aVYou may exile a white card from your hand rather than pay Scars of the Veteran's mana cost.<br>Prevent the next 7 damage that would be dealt to target creature or player this turn. At the beginning of the next end step, put a +0/+1 counter on that creature for each 1 damage prevented this way.
p369
aVTarget creature with flying loses flying until end of turn. Crash Landing deals damage to that creature equal to the number of Forests you control.
p370
aVBloodthirst 1 <i>(If an opponent was dealt damage this turn, this creature enters the battlefield with a +1/+1 counter on it.)</i><br>{R}, {T}: Attacking creatures get +X/+0 until end of turn, where X is Rabble-Rouser's power.
p371
aVSacrifice a Swamp: Regenerate target black creature. <i>(The next time that creature would be destroyed this turn, it isn't. Instead tap it, remove all damage from it, and remove it from combat.)</i>
p372
aV{T}: Add {1} to your mana pool.<br>{R/W}, {T}: Add {R}{R}, {R}{W}, or {W}{W} to your mana pool.
p373
aVSalvage Slasher gets +1/+0 for each artifact card in your graveyard.
p374
aV{1}, Sacrifice Scroll of Griselbrand: Target opponent discards a card. If you control a Demon, that player loses 3 life.
p375
aVEquipped creature gets +1/+1.<br>Whenever a creature enters the battlefield under your control, you may attach Sai of the Shinobi to it.<br>Equip {2}
p376
aV{2}{U}: Look at the top card of your library. You may put that card into your graveyard.
p377
aVUntil end of turn, target creature gains trample and "{G}: Regenerate this creature."
p378
aVYou may choose not to untap Rubinia Soulsinger during your untap step.<br>{T}: Gain control of target creature for as long as you control Rubinia and Rubinia remains tapped.
p379
aVRupture Spire enters the battlefield tapped.<br>When Rupture Spire enters the battlefield, sacrifice it unless you pay {1}.<br>{T}: Add one mana of any color to your mana pool.
p380
aVTarget player reveals his or her hand. You gain life equal to the number of cards in that player's hand.
p381
aVEnchant land<br>When Security Blockade enters the battlefield, put a 2/2 white Knight creature token with vigilance onto the battlefield.<br>Enchanted land has "{T}: Prevent the next 1 damage that would be dealt to you this turn."
p382
aVRubblehulk's power and toughness are each equal to the number of lands you control.<br>Bloodrush- {1}{R}{G}, Discard Rubblehulk: Target attacking creature gets +X/+X until end of turn, where X is the number of lands you control.
p383
aVWhenever Rust Scarab becomes blocked, you may destroy target artifact or enchantment defending player controls.
p384
aV<i>({T}: Add {R} or {W} to your mana pool.)</i><br>As Sacred Foundry enters the battlefield, you may pay 2 life. If you don't, Sacred Foundry enters the battlefield tapped.
p385
aVWhenever another blue creature enters the battlefield under your control, target player puts the top two cards of his or her library into his or her graveyard.
p386
aVTarget attacking creature gets +X/+0 until end of turn.<br>Draw a card at the beginning of the next turn's upkeep.
p387
aVRuned Arch enters the battlefield tapped.<br>{X}, {T}, Sacrifice Runed Arch: X target creatures with power 2 or less are unblockable this turn.
p388
aVKicker {7} <i>(You may pay an additional {7} as you cast this spell.)</i><br>Search target player's library for up to three cards, exile them, then that player shuffles his or her library. If Sadistic Sacrament was kicked, instead search that player's library for up to fifteen cards, exile them, then that player shuffles his or her library.
p389
aVEnchant creature<br>Enchanted creature gets +2/+2 and has "{1}{G}: Regenerate this creature."
p390
aVSky Diamond enters the battlefield tapped.<br>{T}: Add {U} to your mana pool.
p391
aVWhenever Rustmouth Ogre deals combat damage to a player, you may destroy target artifact that player controls.
p392
aVWhen Rustspore Ram enters the battlefield, destroy target Equipment.
p393
aVFlying<br>At the beginning of your upkeep, sacrifice an artifact other than Rust Elemental. If you can't, tap Rust Elemental and you lose 4 life.
p394
aVDestroy target artifact.
p395
aVDestroy target nonwhite permanent.
p396
aVWhenever Seasoned Marshal attacks, you may tap target creature.
p397
aVScuttling Doom Engine can't be blocked by creatures with power 2 or less.<br>When Scuttling Doom Engine dies, it deals 6 damage to target opponent.
p398
aVSeismic Strike deals damage to target creature equal to the number of Mountains you control.
p399
aVAs an additional cost to cast Shared Discovery, tap four untapped creatures you control.<br>Draw three cards.
p400
aVWhen Elsewhere Flask enters the battlefield, draw a card.<br>Sacrifice Elsewhere Flask: Choose a basic land type. Each land you control becomes that type until end of turn.
p401
aV{2}{W}, {Q}: Safehold Sentry gets +0/+2 until end of turn. <i>({Q} is the untap symbol.)</i>
p402
aVTarget creature becomes black and gains fear until end of turn. <i>(It can't be blocked except by artifact creatures and/or black creatures.)</i><br>Draw a card.
p403
aVReturn target artifact or enchantment card from a graveyard to its owner's hand.<br>Conspire <i>(As you cast this spell, you may tap two untapped creatures you control that share a color with it. When you do, copy it and you may choose a new target for the copy.)</i>
p404
aVSwampwalk<br>At the beginning of your upkeep, return target creature card from your graveyard to the battlefield.<br>At the beginning of each opponent's upkeep, that player sacrifices a creature.
p405
aVFlying<br>{T}: Target player loses 1 life.
p406
aVDraw cards equal to the highest converted mana cost among permanents you control.
p407
aVAt the beginning of your upkeep, Rumbling Slum deals 1 damage to each player.
p408
aV{W}: The next time an artifact source of your choice would deal damage to you this turn, prevent that damage.<br>Cycling {2} <i>({2}, Discard this card: Draw a card.)</i>
p409
aV{W}: The next time a land source of your choice would deal damage to you this turn, prevent that damage.<br>Cycling {2} <i>({2}, Discard this card: Draw a card.)</i>
p410
aV{W}: The next time a blue source of your choice would deal damage to you this turn, prevent that damage.<br>Cycling {2} <i>({2}, Discard this card: Draw a card.)</i>
p411
aV{W}: The next time a green source of your choice would deal damage to you this turn, prevent that damage.<br>Cycling {2} <i>({2}, Discard this card: Draw a card.)</i>
p412
aV{W}: The next time a red source of your choice would deal damage to you this turn, prevent that damage.<br>Cycling {2} <i>({2}, Discard this card: Draw a card.)</i>
p413
aV{W}: The next time a white source of your choice would deal damage to you this turn, prevent that damage.<br>Cycling {2} <i>({2}, Discard this card: Draw a card.)</i>
p414
aVCycling {2} <i>({2}, Discard this card: Draw a card.)</i>
p415
aVAt the beginning of your upkeep, you may put a verse counter on Midsummer Revel.<br>{G}, Sacrifice Midsummer Revel: Put X 3/3 green Beast creature tokens onto the battlefield, where X is the number of verse counters on Midsummer Revel.
p416
aVFlying<br>When Screaming Seahawk enters the battlefield, you may search your library for a card named Screaming Seahawk, reveal it, and put it into your hand. If you do, shuffle your library.
p417
aVTarget creature gets +3/+3 until end of turn.
p418
aVDestroy target land.
p419
aVSacrifice a creature. Rupture deals damage equal to that creature's power to each creature without flying and each player.
p420
aVFading 5 <i>(This creature enters the battlefield with five fade counters on it. At the beginning of your upkeep, remove a fade counter from it. If you can't, sacrifice it.)</i><br>Rusting Golem's power and toughness are each equal to the number of fade counters on it.
p421
aVRuthless Cullblade gets +2/+1 as long as an opponent has 10 or less life.
p422
aV{T}: Exile the top card of target player's library. If it's a land card, you gain 1 life.<br>Landfall- Whenever a land enters the battlefield under your control, you may untap Scrib Nibblers.
p423
aVSearing Blaze deals 1 damage to target player and 1 damage to target creature that player controls.<br>Landfall- If you had a land enter the battlefield under your control this turn, Searing Blaze deals 3 damage to that player and 3 damage to that creature instead.
p424
aV{3}, {T}: Target attacking creature gets +2/+0 until end of turn. When that creature leaves the battlefield this turn, sacrifice Runesword. If the creature deals damage to a creature this turn, the creature dealt damage can't be regenerated this turn. If a creature dealt damage by the targeted creature would die this turn, exile that creature instead.
p425
aV{G}, {T}, Sacrifice Scavenger Folk: Destroy target artifact.
p426
aVFirst strike<br><br>Ruham Djinn gets -2/-2 as long as white is the most common color among all permanents or is tied for most common.
p427
aVFirst strike<br>Red spells you cast cost {R} more to cast.
p428
aV{T}: Target creature other than Sorceress Queen becomes 0/2 until end of turn.
p429
aVDeathtouch<br>Morph\u2014Reveal a black card in your hand. <i>(You may cast this card face down as a 2/2 creature for {3}. Turn it face up any time for its morph cost.)</i><br>When Ruthless Ripper is turned face up, target player loses 2 life.
p430
aVFlying<br>Whenever you cast a noncreature spell, creatures you control gain lifelink until end of turn.
p431
aVFlying<br>Morph {3}{W} <i>(You may cast this card face down as a 2/2 creature for {3}. Turn it face up any time for its morph cost.)</i>
p432
aVAt the beginning of your upkeep, Rumbling Slum Avatar deals 1 damage to each opponent.
p433
aV{1}{W}, Sacrifice Selfless Cathar: Creatures you control get +1/+1 until end of turn.
p434
aVWhenever Selhoff Occultist or another creature dies, target player puts the top card of his or her library into his or her graveyard.
p435
aVVigilance, reach<br>Ruric Thar, the Unbowed attacks each turn if able.<br>Whenever a player casts a noncreature spell, Ruric Thar deals 6 damage to that player.
p436
aVWhen Saruli Gatekeepers enters the battlefield, if you control two or more Gates, you gain 7 life.
p437
aVDouble strike<br>Savageborn Hydra enters the battlefield with X +1/+1 counters on it.<br>{1}{R/G}: Put a +1/+1 counter on Savageborn Hydra. Activate this ability only any time you could cast a sorcery.
p438
aVDestroy all nonbasic lands.
p439
aVPrevent all combat damage that would be dealt by target creature this turn. That creature gets +0/+X until end of turn, where X is its converted mana cost.
p440
aVFlying<br>At the beginning of your upkeep, sacrifice Vaevictis Asmadi unless you pay {B}{R}{G}.<br>{B}: Vaevictis Asmadi gets +1/+0 until end of turn.<br>{R}: Vaevictis Asmadi gets +1/+0 until end of turn.<br>{G}: Vaevictis Asmadi gets +1/+0 until end of turn.
p441
aVEquipped creature gets +1/+1 and is every creature type.<br>Equip {2}
p442
aVWhen Rukh Egg dies, put a 4/4 red Bird creature token with flying onto the battlefield at the beginning of the next end step.
p443
aVWhen Rukh Egg dies, put a 4/4 red Bird creature token with flying onto the battlefield at the beginning of the next end step.
p444
aV{3}: Search your library for a Sliver card, reveal that card, and put it into your hand. Then shuffle your library.<br>{3}: Gain control of target Sliver. <i>(This effect lasts indefinitely.)</i>
p445
aVYour opponents can't cast spells this turn. <i>(Spells cast before this resolves are unaffected.)</i>
p446
aVKicker\u2014Sacrifice a land. <i>(You may sacrifice a land in addition to any other costs as you cast this spell.)</i><br>Return target nonland permanent to its owner's hand. If Rushing River was kicked, return another target nonland permanent to its owner's hand.
p447
aV{T}: Add {G} to your mana pool.<br>At the beginning of each upkeep, if no spells were cast last turn, transform Scorned Villager.
p448
asS'costs'
p449
(lp450
V{4}{B}
p451
aV{1}{R}{W}{U}
p452
aS'0'
p453
aV{R}{R}
p454
aV{2}{G}
p455
aV{2}{W}
p456
aV{2}{U}{U}
p457
aV{2}{W}
p458
aV{2}{W}
p459
ag453
aV{4}{R}
p460
ag453
aV{1}{W}
p461
aV{1}{U}
p462
aV{2}{W}{W}
p463
aV{2}{R}
p464
aV{2}
p465
aV{1}{G}
p466
aV{2}{W}
p467
aV{2}{G}
p468
aV{2}{G}
p469
aV{G}{G}{G}{G}{G}
p470
ag453
aV{1}{G}
p471
aV{4}{G}
p472
aV{1}
p473
aV{6}
p474
aV{4}
p475
ag453
aV{2}{G}{W}{U}
p476
ag453
aV{2}{U}
p477
aV{1}{R}{G}{G}
p478
aV{3}{R}
p479
ag453
ag453
aV{5}{R}{R}
p480
ag453
aV{3}{U}
p481
aV{G}
p482
aV{2}{G}{W}{U}
p483
ag453
aV{2}{W}
p484
aV{4}{G}
p485
aV{2}
p486
aV{4}{R}{R}
p487
aV{1}{R/G}{R/G}{R/G}
p488
aV{4}{R}{G}
p489
aV{1}{U}
p490
aV{3}
p491
aV{1}{G}
p492
aV{3}{U}{U}{U}
p493
ag453
aV{4}{R}{R}
p494
aV{4}
p495
aV{4}
p496
aV{2}{W}
p497
aV{5}
p498
ag453
aV{5}{W}{W}
p499
aV{3}{G}{G}
p500
aV{2}{W}
p501
aV{3}{W}
p502
aV{1}{R}
p503
aV{W}{W}
p504
aV{4}{R/G}
p505
aV{4}{G}
p506
aV{4}{G}
p507
aV{4}{U}
p508
aV{1}{R}{G}{G}
p509
aV{1}{W}
p510
aV{1}{W}
p511
aV{1}{W}
p512
aV{1}{W}
p513
aV{1}{W}
p514
aV{1}{W}
p515
aV{1}{W}
p516
aV{3}{R}{R}
p517
aV{3}{W}{W}
p518
aV{1}{G}
p519
aV{3}{R}
p520
aV{2}{R}
p521
aV{4}
p522
aV{2}{R}{R}
p523
aV{1}{W}
p524
aV{4}{R}
p525
aV{6}
p526
aV{2}{G}{W}{U}
p527
aV{5}{W}
p528
aV{1}{R}
p529
ag453
ag453
aV{3}{W}
p530
aV{B}
p531
ag453
aV{5}{U}
p532
aV{3}{B}
p533
aV{2}{B}{G}
p534
aV{3}{R}
p535
aV{1}{U}
p536
aV{3}{R}
p537
aV{G}
p538
aV{2}{G}{W}{U}
p539
aV{1}
p540
aV{3}{R}
p541
aV{3}{R}
p542
ag453
aV{R}{R}
p543
aV{2}{U}
p544
aV{3}{R}
p545
asS'names'
p546
(lp547
VRuhan of the Fomori
p548
aVRuination
p549
aVRupture Spire
p550
aVRuneclaw Bear
p551
aVRune-Scarred Demon
p552
aVRusted Sentinel
p553
aVRushing-Tide Zubera
p554
aVRune-Tail, Kitsune Ascendant (Rune-Tail's Essence)
p555
aVRune-Tail's Essence
p556
aVRustic Clachan
p557
aVRummaging Goblin
p558
aVRupture Spire
p559
aVRust Tick
p560
aVRusted Relic
p561
aVRuneclaw Bear
p562
aVRumbling Baloth
p563
aVRuby Medallion
p564
aVRushwood Dryad
p565
aVRule of Law
p566
aVRushwood Herbalist
p567
aVRushwood Legate
p568
aVRushwood Elemental
p569
aVRushwood Grove
p570
aVRushwood Dryad
p571
aVRude Awakening
p572
aVRuned Stalactite
p573
aVRunesword
p574
aVRusted Slasher
p575
aVRuins of Trokair
p576
aVRubinia Soulsinger
p577
aVRuins of Trokair
p578
aVRuneboggle
p579
aVRumbling Slum
p580
aVRukh Egg
p581
aVRugged Prairie
p582
aVRupture Spire
p583
aVRush of Blood
p584
aVRupture Spire
p585
aVRummaging Wizard
p586
aVRun Wild
p587
aVRubinia Soulsinger
p588
aVRupture Spire
p589
aVRubbleback Rhino
p590
aVRunewing
p591
aVRubblebelt Raiders
p592
aVRubblehulk
p593
aVRuination Wurm
p594
aVRust Scarab
p595
aVRune Snag
p596
aVRuned Arch
p597
aVRuinous Minotaur
p598
aVRuneflare Trap
p599
aVRuins of Trokair
p600
aVRustmouth Ogre
p601
aVRustspore Ram
p602
aVRust Elemental
p603
aVRule of Law
p604
aVRuned Servitor
p605
aVRustic Clachan
p606
aVRummaging Goblin
p607
aVRuneclaw Bear
p608
aVRuned Servitor
p609
aVRune-Cervin Rider
p610
aVRustrazor Butcher
p611
aVRuned Halo
p612
aVRunes of the Deus
p613
aVRuthless Invasion
p614
aVRude Awakening
p615
aVRush of Knowledge
p616
aVRumbling Slum
p617
aVRune of Protection: Artifacts
p618
aVRune of Protection: Lands
p619
aVRune of Protection: Black
p620
aVRune of Protection: Blue
p621
aVRune of Protection: Green
p622
aVRune of Protection: Red
p623
aVRune of Protection: White
p624
aVRumbling Crescendo
p625
aVRuned Servitor
p626
aVRushwood Dryad
p627
aVRukh Egg
p628
aVRupture
p629
aVRusting Golem
p630
aVRuin Ghost
p631
aVRumbling Aftershocks
p632
aVRuthless Cullblade
p633
aVRunesword
p634
aVRubinia Soulsinger
p635
aVRuham Djinn
p636
aVRuby Leech
p637
aVRuins of Trokair
p638
aVRugged Highlands
p639
aVRush of Battle
p640
aVRuthless Ripper
p641
aVRumbling Slum Avatar
p642
aVRunechanter's Pike
p643
aVRunic Repetition
p644
aVRubblebelt Maaka
p645
aVRunner's Bane
p646
aVRuric Thar, the Unbowed
p647
aVRuination
p648
aVRust
p649
aVRubinia Soulsinger
p650
aVRuned Stalactite
p651
aVRukh Egg
p652
aVRukh Egg
p653
aVRupture Spire
p654
aVRuneclaw Bear
p655
aVRushing River
p656
aVRusset Wolves
p657
asS'toughs'
p658
(lp659
V7
p660
aS'N/A'
p661
ag661
aV3
p662
aV6
p663
ag661
ag662
ag661
ag661
ag661
ag662
ag661
ag661
ag661
aV1
p664
aV2
p665
ag661
ag662
ag661
ag665
ag662
aV4
p666
ag661
ag664
ag661
ag661
ag661
ag661
ag661
aV5
p667
ag661
ag661
ag667
ag665
ag661
ag661
ag661
ag661
ag666
ag661
ag665
ag661
ag665
ag666
ag664
ag664
ag664
ag667
ag661
ag661
ag664
ag661
ag661
ag662
ag661
ag661
ag661
ag661
ag661
ag665
ag664
ag661
ag665
ag662
ag661
ag661
ag661
ag661
ag661
ag665
ag661
ag661
ag661
ag661
ag661
ag661
ag661
ag661
ag661
ag664
ag664
ag661
ag661
ag666
ag661
ag664
ag661
ag664
ag667
ag665
ag661
ag661
ag661
ag664
ag661
ag661
ag661
ag664
ag661
ag662
ag661
ag661
ag667
ag661
ag664
ag665
ag661
ag663
ag661
ag664
asS'artists'
p668
(lp669
VRaymond Swanland
p670
aVDermot Power
p671
aVJaime Jones
p672
aS''
p673
ag673
ag673
aVMark Brill
p674
aVRandy Gallegos
p675
aVRandy Gallegos
p676
aVFred Fields
p677
aVKarl Kopinski
p678
aVJaime Jones
p679
aVCarl Critchlow
p680
aVIgor Kieryluk
p681
aVJesper Ejsing
p682
aVJesper Ejsing
p683
aVSue Ellen Brown
p684
aVTodd Lockwood
p685
aVScott M. Fischer
p686
aVTerese Nielsen
p687
aVMark Romanoski
p688
aVHannibal King
p689
aVGeorge Pratt
p690
aVTodd Lockwood
p691
ag673
ag673
aVChristopher Rush
p692
ag673
aVMark Poole
p693
aVJesper Myrfors
p694
aVMark Poole
p695
aVRon Spencer
p696
aVCarl Critchlow
p697
aVMark Zug
p698
aVFred Fields
p699
aVJaime Jones
p700
aVErica Yang
p701
ag673
aVJerry Tiritilli
p702
aVAlan Pollack
p703
aVCynthia Sheppard
p704
aVJaime Jones
p705
aVJohann Bodin
p706
aVMartina Pilcerova
p707
aVChippy
p708
aVRaymond Swanland
p709
aVDave Kendall
p710
aVAdam Paquette
p711
aVDave Dorman
p712
aVPhil Foglio
p713
aVRaymond Swanland
p714
aVFranz Vohwinkel
p715
aVLiz Danforth
p716
aVBrian Snoddy
p717
aVArnie Swekel
p718
aVArnie Swekel
p719
aVScott M. Fischer
p720
aVMike Bierek
p721
aVFred Fields
p722
aVKarl Kopinski
p723
aVJesper Ejsing
p724
aVMike Bierek
p725
aVDan Scott
p726
aVRon Spencer
p727
aVSteve Prescott
p728
aVWarren Mahy
p729
ag673
aVIttoku
p730
aVEric Peterson
p731
aVCarl Critchlow
p732
aVScott M. Fischer
p733
aVScott M. Fischer
p734
aVScott M. Fischer
p735
aVScott M. Fischer
p736
aVScott M. Fischer
p737
aVScott M. Fischer
p738
aVScott M. Fischer
p739
aVLawrence Snelly
p740
aVMike Bierek
p741
aVTodd Lockwood
p742
aVMark Zug
p743
aVGao Yan
p744
aVGreg Staples
p745
aVJason A. Engle
p746
aVTomasz Jedruszek
p747
aVrk post
p748
aVChristopher Rush
p749
aVRob Alexander
p750
aVJeff Easley
p751
aVJacques Bredy
p752
aVLiz Danforth
p753
aVEytan Zana
p754
aVDan Scott
p755
aVClint Cearley
p756
aVUDON
p757
aVJohn Avon
p758
aVSvetlin Velinov
p759
aVEric Velhagen
p760
aVKarl Kopinski
p761
aVTyler Jacobson
p762
aVDermot Power
p763
aVLiz Danforth
p764
aVRob Alexander
p765
aVJim Pavelec
p766
aVChristopher Rush
p767
aVChristopher Rush
p768
aVJaime Jones
p769
aVJesper Ejsing
p770
aVDon Hazeltine
p771
aVMatt Stewart
p772
asS'powers'
p773
(lp774
g664
ag661
ag661
aV0
p775
ag664
ag661
ag662
ag661
ag661
ag661
ag664
ag661
ag661
ag661
ag662
ag665
ag661
ag662
ag661
ag665
ag665
ag665
ag661
ag664
ag661
ag661
ag661
ag661
ag661
ag667
ag661
ag661
ag667
ag664
ag661
ag661
ag661
ag661
ag662
ag661
ag664
ag661
ag662
ag665
ag664
ag663
ag662
aV*
p776
ag661
ag661
ag662
ag661
ag661
ag665
ag661
ag661
ag661
ag661
ag661
ag665
ag664
ag661
ag665
ag662
ag661
ag661
ag661
ag661
ag661
ag665
ag661
ag661
ag661
ag661
ag661
ag661
ag661
ag661
ag661
ag665
ag664
ag661
ag661
ag664
ag661
ag664
ag661
ag775
ag667
ag665
ag661
ag661
ag661
ag664
ag661
ag661
ag661
ag662
ag661
ag663
ag661
ag661
ag667
ag661
ag664
ag664
ag661
ag665
ag661
ag664
asS'types'
p777
(lp778
VLegendary Creature - Giant Warrior
p779
aVSorcery
p780
aVLand
p781
aVCreature - Bear
p782
aVCreature - Demon
p783
aVArtifact Creature - Golem
p784
aVCreature - Zubera Spirit
p785
aVLegendary Enchantment
p786
aVLegendary Enchantment
p787
aVLand
p788
aVCreature - Goblin Rogue
p789
aVLand
p790
aVArtifact Creature - Insect
p791
aVArtifact
p792
aVCreature - Bear
p793
aVCreature - Beast
p794
aVArtifact
p795
aVCreature - Dryad
p796
aVEnchantment
p797
aVCreature - Human Spellshaper
p798
aVCreature - Dryad
p799
aVCreature - Elemental
p800
aVLand
p801
aVCreature - Dryad
p802
aVSorcery
p803
aVArtifact - Equipment
p804
aVArtifact
p805
aVArtifact Creature - Horror
p806
aVLand
p807
aVLegendary Creature - Faerie
p808
aVLand
p809
aVInstant
p810
aVCreature - Elemental
p811
aVCreature - Bird
p812
aVLand
p813
aVLand
p814
aVInstant
p815
aVLand
p816
aVCreature - Human Wizard
p817
aVInstant
p818
aVLegendary Creature - Faerie
p819
aVLand
p820
aVCreature - Rhino
p821
aVCreature - Bird
p822
aVCreature - Human Warrior
p823
aVCreature - Elemental
p824
aVCreature - Wurm
p825
aVCreature - Insect
p826
aVInstant
p827
aVArtifact
p828
aVCreature - Minotaur Warrior
p829
aVInstant - Trap
p830
aVLand
p831
aVCreature - Ogre
p832
aVArtifact Creature - Sheep
p833
aVArtifact Creature - Elemental
p834
aVEnchantment
p835
aVArtifact Creature - Construct
p836
aVLand
p837
aVCreature - Goblin Rogue
p838
aVCreature - Bear
p839
aVArtifact Creature - Construct
p840
aVCreature - Elf Knight
p841
aVCreature - Goblin Warrior
p842
aVEnchantment
p843
aVEnchantment - Aura
p844
aVSorcery
p845
aVSorcery
p846
aVSorcery
p847
aVCreature - Elemental
p848
aVEnchantment
p849
aVEnchantment
p850
aVEnchantment
p851
aVEnchantment
p852
aVEnchantment
p853
aVEnchantment
p854
aVEnchantment
p855
aVEnchantment
p856
aVArtifact Creature - Construct
p857
aVCreature - Dryad
p858
aVCreature - Bird
p859
aVSorcery
p860
aVArtifact Creature - Golem
p861
aVCreature - Spirit
p862
aVEnchantment
p863
aVCreature - Vampire Warrior
p864
aVArtifact
p865
aVLegendary Creature - Faerie
p866
aVCreature - Djinn
p867
aVCreature - Leech
p868
aVLand
p869
aVLand
p870
aVSorcery
p871
aVCreature - Human Assassin
p872
aVVanguard
p873
aVArtifact - Equipment
p874
aVSorcery
p875
aVCreature - Cat
p876
aVEnchantment - Aura
p877
aVLegendary Creature - Ogre Warrior
p878
aVSorcery
p879
aVInstant
p880
aVLegendary Creature - Faerie
p881
aVArtifact - Equipment
p882
aVCreature - Bird
p883
aVCreature - Bird
p884
aVLand
p885
aVCreature - Bear
p886
aVInstant
p887
aVCreature - Wolf
p888
asS'numbers'
p889
(lp890
V221
p891
aV134
p892
aV285
p893
aV193
p894
aV106
p895
aV215
p896
aV52
p897
aV27a
p898
aV27b
p899
aV150
p900
aV146
p901
aV75
p902
aV198
p903
aV199
p904
aV203
p905
aV193
p906
aV26
p907
aV294
p908
aV37
p909
aV265
p910
aV266
p911
aV264
p912
aV325
p913
aV263
p914
ag673
ag673
aV110
p915
aV128
p916
aV77
p917
aV173
p918
aV234
p919
aV33
p920
aV126
p921
aV214
p922
aV178
p923
aV144
p924
aV154
p925
aV142
p926
aV110
p927
aV279
p928
aV207
p929
aV315
p930
aV132
p931
aV48
p932
aV224
p933
aV191
p934
aV192
p935
aV130
p936
aV46
p937
aV21
p938
aV145
p939
aV146
p940
aV327
p941
aV103
p942
aV235
p943
aV234
p944
aV19
p945
aV42
p946
aV34
p947
aV159
p948
aV197
p949
aV224
p950
aV20
p951
aV105
p952
aV21
p953
aV215
p954
aV93
p955
aV92
p956
aV49
p957
aV93
p958
aV35
p959
aV39
p960
aV36
p961
aV37
p962
aV38
p963
aV40
p964
aV41
p965
aV210
p966
aV203
p967
aV278
p968
aV216
p969
aV97
p970
aV138
p971
aV19
p972
aV89
p973
aV65
p974
ag662
aV97
p975
aV35
p976
aV161
p977
aV381
p978
aV240
p979
aV19
p980
aV88
p981
aV56
p982
aV231
p983
aV72
p984
aV38
p985
aV17
p986
aV99
p987
aV73
p988
aV75
p989
aV157
p990
aV260
p991
aV81
p992
aV82
p993
aV33
p994
aV195
p995
aV30
p996
aV102
p997
as.