(dp0
S'rares'
p1
(lp2
VRare
p3
aVUncommon
p4
aVCommon
p5
aVCommon
p6
aVCommon
p7
aVRare
p8
aVCommon
p9
aVRare
p10
aVCommon
p11
aVCommon
p12
aVCommon
p13
aVCommon
p14
aVRare
p15
aVUncommon
p16
aVUncommon
p17
aVRare
p18
aVUncommon
p19
aVCommon
p20
aVCommon
p21
aVRare
p22
aVUncommon
p23
aVUncommon
p24
aVCommon
p25
aVCommon
p26
aVCommon
p27
aVUncommon
p28
aVRare
p29
aVCommon
p30
aVMythic Rare
p31
aVUncommon
p32
aVCommon
p33
aVUncommon
p34
aVRare
p35
aVCommon
p36
aVCommon
p37
aVCommon
p38
aVUncommon
p39
aVUncommon
p40
aVUncommon
p41
aVRare
p42
aVRare
p43
aVRare
p44
aVRare
p45
aVRare
p46
aVCommon
p47
aVUncommon
p48
aVRare
p49
aVRare
p50
aVCommon
p51
aVCommon
p52
aVRare
p53
aVCommon
p54
aVRare
p55
aVRare
p56
aVUncommon
p57
aVCommon
p58
aVRare
p59
aVUncommon
p60
aVUncommon
p61
aVUncommon
p62
aVCommon
p63
aVUncommon
p64
aVUncommon
p65
aVCommon
p66
aVRare
p67
aVUncommon
p68
aVCommon
p69
aVCommon
p70
aVRare
p71
asS'editns'
p72
(lp73
VMagic: The Gathering-Commander
p74
aVMagic: The Gathering-Commander
p75
aVMagic: The Gathering-Commander
p76
aVBattle Royale Box Set
p77
aVBattle Royale Box Set
p78
aVFourth Edition
p79
aVPlanar Chaos
p80
aVCommander's Arsenal
p81
aVDuel Decks: Ajani vs. Nicol Bolas
p82
aVDuel Decks: Ajani vs. Nicol Bolas
p83
aVScars of Mirrodin
p84
aVScars of Mirrodin
p85
aVMagic 2014 Core Set
p86
aVTenth Edition
p87
aVTenth Edition
p88
aVVintage Masters
p89
aVVintage Masters
p90
aVModern Masters
p91
aVModern Masters
p92
aVApocalypse
p93
aVApocalypse
p94
aVEventide
p95
aVConflux
p96
aVOnslaught
p97
aVOnslaught
p98
aVOnslaught
p99
aVOnslaught
p100
aVOnslaught
p101
aVCommander 2013 Edition
p102
aVOdyssey
p103
aVOdyssey
p104
aVReturn to Ravnica
p105
aVGatecrash
p106
aVGatecrash
p107
aVGatecrash
p108
aVClassic Sixth Edition
p109
aVMirrodin
p110
aVMirrodin
p111
aVDuel Decks: Elspeth vs. Tezzeret
p112
aVDarksteel
p113
aVJudgment
p114
aVShadowmoor
p115
aVStarter 1999
p116
aVStarter 1999
p117
aVFifth Dawn
p118
aVFifth Dawn
p119
aVPortal Second Age
p120
aVPortal Second Age
p121
aVPlanechase
p122
aVPlanechase
p123
aVLegions
p124
aVUrza's Saga
p125
aVMasters Edition
p126
aVTheros
p127
aVWeatherlight
p128
aVMagic: The Gathering\u2014Conspiracy
p129
aVFifth Edition
p130
aVArchenemy
p131
aVArchenemy
p132
aVMasters Edition IV
p133
aVMasters Edition IV
p134
aVLegends
p135
aVLegends
p136
aVLegends
p137
aVLorwyn
p138
aVLorwyn
p139
aVMagic 2011
p140
aVPortal
p141
aVPortal
p142
asS'ids'
p143
(lp144
V247354
p145
aV233218
p146
aV247355
p147
aV21101
p148
aV21152
p149
aV2240
p150
aV124044
p151
aV338456
p152
aV249392
p153
aV249399
p154
aV207857
p155
aV209052
p156
aV370752
p157
aV130513
p158
aV135215
p159
aV383120
p160
aV383121
p161
aV370474
p162
aV370372
p163
aV27160
p164
aV27666
p165
aV153447
p166
aV179523
p167
aV32216
p168
aV39825
p169
aV39924
p170
aV39925
p171
aV39468
p172
aV376539
p173
aV29790
p174
aV29832
p175
aV270369
p176
aV366282
p177
aV366387
p178
aV366243
p179
aV15380
p180
aV46719
p181
aV49529
p182
aV226712
p183
aV49021
p184
aV35062
p185
aV147377
p186
aV20218
p187
aV20217
p188
aV51125
p189
aV73929
p190
aV6635
p191
aV8905
p192
aV205374
p193
aV205375
p194
aV42026
p195
aV5632
p196
aV159317
p197
aV373624
p198
aV4529
p199
aV382381
p200
aV4012
p201
aV220538
p202
aV220531
p203
aV221548
p204
aV202579
p205
aV1548
p206
aV1547
p207
aV1458
p208
aV140172
p209
aV146601
p210
aV204976
p211
aV4277
p212
aV4320
p213
asS'texts'
p214
(lp215
VWhen Symbiotic Wurm dies, put seven 1/1 green Insect creature tokens onto the battlefield.
p216
aVEach other player sacrifices a creature. You put a 2/2 black Zombie creature token onto the battlefield for each creature sacrificed this way.
p217
aVEach other player discards a card. You draw a card for each card discarded this way.
p218
aVTwo target creatures each get +2/+2 until end of turn.
p219
aVDestroy all enchantments.
p220
aVEach noncreature artifact loses all abilities and becomes an artifact creature with power and toughness each equal to its converted mana cost. If Titania's Song leaves the battlefield, this effect continues until end of turn.
p221
aVAll Sliver creatures have vigilance.
p222
aVAt the beginning of your draw step, you may draw two additional cards. If you do, choose two cards in your hand drawn this turn. For each of those cards, pay 4 life or put the card on top of your library.
p223
aVTarget player gains 8 life.<br>Basic landcycling {1}{G} <i>({1}{G}, Discard this card: Search your library for a basic land card, reveal it, and put it into your hand. Then shuffle your library.)</i>
p224
aVWhen Sylvan Ranger enters the battlefield, you may search your library for a basic land card, reveal it, put it into your hand, then shuffle your library.
p225
aV{T}, Sacrifice an artifact: Proliferate. <i>(You choose any number of permanents and/or players with counters on them, then give each another counter of a kind already there.)</i>
p226
aVFlying<br>Whenever Thrummingbird deals combat damage to a player, proliferate. <i>(You choose any number of permanents and/or players with counters on them, then give each another counter of a kind already there.)</i>
p227
aVEnchant creature<br>Enchanted creature gets +2/+2 and has "{1}{G}: Regenerate this creature." <i>(The next time the creature would be destroyed this turn, it isn't. Instead tap it, remove all damage from it, and remove it from combat.)</i>
p228
aVEnchant creature <i>(Target a creature as you cast this. This card enters the battlefield attached to that creature.)</i><br>Enchanted creature gets +2/+2 and has "{T}: This creature deals 1 damage to target creature or player."
p229
aVWhen Treasure Hunter enters the battlefield, you may return target artifact card from your graveyard to your hand.
p230
aVWhen Teroh's Faithful enters the battlefield, you gain 4 life.
p231
aVDiscard a card: Thalakos Drifters gains shadow until end of turn. <i>(This creature can block or be blocked by only creatures with shadow.)</i>
p232
aVTarget player loses 2 life and you gain 2 life.<br>Retrace <i>(You may cast this card from your graveyard by discarding a land card in addition to paying its other costs.)</i>
p233
aVTarget player gains 8 life.<br>Basic landcycling {1}{G} <i>({1}{G}, Discard this card: Search your library for a basic land card, reveal it, and put it into your hand. Then shuffle your library.)</i>
p234
aVSkip your draw step.<br><br>{1}, Tap two untapped creatures you control: Draw a card.
p235
aVTrample<br>When Sylvan Messenger enters the battlefield, reveal the top four cards of your library. Put all Elf cards revealed this way into your hand and the rest on the bottom of your library in any order.
p236
aVTarget player loses 2 life and you gain 2 life.<br>Retrace <i>(You may cast this card from your graveyard by discarding a land card in addition to paying its other costs.)</i>
p237
aV{G}: Thornling gains haste until end of turn.<br>{G}: Thornling gains trample until end of turn.<br>{G}: Thornling is indestructible this turn.<br>{1}: Thornling gets +1/-1 until end of turn.<br>{1}: Thornling gets -1/+1 until end of turn.
p238
aVWhen Symbiotic Elf dies, put two 1/1 green Insect creature tokens onto the battlefield.
p239
aVEach other player discards a card. You draw a card for each card discarded this way.
p240
aVWhen Symbiotic Beast dies, put four 1/1 green Insect creature tokens onto the battlefield.
p241
aVWhen Symbiotic Wurm dies, put seven 1/1 green Insect creature tokens onto the battlefield.
p242
aVUntap target creature and gain control of it until end of turn. That creature gains haste until end of turn. <i>(It can attack and {T} this turn.)</i>
p243
aV{U}: Target noncreature artifact becomes an artifact creature with power and toughness each equal to its converted mana cost until end of turn.<br>{W}{B}: Target artifact creature gains deathtouch and lifelink until end of turn.
p244
aVEnchant creature<br>Enchanted creature gets +2/+2.<br>Threshold- As long as seven or more cards are in your graveyard, all creatures able to block enchanted creature do so.
p245
aV{T}, Exile any number of cards from your graveyard: Target creature gets -X/-X until end of turn, where X is the number of cards exiled this way.
p246
aV<i>({T}: Add {G} or {W} to your mana pool.)</i><br>As Temple Garden enters the battlefield, you may pay 2 life. If you don't, Temple Garden enters the battlefield tapped.
p247
aVExtort <i>(Whenever you cast a spell, you may pay {W/B}. If you do, each opponent loses 1 life and you gain that much life.)</i>
p248
aV{T}: Add {1} to your mana pool.<br>{2}, {T}: Thespian's Stage becomes a copy of target land and gains this ability.
p249
aVExtort <i>(Whenever you cast a spell, you may pay {W/B}. If you do, each opponent loses 1 life and you gain that much life.)</i><br>{T}, Pay 2 life: Remove a counter from target nonland permanent.
p250
aVDry Spell deals 1 damage to each creature and each player.
p251
aV{2}, {T}: Exile target permanent you control.<br>{2}, Sacrifice Synod Sanctum: Return all cards exiled with Synod Sanctum to the battlefield under your control.
p252
aVDestroy target nonartifact, nonblack creature. It can't be regenerated.
p253
aV+1: Untap up to two target artifacts.<br>-X: Search your library for an artifact card with converted mana cost X or less and put it onto the battlefield. Then shuffle your library.<br>-5: Artifacts you control become 5/5 artifact creatures until end of turn.
p254
aV{X}, {T}: Tap X target noncreature artifacts.<br>{X}, {T}: Untap X target noncreature artifacts.
p255
aVSacrifice a land: Target creature you control gains shroud until end of turn. <i>(It can't be the target of spells or abilities.)</i>
p256
aVWhen Wort, the Raidmother enters the battlefield, put two 1/1 red and green Goblin Warrior creature tokens onto the battlefield.<br>Each red or green instant or sorcery spell you cast has conspire. <i>(As you cast the spell, you may tap two untapped creatures you control that share a color with it. When you do, copy it and you may choose new targets for the copy.)</i>
p257
aS''
p258
ag258
aV{T}: Add to your mana pool one mana of any color that a land an opponent controls could produce.
p259
aVBattered Golem doesn't untap during your untap step.<br>Whenever an artifact enters the battlefield, you may untap Battered Golem.
p260
aVTarget opponent reveals his or her hand. You choose a card from it. That player discards that card.
p261
ag258
aVEach other player discards a card. You draw a card for each card discarded this way.
p262
aVSyphon Soul deals 2 damage to each other player. You gain life equal to the damage dealt this way.
p263
aVWhenever a Sliver deals combat damage to a player, its controller may draw a card.
p264
aVHaste <i>(This creature can attack and {T} as soon as it comes under your control.)</i>
p265
aVAt the beginning of your draw step, you may draw two additional cards. If you do, choose two cards in your hand drawn this turn. For each of those cards, pay 4 life or put the card on top of your library.
p266
aVIndestructible<br>As long as your devotion to blue is less than five, Thassa isn't a creature. <i>(Each {U} in the mana costs of permanents you control counts toward your devotion to blue.)</i><br>At the beginning of your upkeep, scry 1.<br>{1}{U}: Target creature you control can't be blocked this turn.
p267
aVWhen Sylvan Hierophant dies, exile Sylvan Hierophant, then return another target creature card from your graveyard to your hand.
p268
aVEnchant creature<br>As Traveler's Cloak enters the battlefield, choose a land type.<br>When Traveler's Cloak enters the battlefield, draw a card.<br>Enchanted creature has landwalk of the chosen type.
p269
aVYou may tap or untap target artifact, creature, or land.
p270
aVWhen you control no other artifacts, sacrifice Synod Centurion.
p271
aV{2}, {T}: Exile target permanent you control.<br>{2}, Sacrifice Synod Sanctum: Return all cards exiled with Synod Sanctum to the battlefield under your control.
p272
aVFlying<br>When Thunder Dragon enters the battlefield, it deals 3 damage to each creature without flying.
p273
aVTime Vault enters the battlefield tapped.<br>Time Vault doesn't untap during your untap step.<br>If you would begin your turn while Time Vault is tapped, you may skip that turn instead. If you do, untap Time Vault.<br>{T}: Take an extra turn after this one.
p274
aVYou may choose not to untap Willow Satyr during your untap step.<br>{T}: Gain control of target legendary creature for as long as you control Willow Satyr and Willow Satyr remains tapped.
p275
aVDefender <i>(This creature can't attack.)</i><br>Whenever Wall of Dust blocks a creature, that creature can't attack during its controller's next turn.
p276
aVDefender <i>(This creature can't attack.)</i>
p277
aVIslandwalk<br>{1}{W}: Target Merfolk you control gains protection from the color of your choice until end of turn.
p278
aVPut a +1/+1 counter on target creature, two +1/+1 counters on another target creature, and three +1/+1 counters on a third target creature.
p279
aVSacrifice a creature: Scry 1. <i>(To scry 1, look at the top card of your library, then you may put that card on the bottom of your library.)</i>
p280
aVWhenever Thing from the Deep attacks, sacrifice it unless you sacrifice an Island.
p281
aVForestwalk
p282
asS'costs'
p283
(lp284
V{2}{R}{R}
p285
aV{5}{G}{G}{G}
p286
aV{4}{B}
p287
aV{1}{G}
p288
aV{2}{B}
p289
aV{1}{G}
p290
aV{4}{U}
p291
aV{1}{G}
p292
aV{3}{U}
p293
aV{1}{U}
p294
aV{1}{W}
p295
aV{3}
p296
aV{2}{W}
p297
aV{1}{G}
p298
aV{3}{G}{G}
p299
aV{1}{G}
p300
aV{W}
p301
aV{1}{B}{B}
p302
aV{W}
p303
aV{2}{G}
p304
aV{3}{G}
p305
aV{1}{B}{B}
p306
aV{3}{B}{R}
p307
aV{3}{G}
p308
aV{3}{B}
p309
aV{4}{G}{G}
p310
aV{5}{G}{G}{G}
p311
aV{2}{B}
p312
aV{W}{U}{B}
p313
aV{1}{G}
p314
aV{X}{U}
p315
aV{W}
p316
aV{5}{R}
p317
aV{R}{W}
p318
aV{5}{G}{G}
p319
aV{2}{B}
p320
aV{1}
p321
aV{1}{G}
p322
aV{W}
p323
aV{2}{U}
p324
aV{G}
p325
aV{U/B}{U/B}
p326
aV{3}{G}{G}
p327
aV{2}{G}{G}
p328
aV{1}{G}
p329
aV{4}
p330
aV{2}{G}{G}
p331
aV{3}{G}{G}
p332
aV{3}{B}
p333
aV{2}{B}
p334
aV{4}{U}
p335
aV{1}{G}
p336
aV{1}{G}
p337
aV{1}{U}
p338
aV{1}{G}
p339
aV{W}
p340
aV{1}{G}
p341
aV{4}
p342
aV{1}
p343
aV{G}
p344
aV{2}{U}
p345
aV{G}
p346
aV{1}{G}
p347
aV{2}{B}
p348
aV{W}{U}
p349
aV{3}{G}
p350
aV{5}
p351
aV{2}{U}
p352
aV{G}
p353
asS'names'
p354
(lp355
VSymbiotic Wurm
p356
aVSyphon Flesh
p357
aVSyphon Mind
p358
aVSymbiosis
p359
aVSyphon Soul
p360
aVSylvan Library
p361
aVSynchronous Sliver
p362
aVSylvan Library
p363
aVSylvan Bounty
p364
aVSylvan Ranger
p365
aVSylvok Lifestaff
p366
aVSylvok Replica
p367
aVSyphon Sliver
p368
aVSylvan Scrying
p369
aVSylvan Basilisk
p370
aVSylvan Library
p371
aVSymbiotic Wurm
p372
aVSyphon Life
p373
aVSylvan Bounty
p374
aVSymbiotic Deployment
p375
aVSylvan Messenger
p376
aVSyphon Life
p377
aVSylvan Bounty
p378
aVSymbiotic Elf
p379
aVSyphon Mind
p380
aVSymbiotic Beast
p381
aVSymbiotic Wurm
p382
aVSyphon Soul
p383
aVSydri, Galvanic Genius
p384
aVSylvan Might
p385
aVSyncopate
p386
aVSyncopate
p387
aVSylvan Primordial
p388
aVSyndic of Tithes
p389
aVSyndicate Enforcer
p390
aVSyphon Soul
p391
aVSynod Sanctum
p392
aVSylvan Scrying
p393
aVSynod Centurion
p394
aVSynod Artificer
p395
aVSylvan Safekeeper
p396
aVSygg, River Cutthroat
p397
aVSylvan Basilisk
p398
aVSylvan Yeti
p399
aVSylvok Explorer
p400
aVSynod Centurion
p401
aVSylvan Yeti
p402
aVSylvan Basilisk
p403
aVSyphon Mind
p404
aVSyphon Soul
p405
aVSynapse Sliver
p406
aVSymbiosis
p407
aVSylvan Library
p408
aVSylvan Caryatid
p409
aVSylvan Hierophant
p410
aVSyphon Soul
p411
aVSylvan Library
p412
aVSynod Centurion
p413
aVSynod Sanctum
p414
aVSylvan Tutor
p415
aVSymbol of Unsummoning
p416
aVSylvan Paradise
p417
aVSylvan Library
p418
aVSyphon Soul
p419
aVSygg, River Guide
p420
aVSylvan Echoes
p421
aVSylvan Ranger
p422
aVSymbol of Unsummoning
p423
aVSylvan Tutor
p424
asS'toughs'
p425
(lp426
V7
p427
aS'N/A'
p428
ag428
ag428
ag428
ag428
aV3
p429
ag428
ag428
ag429
ag428
ag428
aV2
p430
ag428
ag429
ag428
aV1
p431
ag428
ag428
ag428
ag431
ag428
ag428
aV4
p432
ag428
ag431
ag432
ag428
aV6
p433
ag428
ag428
ag428
ag429
ag431
ag431
ag428
ag428
ag428
ag428
ag432
ag431
ag433
ag432
aV*
p434
ag432
ag428
ag432
ag432
ag428
ag428
ag429
ag428
ag428
aV5
p435
aV1+*
p436
ag428
ag428
ag428
ag428
ag428
ag428
ag428
ag428
ag428
ag430
ag428
ag432
ag428
ag428
asS'artists'
p437
(lp438
VMatt Cavotta
p439
aVIronbrush
p440
aVJeff Easley
p441
aVJeff Miracola
p442
aVMelissa A. Benson
p443
aVHarold McNeill
p444
aVE. M. Gist
p445
aVYeong-Hao Han
p446
aVChris Rahn
p447
aVChristopher Moeller
p448
aVMartina Pilcerova
p449
aVZoltan Boros & Gabor Szikszai
p450
aVTyler Jacobson
p451
aVScott M. Fischer
p452
aVSteven Belledin
p453
aVYeong-Hao Han
p454
aVMatt Cavotta
p455
ag258
ag258
aVKev Walker
p456
aVHeather Hudson
p457
aVDan Seagrave
p458
aVChris Rahn
p459
aVWayne England
p460
aVJeff Easley
p461
aVFranz Vohwinkel
p462
aVMatt Cavotta
p463
aVRon Spears
p464
aVTerese Nielsen
p465
aVArnie Swekel
p466
aVPete Venters
p467
aVClint Cearley
p468
aVStephan Martiniere
p469
aVSteve Prescott
p470
aVSteven Belledin
p471
aVMelissa A. Benson
p472
aVDana Knutson
p473
aVScott M. Fischer
p474
aVKev Walker
p475
aVMark Zug
p476
aVPete Venters
p477
aVJeremy Enecio
p478
aVRon Spencer
p479
aVBrom
p480
aVWayne England
p481
aVKev Walker
p482
aVBrom
p483
aVRon Spencer
p484
aVJeff Easley
p485
aVRon Spears
p486
aVThomas M. Baxa
p487
aVJeff Miracola
p488
aVHarold McNeill
p489
aVChase Stone
p490
aVBrian Durfee
p491
aVRon Spears
p492
aVHarold McNeill
p493
aVKev Walker
p494
aVDana Knutson
p495
aVKaja Foglio
p496
aVAdam Rex
p497
aVRandy Asplund-Faith
p498
aVHarold McNeill
p499
aVMelissa Benson
p500
aVLarry MacDougall
p501
aVRebecca Guay
p502
aVChristopher Moeller
p503
aVAdam Rex
p504
aVKaja Foglio
p505
asS'powers'
p506
(lp507
g435
ag428
ag428
ag428
ag428
ag428
ag429
ag428
ag428
ag431
ag428
ag428
ag431
ag428
ag431
ag428
ag430
ag428
ag428
ag428
ag430
ag428
ag428
ag432
ag428
ag431
ag432
ag428
ag433
ag428
ag428
ag428
ag431
ag430
ag433
ag428
ag428
ag428
ag428
ag430
ag431
ag433
ag430
ag434
aV0
p508
ag428
ag434
ag430
ag428
ag428
ag429
ag428
ag428
ag433
aV1+*
p509
ag428
ag428
ag428
ag428
ag428
ag428
ag428
ag428
ag428
ag430
ag428
ag431
ag428
ag428
asS'types'
p510
(lp511
VCreature - Wurm
p512
aVSorcery
p513
aVSorcery
p514
aVInstant
p515
aVSorcery
p516
aVEnchantment
p517
aVCreature - Sliver
p518
aVEnchantment
p519
aVInstant
p520
aVCreature - Elf Scout
p521
aVArtifact - Equipment
p522
aVArtifact Creature - Shaman
p523
aVCreature - Sliver
p524
aVSorcery
p525
aVCreature - Basilisk
p526
aVEnchantment
p527
aVCreature - Wurm
p528
aVSorcery
p529
aVInstant
p530
aVEnchantment
p531
aVCreature - Elf
p532
aVSorcery
p533
aVInstant
p534
aVCreature - Elf
p535
aVSorcery
p536
aVCreature - Insect Beast
p537
aVCreature - Wurm
p538
aVSorcery
p539
aVLegendary Creature - Human Artificer
p540
aVInstant
p541
aVInstant
p542
aVInstant
p543
aVCreature - Avatar
p544
aVCreature - Human Cleric
p545
aVCreature - Human Rogue
p546
aVSorcery
p547
aVArtifact
p548
aVSorcery
p549
aVArtifact Creature - Construct
p550
aVCreature - Vedalken Artificer
p551
aVCreature - Human Wizard
p552
aVLegendary Creature - Merfolk Rogue
p553
aVCreature - Basilisk
p554
aVCreature - Yeti
p555
aVCreature - Human Druid
p556
aVArtifact Creature - Construct
p557
aVCreature - Yeti
p558
aVCreature - Basilisk
p559
aVSorcery
p560
aVSorcery
p561
aVCreature - Sliver
p562
aVInstant
p563
aVEnchantment
p564
aVCreature - Plant
p565
aVCreature - Human Cleric
p566
aVSorcery
p567
aVEnchantment
p568
aVArtifact Creature - Construct
p569
aVArtifact
p570
aVSorcery
p571
aVSorcery
p572
aVInstant
p573
aVEnchantment
p574
aVSorcery
p575
aVLegendary Creature - Merfolk Wizard
p576
aVEnchantment
p577
aVCreature - Elf Scout
p578
aVSorcery
p579
aVSorcery
p580
asS'numbers'
p581
(lp582
V174
p583
aV103
p584
aV104
p585
ag432
aV130
p586
aV90
p587
aV48
p588
aV17
p589
aV30
p590
aV8
p591
aV209
p592
aV210
p593
aV117
p594
aV302
p595
aV301
p596
aV235
p597
aV236
p598
ag258
ag258
aV88
p599
aV87
p600
aV46
p601
aV94
p602
aV288
p603
aV175
p604
aV287
p605
aV289
p606
aV176
p607
aV220
p608
aV277
p609
aV103
p610
aV54
p611
aV136
p612
aV26
p613
aV80
p614
aV159
p615
aV252
p616
aV130
p617
aV53
p618
aV34
p619
aV133
p620
aV176
p621
aV145
p622
aV146
p623
aV93
p624
aV161
p625
aV83
p626
aV151
p627
aV42
p628
aV43
p629
aV53
p630
aV275
p631
aV133
p632
aV180
p633
aV75
p634
aV127
p635
aV407
p636
aV119
p637
aV120
p638
aV169
p639
aV65
p640
aV78
p641
aV282
p642
aV283
p643
aV251
p644
aV237
p645
aV198
p646
aV41
p647
aV52
p648
as.