(dp0
S'rares'
p1
(lp2
VRare
p3
aVRare
p4
asS'editns'
p5
(lp6
VMagic: The Gathering-Commander
p7
aVRavnica: City of Guilds
p8
asS'ids'
p9
(lp10
V247390
p11
aV89092
p12
asS'texts'
p13
(lp14
VFlying<br>If Szadek, Lord of Secrets would deal combat damage to a player, instead put that many +1/+1 counters on Szadek and that player puts that many cards from the top of his or her library into his or her graveyard.
p15
aVFlying<br>{U}: Cerulean Sphinx's owner shuffles it into his or her library.
p16
asS'costs'
p17
(lp18
V{3}{B}
p19
aV{3}{U}{U}{B}{B}
p20
asS'names'
p21
(lp22
VSzadek, Lord of Secrets
p23
aVSzadek, Lord of Secrets
p24
asS'toughs'
p25
(lp26
V5
p27
aV*
p28
asS'artists'
p29
(lp30
VDonato Giancola
p31
aVDonato Giancola
p32
asS'powers'
p33
(lp34
V4
p35
ag28
asS'types'
p36
(lp37
VLegendary Creature - Vampire
p38
aVLegendary Creature - Vampire
p39
asS'numbers'
p40
(lp41
V228
p42
aV234
p43
as.