(dp0
S'rares'
p1
(lp2
VCommon
p3
aVRare
p4
aVCommon
p5
aVRare
p6
aVCommon
p7
aVUncommon
p8
aVUncommon
p9
aVRare
p10
aVRare
p11
aVRare
p12
aVCommon
p13
aVCommon
p14
aVRare
p15
aVRare
p16
aVUncommon
p17
aVRare
p18
aVRare
p19
aVUncommon
p20
aVMythic Rare
p21
aVRare
p22
aVCommon
p23
aVRare
p24
aVUncommon
p25
aVUncommon
p26
aVUncommon
p27
aVRare
p28
aVCommon
p29
aVUncommon
p30
aVCommon
p31
aVUncommon
p32
aVCommon
p33
aVCommon
p34
aVUncommon
p35
aVCommon
p36
aVUncommon
p37
aVUncommon
p38
aVCommon
p39
aVRare
p40
aVRare
p41
aVCommon
p42
aVCommon
p43
aVCommon
p44
aVRare
p45
aVRare
p46
aVUncommon
p47
aVRare
p48
aVRare
p49
aVRare
p50
aVCommon
p51
aVCommon
p52
aVCommon
p53
aVCommon
p54
aVCommon
p55
aVUncommon
p56
aVCommon
p57
aVUncommon
p58
aVCommon
p59
aVRare
p60
aVCommon
p61
aVCommon
p62
aVRare
p63
aVRare
p64
aVRare
p65
aVRare
p66
aVCommon
p67
aVRare
p68
aVUncommon
p69
aVUncommon
p70
aVCommon
p71
aVCommon
p72
aVCommon
p73
aVUncommon
p74
aVCommon
p75
aVCommon
p76
aVCommon
p77
aVCommon
p78
aVUncommon
p79
aVUncommon
p80
aVCommon
p81
aVUncommon
p82
aVRare
p83
aVCommon
p84
aVCommon
p85
aVRare
p86
aVCommon
p87
aVRare
p88
aVUncommon
p89
aVCommon
p90
aVCommon
p91
aVRare
p92
aVRare
p93
aVUncommon
p94
aVRare
p95
aVUncommon
p96
aVRare
p97
aVCommon
p98
aVRare
p99
aVUncommon
p100
aVUncommon
p101
aVCommon
p102
aVRare
p103
aVRare
p104
aVCommon
p105
aVCommon
p106
aVCommon
p107
aVUncommon
p108
aVUncommon
p109
aVCommon
p110
aVCommon
p111
aVUncommon
p112
aVUncommon
p113
aVCommon
p114
aVCommon
p115
aVCommon
p116
aVUncommon
p117
aVUncommon
p118
aVCommon
p119
aVRare
p120
aVRare
p121
aVCommon
p122
aVCommon
p123
aVUncommon
p124
aVCommon
p125
aVCommon
p126
aVUncommon
p127
aVUncommon
p128
aVUncommon
p129
aVUncommon
p130
aVUncommon
p131
aVCommon
p132
aVCommon
p133
aVCommon
p134
aVSpecial
p135
aVCommon
p136
aVCommon
p137
aVRare
p138
aVUncommon
p139
asS'editns'
p140
(lp141
VMagic 2012
p142
aVSaviors of Kamigawa
p143
aVSaviors of Kamigawa
p144
aVMagic 2013
p145
aVMagic 2013
p146
aVMagic 2013
p147
aVMagic 2013
p148
aVPlanar Chaos
p149
aVAlliances
p150
aVScars of Mirrodin
p151
aVMagic 2010
p152
aVMagic 2014 Core Set
p153
aVTempest
p154
aVTempest
p155
aVMercadian Masques
p156
aVMercadian Masques
p157
aVMercadian Masques
p158
aVMercadian Masques
p159
aVVintage Masters
p160
aVModern Masters
p161
aVModern Masters
p162
aVModern Masters
p163
aVThe Dark
p164
aVThe Dark
p165
aVFallen Empires
p166
aVFallen Empires
p167
aVMasters Edition III
p168
aVMasters Edition III
p169
aVMasters Edition III
p170
aVGuildpact
p171
aVGuildpact
p172
aVConflux
p173
aVAvacyn Restored
p174
aVPlanechase 2012 Edition
p175
aVDuel Decks: Sorin vs. Tibalt
p176
aVOnslaught
p177
aVBetrayers of Kamigawa
p178
aVBetrayers of Kamigawa
p179
aVBetrayers of Kamigawa
p180
aVBetrayers of Kamigawa
p181
aVUrza's Destiny
p182
aVRavnica: City of Guilds
p183
aVRavnica: City of Guilds
p184
aVCommander 2013 Edition
p185
aVCommander 2013 Edition
p186
aVCommander 2013 Edition
p187
aVCommander 2013 Edition
p188
aVOdyssey
p189
aVOdyssey
p190
aVTime Spiral
p191
aVReturn to Ravnica
p192
aVReturn to Ravnica
p193
aVGatecrash
p194
aVGatecrash
p195
aVGatecrash
p196
aVIce Age
p197
aVIce Age
p198
aVIce Age
p199
aVIce Age
p200
aVZendikar
p201
aVMirrodin
p202
aVMirrodin
p203
aVMirrodin
p204
aVMirrodin
p205
aVMirrodin
p206
aVMirrodin
p207
aVShards of Alara
p208
aVShards of Alara
p209
aVShards of Alara
p210
aVSeventh Edition
p211
aVMagic 2015 Core Set
p212
aVMagic 2015 Core Set
p213
aVRise of the Eldrazi
p214
aVJudgment
p215
aVShadowmoor
p216
aVShadowmoor
p217
aVShadowmoor
p218
aVShadowmoor
p219
aVShadowmoor
p220
aVNew Phyrexia
p221
aVNew Phyrexia
p222
aVNew Phyrexia
p223
aVStarter 1999
p224
aVFifth Dawn
p225
aVScourge
p226
aVFuture Sight
p227
aVFuture Sight
p228
aVPortal Second Age
p229
aVPortal Second Age
p230
aVPlanechase
p231
aVLegions
p232
aVLegions
p233
aVDuel Decks: Venser vs. Koth
p234
aVUrza's Saga
p235
aVUrza's Saga
p236
aVUrza's Saga
p237
aVMasters Edition
p238
aVTheros
p239
aVWeatherlight
p240
aVWeatherlight
p241
aVWeatherlight
p242
aVWeatherlight
p243
aVMagic: The Gathering\u2014Conspiracy
p244
aVNemesis
p245
aVWorldwake
p246
aVChronicles
p247
aVChronicles
p248
aVChronicles
p249
aVInvasion
p250
aVInvasion
p251
aVJourney into Nyx
p252
aVFifth Edition
p253
aVFifth Edition
p254
aVArchenemy
p255
aVArchenemy
p256
aVKhans of Tarkir
p257
aVKhans of Tarkir
p258
aVMirage
p259
aVMirage
p260
aVInnistrad
p261
aVBeatdown Box Set
p262
aVDragon's Maze
p263
aVStronghold
p264
aVStronghold
p265
aVLegends
p266
aVLegends
p267
aVLegends
p268
aVLegends
p269
aVLegends
p270
aVMagic 2011
p271
aVHomelands
p272
aVHomelands
p273
aVTime Spiral "Timeshifted"
p274
aVPortal
p275
aVDark Ascension
p276
aVDark Ascension
p277
aVDark Ascension
p278
asS'ids'
p279
(lp280
V220122
p281
aV74492
p282
aV87342
p283
aV278197
p284
aV249668
p285
aV279989
p286
aV279713
p287
aV126810
p288
aV3151
p289
aV207864
p290
aV191598
p291
aV370706
p292
aV4633
p293
aV4854
p294
aV136516
p295
aV19762
p296
aV19769
p297
aV19877
p298
aV383133
p299
aV370432
p300
aV370558
p301
aV370539
p302
aV1724
p303
aV1725
p304
aV1869
p305
aV1870
p306
aV205870
p307
aV201238
p308
aV201157
p309
aV83739
p310
aV97218
p311
aV170956
p312
aV239989
p313
aV271174
p314
aV368511
p315
aV39741
p316
aV74113
p317
aV74431
p318
aV74447
p319
aV81990
p320
aV18287
p321
aV89004
p322
aV89110
p323
aV376556
p324
aV376557
p325
aV376558
p326
aV376559
p327
aV30690
p328
aV30691
p329
aV108907
p330
aV265400
p331
aV253608
p332
aV366433
p333
aV366404
p334
aV366355
p335
aV2595
p336
aV2656
p337
aV2657
p338
aV2491
p339
aV180423
p340
aV35464
p341
aV46730
p342
aV48122
p343
aV48155
p344
aV48401
p345
aV48914
p346
aV174924
p347
aV174999
p348
aV179432
p349
aV25558
p350
aV383416
p351
aV383417
p352
aV198175
p353
aV36416
p354
aV142053
p355
aV142070
p356
aV152075
p357
aV158751
p358
aV159410
p359
aV218082
p360
aV233069
p361
aV233081
p362
aV21033
p363
aV51161
p364
aV43530
p365
aV136041
p366
aV136047
p367
aV6494
p368
aV6527
p369
aV205333
p370
aV42038
p371
aV45124
p372
aV270858
p373
aV5659
p374
aV8883
p375
aV5834
p376
aV159833
p377
aV373541
p378
aV4444
p379
aV4501
p380
aV4502
p381
aV4503
p382
aV382383
p383
aV21268
p384
aV195307
p385
aV2882
p386
aV2883
p387
aV2793
p388
aV22974
p389
aV22991
p390
aV380520
p391
aV3882
p392
aV3883
p393
aV212590
p394
aV220547
p395
aV386700
p396
aV386701
p397
aV3318
p398
aV3470
p399
aV222186
p400
aV27264
p401
aV369032
p402
aV5195
p403
aV5257
p404
aV1462
p405
aV1692
p406
aV1693
p407
aV1705
p408
aV1691
p409
aV205000
p410
aV2933
p411
aV2932
p412
aV109716
p413
aV4283
p414
aV244702
p415
aV253429
p416
aV262665
p417
asS'texts'
p418
(lp419
VDefender <i>(This creature can't attack.)</i>
p420
aV{T}: Add {B} to your mana pool. Tomb of Urami deals 1 damage to you if you don't control an Ogre.<br>{2}{B}{B}, {T}, Sacrifice all lands you control: Put a legendary 5/5 black Demon Spirit creature token with flying named Urami onto the battlefield.
p421
aVVigilance <i>(Attacking doesn't cause this creature to tap.)</i><br>Soulshift 4 <i>(When this creature dies, you may return target Spirit card with converted mana cost 4 or less from your graveyard to your hand.)</i>
p422
aVWhen War Priest of Thune enters the battlefield, you may destroy target enchantment.
p423
aVExile target creature card from a graveyard. Put a 2/2 black Zombie creature token onto the battlefield.
p424
aVDeathtouch <i>(Any amount of damage this deals to a creature is enough to destroy it.)</i><br>When Acidic Slime enters the battlefield, destroy target artifact, enchantment, or land.
p425
aVW
p426
aV{R}: Untap Torchling.<br>{R}: Target creature blocks Torchling this turn if able.<br>{R}: Change the target of target spell that targets only Torchling.<br>{1}: Torchling gets +1/-1 until end of turn.<br>{1}: Torchling gets -1/+1 until end of turn.
p427
aVAs an additional cost to cast Undergrowth, you may pay {2}{R}.<br>Prevent all combat damage that would be dealt this turn. If its additional cost was paid, Undergrowth doesn't affect combat damage that would be dealt by red creatures.
p428
aVCreatures you control have double strike and lifelink.
p429
aVOther Soldier creatures you control get +1/+0.
p430
aVVolcanic Geyser deals X damage to target creature or player.
p431
aVWatchdog blocks each turn if able.<br>As long as Watchdog is untapped, all creatures attacking you get -1/-0.
p432
aVDefender <i>(This creature can't attack.)</i><br>Wall of Diffusion can block creatures with shadow as though Wall of Diffusion had shadow.
p433
aV{W}, {T}, Discard a card: Target player gains 3 life.
p434
aV{T}: Add {B} to your mana pool.<br><br>Sacrifice Skull of Ramos: Add {B} to your mana pool.
p435
aV{T}: Add {1} to your mana pool.<br><br>{3}, {T}, Sacrifice a land: Destroy target nonbasic land.
p436
aVDefender <i>(This creature can't attack.)</i><br>{T}: Target creature gets +0/+4 until end of turn.
p437
aVWill of the council- Starting with you, each player votes for death or torture. If death gets more votes, each opponent sacrifices a creature. If torture gets more votes or the vote is tied, each opponent loses 4 life.
p438
aVChoose one- Search your library for up to two creature cards, reveal them, put them into your hand, then shuffle your library; or put up to two creature cards from your hand onto the battlefield.<br>Entwine {2} <i>(Choose both if you pay the entwine cost.)</i>
p439
aVTorrent of Stone deals 4 damage to target creature.<br>Splice onto Arcane\u2014Sacrifice two Mountains. <i>(As you cast an Arcane spell, you may reveal this card from your hand and pay its splice cost. If you do, add this card's effects to that spell.)</i>
p440
aVFlying<br>Delve <i>(You may exile any number of cards from your graveyard as you cast this spell. It costs {1} less to cast for each card exiled this way.)</i>
p441
aV{T}, Sacrifice Tormod's Crypt: Exile all cards from target player's graveyard.
p442
aV{T}: Target creature can't be blocked by Walls this turn.
p443
aVAt the beginning of your upkeep, sacrifice Tourach's Chant unless you pay {B}.<br>Whenever a player puts a Forest onto the battlefield, Tourach's Chant deals 3 damage to that player unless he or she puts a -1/-1 counter on a creature he or she controls.
p444
aVEnchant land you control<br>Sacrifice a Thrull: Put three time counters on Tourach's Gate.<br>At the beginning of your upkeep, remove a time counter from Tourach's Gate. If there are no time counters on Tourach's Gate, sacrifice it.<br>Tap enchanted land: Attacking creatures you control get +2/-1 until end of turn. Activate this ability only if enchanted land is untapped.
p445
aV{T}: You may put a Faerie permanent card from your hand onto the battlefield.<br>{2}{G}: Target green creature gains protection from black until end of turn.
p446
aVYou may choose not to untap Willow Satyr during your untap step.<br>{T}: Gain control of target legendary creature for as long as you control Willow Satyr and Willow Satyr remains tapped.
p447
aV{G}{G}: Wormwood Treefolk gains forestwalk until end of turn and deals 2 damage to you.<br>{B}{B}: Wormwood Treefolk gains swampwalk until end of turn and deals 2 damage to you.
p448
aVFlying<br>When Angel of Despair enters the battlefield, destroy target permanent.
p449
aVTarget opponent reveals his or her hand. You choose a nonland card from it and exile that card.
p450
aVWhen Tukatongue Thallid dies, put a 1/1 green Saproling creature token onto the battlefield.
p451
aVEquipped creature gets +3/+0 and attacks each turn if able.<br>Equip {3}
p452
aVWhen Tukatongue Thallid dies, put a 1/1 green Saproling creature token onto the battlefield.
p453
aVReturn up to one target creature card from your graveyard to the battlefield if {B} was spent to cast Torrent of Souls. Creatures target player controls get +2/+0 and gain haste until end of turn if {R} was spent to cast Torrent of Souls. <i>(Do both if {B}{R} was spent.)</i>
p454
aVMorph {6}{G} <i>(You may cast this face down as a 2/2 creature for {3}. Turn it face up any time for its morph cost.)</i>
p455
aVYou may tap or untap target permanent, then you may tap or untap another target permanent.
p456
aVBushido 1 <i>(When this blocks or becomes blocked, it gets +1/+1 until end of turn.)</i><br>Whenever a creature an opponent controls dies, you may cast target instant card from your graveyard. If that card would be put into a graveyard this turn, exile it instead.
p457
aVNinjutsu {2}{U}{U} <i>({2}{U}{U}, Return an unblocked attacker you control to hand: Put this card onto the battlefield from your hand tapped and attacking.)</i><br>Whenever Higure, the Still Wind deals combat damage to a player, you may search your library for a Ninja card, reveal it, and put it into your hand. If you do, shuffle your library.<br>{2}: Target Ninja creature is unblockable this turn.
p458
aVEquipped creature has "{T}, Unattach Shuriken: Shuriken deals 2 damage to target creature. That creature's controller gains control of Shuriken unless it was unattached from a Ninja."<br>Equip {2} <i>({2}: Attach to target creature you control. Equip only as a sorcery.)</i>
p459
aVFlying
p460
aVPrevent all combat damage that would be dealt by target attacking or blocking creature this turn. If {R} was spent to cast Boros Fury-Shield, it deals damage to that creature's controller equal to the creature's power.
p461
aVWhenever you sacrifice a black creature, you may pay 2 life. If you do, each other player sacrifices a creature.<br>Whenever you sacrifice a green creature, you may gain 2 life.
p462
aVSacrifice two creatures: Put a 3/1 red Beast creature token named Carnivore onto the battlefield.
p463
aVFlying
p464
aV{8}, {T}: Draw four cards.
p465
aVAs an additional cost to cast Toxic Deluge, pay X life.<br>All creatures get -X/-X until end of turn.
p466
aVTarget creature is unblockable this turn.<br><br>Draw a card.
p467
aVAs an additional cost to cast Acceptable Losses, discard a card at random.<br>Acceptable Losses deals 5 damage to target creature.
p468
aVFlying<br>{U}, {T}, Discard a card: Return target permanent you control to its owner's hand.
p469
aVTransguild Promenade enters the battlefield tapped.<br>When Transguild Promenade enters the battlefield, sacrifice it unless you pay {1}.<br>{T}: Add one mana of any color to your mana pool.
p470
aVReturn target card from your graveyard to your hand. Exile Treasured Find.
p471
aV{W}: Towering Thunderfist gains vigilance until end of turn.
p472
aVExtort <i>(Whenever you cast a spell, you may pay {W/B}. If you do, each opponent loses 1 life and you gain that much life.)</i><br>Whenever Treasury Thrull attacks, you may return target artifact, creature, or enchantment card from your graveyard to your hand.
p473
aVVigilance<br>{R}{W}: Truefire Paladin gets +2/+0 until end of turn.<br>{R}{W}: Truefire Paladin gains first strike until end of turn.
p474
aVTarget creature is unblockable this turn.
p475
aVDefender <i>(This creature can't attack.)</i><br>{R}: Wall of Lava gets +1/+1 until end of turn.
p476
aV{T}: Add {U} or {1}{U} to your mana pool. Spend this mana only to pay cumulative upkeep costs.
p477
aVVertigo deals 2 damage to target creature with flying. That creature loses flying until end of turn.
p478
aVEquipped creature gets +2/+1.<br>Equip {2}
p479
aV{8}, {T}: Draw four cards.
p480
aV{8}, {T}: Target player puts the top eight cards of his or her library into his or her graveyard.
p481
aVChoose one- Search your library for up to two creature cards, reveal them, put them into your hand, then shuffle your library; or put up to two creature cards from your hand onto the battlefield.<br>Entwine {2} <i>(Choose both if you pay the entwine cost.)</i>
p482
aV{8}, {T}: Target creature gets +6/+6 until end of turn.
p483
aVFlash<br>Affinity for artifacts <i>(This spell costs {1} less to cast for each artifact you control.)</i><br>{T}: Target creature gets +1/+0 until end of turn.
p484
aVImprint- When Thought Prison enters the battlefield, you may have target player reveal his or her hand. If you do, choose a nonland card from it and exile that card.<br>Whenever a player casts a spell that shares a color or converted mana cost with the exiled card, Thought Prison deals 2 damage to that player.
p485
aVG
p486
aVWhenever you cast a spell, Manaplasm gets +X/+X until end of turn, where X is that spell's converted mana cost.
p487
ag486
aVTarget player draws four cards.
p488
aVTarget creature gets -3/-3 until end of turn. You lose 3 life.
p489
aVUndergrowth Scavenger enters the battlefield with a number of +1/+1 counters on it equal to the number of creature cards in all graveyards.
p490
aVHaste<br>When Tuktuk the Explorer dies, put a legendary 5/5 colorless Goblin Golem artifact creature token named Tuktuk the Returned onto the battlefield.
p491
aVTarget nonblack creature gets -1/-1 until end of turn.<br>Threshold- If seven or more cards are in your graveyard, instead destroy that creature. It can't be regenerated.
p492
aVRed creatures you control have first strike.
p493
aVWhenever Dusk Urchins attacks or blocks, put a -1/-1 counter on it.<br>When Dusk Urchins dies, draw a card for each -1/-1 counter on it.
p494
aV<i>({2/B} can be paid with any two mana or with {B}. This card's converted mana cost is 6.)</i><br>Search your library for a card with converted mana cost less than or equal to the number of lands you control, reveal it, and put it into your hand. Then shuffle your library.
p495
aVEnchant creature<br>As long as enchanted creature is black, it gets +1/+1 and has wither. <i>(It deals damage to creatures in the form of -1/-1 counters.)</i><br>As long as enchanted creature is red, it gets +1/+1 and has first strike.
p496
aVFlying<br>Whenever Goldenglow Moth blocks, you may gain 4 life.
p497
aVUntil end of turn, creatures you control get +1/+1 and gain trample and infect. <i>(Creatures with infect deal damage to creatures in the form of -1/-1 counters and to players in the form of poison counters.)</i>
p498
aVUntap all artifacts you control during each other player's untap step.
p499
aVCreatures you control have haste.<br>Creatures your opponents control enter the battlefield tapped.
p500
aS''
p501
aVWhen Tornado Elemental enters the battlefield, it deals 6 damage to each creature with flying.<br>You may have Tornado Elemental assign its combat damage as though it weren't blocked.
p502
aVTorrent of Fire deals damage equal to the highest converted mana cost among permanents you control to target creature or player.
p503
aVGhostfire is colorless.<br>Ghostfire deals 3 damage to target creature or player.
p504
aVPlay with the top card of your library revealed.<br>You may play the top card of your library.
p505
aVReach <i>(This creature can block creatures with flying.)</i>
p506
ag501
aVWhen Tornado Elemental enters the battlefield, it deals 6 damage to each creature with flying.<br>You may have Tornado Elemental assign its combat damage as though it weren't blocked.
p507
aVWhenever a Sliver deals combat damage to a creature, destroy that creature. It can't be regenerated.
p508
aVWhenever a Beast enters the battlefield, you may gain 3 life.
p509
aV{R}: Untap Torchling.<br>{R}: Target creature blocks Torchling this turn if able.<br>{R}: Change the target of target spell that targets only Torchling.<br>{1}: Torchling gets +1/-1 until end of turn.<br>{1}: Torchling gets -1/+1 until end of turn.
p510
aVAt the beginning of your upkeep, you may put a verse counter on Torch Song.<br>{2}{R}, Sacrifice Torch Song: Torch Song deals X damage to target creature or player, where X is the number of verse counters on Torch Song.
p511
aVAt the beginning of your upkeep, Bulwark deals X damage to target opponent, where X is the number of cards in your hand minus the number of cards in that player's hand.
p512
aVIf a source would deal damage to you, prevent 1 of that damage.
p513
aVCumulative upkeep {G} <i>(At the beginning of your upkeep, put an age counter on this permanent, then sacrifice it unless you pay its upkeep cost for each age counter on it.)</i><br>{2}{G}, Pay 3 life for each velocity counter on Tornado: Destroy target permanent and put a velocity counter on Tornado. Activate this ability only once each turn.
p514
aV{1}{R}, Sacrifice another creature: Tymaret, the Murder King deals 2 damage to target player.<br>{1}{B}, Sacrifice a creature: Return Tymaret from your graveyard to your hand.
p515
aV{T}: Tap target artifact you don't control.
p516
aVFlying<br>Phasing <i>(This phases in or out before you untap during each of your untap steps. While it's phased out, it's treated as though it doesn't exist.)</i>
p517
aVWhenever Tolarian Entrancer becomes blocked by a creature, gain control of that creature at end of combat.
p518
aVAt the beginning of your upkeep, put the top seven cards of your library into your graveyard.
p519
aVAttacking creatures get +2/+0 until end of turn.
p520
aVExile target creature with the greatest power. <i>(If two or more creatures are tied for greatest power, target any one of them.)</i>
p521
aVWhenever Tuktuk Scrapper or another Ally enters the battlefield under your control, you may destroy target artifact. If that artifact is put into a graveyard this way, Tuktuk Scrapper deals damage to that artifact's controller equal to the number of Allies you control.
p522
aVWhen Abu Ja'far dies, destroy all creatures blocking or blocked by it. They can't be regenerated.
p523
aV{T}: Add {1} to your mana pool. If you control an Urza's Power-Plant and an Urza's Tower, add {2} to your mana pool instead.
p524
aV{T}: Add {1} to your mana pool. If you control an Urza's Power-Plant and an Urza's Tower, add {2} to your mana pool instead.
p525
aVFlying<br>{W}: Tower Drake gets +0/+1 until end of turn.
p526
aVKicker {1}{W} <i>(You may pay an additional {1}{W} as you cast this spell.)</i><br>Flying<br>When Tolarian Emissary enters the battlefield, if it was kicked, destroy target enchantment.
p527
aVStrive- Twinflame costs {2}{R} more to cast for each target beyond the first.<br>Choose any number of target creatures you control. For each of them, put a token that's a copy of that creature onto the battlefield. Those tokens have haste. Exile them at the beginning of the next end step.
p528
aVEnchant creature<br>{1}{B}: Put a -1/-1 counter on enchanted creature.
p529
aVTouch of Death deals 1 damage to target player. You gain 1 life.<br><br>Draw a card at the beginning of the next turn's upkeep.
p530
aVWhen you set this scheme in motion, destroy up to three target nonland permanents.
p531
aVReturn up to one target creature card from your graveyard to the battlefield if {B} was spent to cast Torrent of Souls. Creatures target player controls get +2/+0 and gain haste until end of turn if {R} was spent to cast Torrent of Souls. <i>(Do both if {B}{R} was spent.)</i>
p532
aVTranquil Cove enters the battlefield tapped.<br>When Tranquil Cove enters the battlefield, you gain 1 life.<br>{T}: Add {W} or {U} to your mana pool.
p533
aVCounter target creature spell. Put two +1/+1 counters on up to one target creature.
p534
aVCumulative upkeep {1}{B} <i>(At the beginning of your upkeep, put an age counter on this permanent, then sacrifice it unless you pay its upkeep cost for each age counter on it.)</i><br>At the beginning of each upkeep, if Tombstone Stairwell is on the battlefield, each player puts a 2/2 black Zombie creature token with haste named Tombspawn onto the battlefield for each creature card in his or her graveyard.<br>At the beginning of each end step or when Tombstone Stairwell leaves the battlefield, destroy all tokens put onto the battlefield with Tombstone Stairwell. They can't be regenerated.
p535
aVTorrent of Lava deals X damage to each creature without flying.<br>As long as Torrent of Lava is on the stack, each creature has "{T}: Prevent the next 1 damage that would be dealt to this creature by Torrent of Lava this turn."
p536
aVWhenever equipped creature attacks, defending player reveals cards from the top of his or her library until he or she reveals a land card. The creature gets +1/+0 until end of turn for each card revealed this way. That player puts the revealed cards into his or her graveyard.<br>Equip {2}
p537
aVFlying<br><br>{U}: Put Wayward Soul on top of its owner's library.
p538
aVWhen Trostani's Summoner enters the battlefield, put a 2/2 white Knight creature token with vigilance, a 3/3 green Centaur creature token, and a 4/4 green Rhino creature token with trample onto the battlefield.
p539
aV{B}, Discard a creature card: Return target creature card from your graveyard to your hand.
p540
aVEnchant creature<br>Enchanted creature gets -3/-0.
p541
aV{B}: Regenerate Walking Dead.
p542
aV{T}: Add {U} to your mana pool.<br>{T}: Target creature loses banding and all "bands with other" abilities until end of turn. Activate this ability only during any upkeep step.
p543
aVBlack legendary creatures you control have "bands with other legendary creatures." <i>(Any legendary creatures can attack in a band as long as at least one has "bands with other legendary creatures." Bands are blocked as a group. If at least two legendary creatures you control, one of which has "bands with other legendary creatures," are blocking or being blocked by the same creature, you divide that creature's combat damage, not its controller, among any of the creatures it's being blocked by or is blocking.)</i>
p544
aVEnchant creature<br>Whenever enchanted creature deals damage to you, Backfire deals that much damage to that creature's controller.
p545
aVTap X target creatures. Winter Blast deals 2 damage to each of those creatures with flying.
p546
aVWhen War Priest of Thune enters the battlefield, you may destroy target enchantment.
p547
aVAt the beginning of your upkeep, put a currency counter on Trade Caravan.<br>Remove two currency counters from Trade Caravan: Untap target basic land. Activate this ability only during an opponent's upkeep.
p548
aVEach player may draw up to two cards. For each card less than two a player draws this way, that player gains 2 life.
p549
aVYou win the game if you control a land of each basic land type and a creature of each color.
p550
aVYou gain 1 life for each Forest on the battlefield.
p551
aVTarget creature gets -1/-1 until end of turn.<br>Morbid- That creature gets -13/-13 until end of turn instead if a creature died this turn.
p552
aVMorbid- When Ulvenwald Bear enters the battlefield, if a creature died this turn, put two +1/+1 counters on target creature.
p553
aVTarget creature gains undying until end of turn. <i>(When it dies, if it had no +1/+1 counters on it, return it to the battlefield under its owner's control with a +1/+1 counter on it.)</i>
p554
asS'costs'
p555
(lp556
V{5}
p557
aS'0'
p558
aV{4}{W}
p559
aV{2}{W}{W}
p560
aV{2}{B}
p561
aV{1}{R}
p562
aV{2}
p563
aV{3}{R}{R}
p564
aV{4}{G}
p565
aV{2}
p566
aV{1}{W}
p567
aV{B}
p568
aV{3}
p569
aV{3}{R}
p570
aV{1}{W}
p571
aV{3}
p572
ag558
aV{2}
p573
ag558
aV{5}{G}{G}
p574
aV{3}{R}
p575
aV{6}{B}{B}
p576
aV{0}
p577
aV{2}
p578
aV{1}{B}{B}
p579
aV{1}{B}{B}
p580
aV{3}{W}{U}
p581
aV{2}{B}{B}{R}
p582
aV{3}{G}{G}{W}
p583
aV{1}{W}
p584
aV{3}{U}
p585
aV{3}{G}{G}
p586
aV{R}{R}
p587
aV{B}
p588
aV{B}{R}
p589
aV{6}{G}{G}
p590
aV{2}{U}
p591
aV{1}{B}{B}
p592
aV{5}{U}
p593
aV{3}{R}
p594
aV{3}{W}
p595
aV{R}
p596
aV{4}{G}{W}
p597
aV{3}{R}
p598
aV{1}{W}{U}{B}
p599
aV{4}
p600
aV{2}{B}
p601
aV{B}
p602
aV{3}{U}
p603
aV{3}{U}
p604
aV{1}{B}
p605
aV{2}{U}
p606
aV{B}
p607
aV{4}{R}
p608
aV{4}{U}
p609
aV{2}{G}
p610
aV{3}{R}
p611
aV{3}{R}
p612
aV{2}{B}
p613
aV{3}{G}{G}{G}
p614
aV{4}
p615
aV{4}
p616
aV{5}{G}{G}
p617
aV{4}
p618
aV{3}
p619
aV{4}
p620
aV{5}{G}{G}
p621
aV{3}{B}
p622
aV{1}{B}{B}
p623
aV{1}{U}
p624
aV{1}{W}
p625
aV{3}{G}{G}{G}
p626
aV{2}{B}{B}
p627
aV{1}{B}
p628
aV{2}{U/B}
p629
aV{B}
p630
aV{2/G}{2/G}{2/G}
p631
aV{4}{B/R}
p632
aV{1}{G}
p633
aV{4}{GP}{GP}
p634
aV{3}{R}
p635
aV{2}
p636
aV{3}{U}
p637
aV{5}{G}{G}
p638
aV{3}{R}{R}
p639
aV{6}{B}{B}
p640
ag558
aV{2}{W}
p641
aV{3}{U}
p642
aV{5}{G}{G}
p643
aV{3}{B}
p644
aV{4}{G}
p645
aV{3}{U}
p646
aV{2}{R}
p647
ag558
aV{1}{U}
p648
aV{4}{G}
p649
aV{5}{R}
p650
aV{2}
p651
aV{2}{U}
p652
aV{1}{U}
p653
aV{5}{U}{U}
p654
aV{6}{G}{G}
p655
aV{2}{W}
p656
aV{2}{U}
p657
aV{3}{W}{U}
p658
aV{2}{B}{B}{R}
p659
aV{0}
p660
aV{2}{U}
p661
aV{2}{U}
p662
aV{4}{B}{B}
p663
aV{B}
p664
aV{2}{B}
p665
ag558
aV{4}{B/R}
p666
ag558
aV{4}{B}
p667
aV{2}{B}{B}
p668
aV{X}{R}{R}
p669
aV{4}{W}
p670
aV{1}{U}
p671
aV{W}{B}
p672
aV{B}
p673
aV{1}{B}
p674
aV{B}
p675
aV{2}{B}{B}{R}
p676
aV{3}{G}{G}{W}
p677
ag558
aV{3}{W}{U}
p678
aV{1}{G}
p679
aV{B}
p680
aV{B}
p681
aV{0}
p682
aV{3}{U}
p683
aV{1}{W}
p684
ag558
aV{1}{R}
p685
asS'names'
p686
(lp687
VTormented Soul
p688
aVTomb of Urami
p689
aVTorii Watchward
p690
aVTouch of the Eternal
p691
aVTormented Soul
p692
aVTorch Fiend
p693
aVTormod's Crypt
p694
aVTorchling
p695
aVTornado
p696
aVTower of Calamities
p697
aVTome Scour
p698
aVTome Scour
p699
aVTorture Chamber
p700
aVTooth and Claw
p701
aVTonic Peddler
p702
aVTooth of Ramos
p703
aVTower of the Magistrate
p704
aVToymaker
p705
aVTolarian Academy
p706
aVTooth and Nail
p707
aVTorrent of Stone
p708
aVTombstalker
p709
aVTormod's Crypt
p710
aVTower of Coireall
p711
aVTourach's Chant
p712
aVTourach's Gate
p713
aVTobias Andrion
p714
aVTor Wauki
p715
aVTorsten Von Ursus
p716
aVTo Arms!
p717
aVTorch Drake
p718
aVToxic Iguanar
p719
aVTormentor's Trident
p720
aVTormented Soul
p721
aVTorrent of Souls
p722
aVTowering Baloth
p723
aVToils of Night and Day
p724
aVToshiro Umezawa
p725
aVTomorrow, Azami's Familiar
p726
aVTorrent of Stone
p727
aVTormented Angel
p728
aVTorpid Moloch
p729
aVTolsimir Wolfblood
p730
aVTooth and Claw
p731
aVTower Gargoyle
p732
aVTower of Fortunes
p733
aVToxic Deluge
p734
aVTombfire
p735
aVTouch of Invisibility
p736
aVTolarian Sentinel
p737
aVTower Drake
p738
aVTowering Indrik
p739
aVTotally Lost
p740
aVTower Defense
p741
aVTowering Thunderfist
p742
aVTouch of Vitae
p743
aVTor Giant
p744
aVTotal War
p745
aVTouch of Death
p746
aVTorch Slinger
p747
aVTower of Fortunes
p748
aVTower of Murmurs
p749
aVTooth and Nail
p750
aVTower of Champions
p751
aVTooth of Chiss-Goria
p752
aVTower of Eons
p753
aVTower Gargoyle
p754
aVTopan Ascetic
p755
aVTortoise Formation
p756
aVTolarian Winds
p757
aVTorch Fiend
p758
aVTormod's Crypt
p759
aVTotem-Guide Hartebeest
p760
aVToxic Stench
p761
aVTorpor Dust
p762
aVTorture
p763
aVTower Above
p764
aVTorrent of Souls
p765
aVToil to Renown
p766
aVTormentor Exarch
p767
aVTorpor Orb
p768
aVToxic Nim
p769
aVTouch of Brilliance
p770
aVTornado Elemental
p771
aVTorrent of Fire
p772
aVTombstalker
p773
aVTolaria West
p774
aVTown Sentry
p775
aVTouch of Brilliance
p776
aVTornado Elemental
p777
aVToxin Sliver
p778
aVTotem Speaker
p779
aVTorchling
p780
aVTorch Song
p781
aVTolarian Academy
p782
aVTolarian Winds
p783
aVTornado
p784
aVTormented Hero
p785
aVTouchstone
p786
aVTolarian Drake
p787
aVTolarian Entrancer
p788
aVTolarian Serpent
p789
aVTorch Fiend
p790
aVTopple
p791
aVTomb Hex
p792
aVTobias Andrion
p793
aVTor Wauki
p794
aVTormod's Crypt
p795
aVTower Drake
p796
aVTolarian Emissary
p797
aVTormented Thoughts
p798
aVTorture
p799
aVTouch of Death
p800
aVTooth, Claw, and Tail
p801
aVTorrent of Souls
p802
aVTomb of the Spirit Dragon
p803
aVTormenting Voice
p804
aVTombstone Stairwell
p805
aVTorrent of Lava
p806
aVTormented Pariah
p807
aVTolarian Winds
p808
aVToil // Trouble (Toil)
p809
aVTortured Existence
p810
aVTorment
p811
aVTouch of Darkness
p812
aVTor Wauki
p813
aVTorsten Von Ursus
p814
aVTolaria
p815
aVTobias Andrion
p816
aVTome Scour
p817
aVTorture
p818
aVTorture
p819
aVTormod's Crypt
p820
aVTouch of Brilliance
p821
aVTorch Fiend
p822
aVTovolar's Magehunter
p823
aVTower Geist
p824
asS'toughs'
p825
(lp826
V4
p827
aS'N/A'
p828
aV1
p829
ag828
ag829
ag829
ag828
aV3
p830
ag828
ag828
ag828
ag828
ag828
ag828
ag829
ag828
ag828
ag828
ag828
ag828
ag828
aV2
p831
ag828
ag828
ag828
ag828
aV5
p832
ag827
ag830
ag828
ag831
ag827
ag828
ag830
ag828
ag829
ag828
ag831
ag832
ag828
ag831
ag829
aV14
p833
ag828
ag828
ag828
ag828
ag828
ag828
ag830
ag832
ag831
ag828
ag828
aV8
p834
ag828
ag830
ag828
ag828
ag831
ag828
ag828
ag828
ag828
ag828
ag828
ag828
ag831
ag828
ag828
aV6
p835
ag828
ag829
ag828
ag828
ag828
ag828
ag828
ag828
ag832
ag828
ag827
ag828
ag835
ag828
ag831
ag828
ag831
ag828
ag831
ag830
ag830
ag832
ag828
ag828
ag828
ag828
ag832
ag828
ag831
ag830
ag830
ag829
ag828
ag828
ag830
ag827
ag828
ag829
ag831
ag828
ag828
ag828
ag828
ag828
ag828
ag828
ag828
ag828
ag831
ag828
ag828
ag828
ag828
ag828
ag832
ag830
ag828
ag831
ag828
ag828
ag828
ag828
ag828
ag830
ag828
ag830
asS'artists'
p836
(lp837
g501
aVAlex Horley-Orlandelli
p838
aVJeff Miracola
p839
aVChristopher Moeller
p840
aVKarl Kopinski
p841
aVWinona Nelson
p842
aVAdam Paquette
p843
aVrk post
p844
aVSusan Van Camp
p845
aVAleksi Briclot
p846
aVSteven Belledin
p847
aVSteven Belledin
p848
aVThomas Gianni
p849
aVVal Mayerik
p850
aVAdam Rex
p851
aVDavid Martin
p852
aVThomas Gianni
p853
aVFrank Kelly Freas
p854
aVStephen Daniele
p855
ag501
ag501
ag501
aVChristopher Rush
p856
aVDan Frazier
p857
aVRichard Kane Ferguson
p858
aVSandra Everingham
p859
aVRandy Asplund
p860
aVMark Poole
p861
aVJeff A. Menges
p862
aVAleksi Briclot
p863
aVDaren Bader
p864
aVBrandon Kitkouski
p865
aVAnthony Palumbo
p866
ag501
aVIan Edward Ameling
p867
aVArnie Swekel
p868
aVMatt Cavotta
p869
aVChristopher Moeller
p870
aVChristopher Rush
p871
aVGreg Staples
p872
aVGreg & Tim Hildebrandt
p873
aVPaolo Parente
p874
aVDonato Giancola
p875
aVVal Mayerik
p876
aVMatt Cavotta
p877
aVMatt Cavotta
p878
aVSvetlin Velinov
p879
aVArnie Swekel
p880
aVEric Peterson
p881
aVThomas M. Baxa
p882
aVRyan Barger
p883
aVLars Grant-West
p884
aVDavid Palumbo
p885
aVSeb McKinnon
p886
aVZoltan Boros
p887
aVL. A. Williams
p888
aVDouglas Shuler
p889
aVDrew Tucker
p890
aVMelissa Benson
p891
aVAndrew Robinson
p892
aVMatt Cavotta
p893
aVGlen Angus
p894
aVGreg Hildebrandt
p895
aVGreg Staples
p896
aVAlan Pollack
p897
aVJohn Avon
p898
aVMatt Cavotta
p899
aVSal Villagran
p900
aVMark Zug
p901
aVBob Petillo
p902
aVWinona Nelson
p903
aVLars Grant-West
p904
aVJohn Avon
p905
aVBradley Williams
p906
aVJesper Ejsing
p907
aVE. M. Gist
p908
aVThomas Denmark
p909
aVIan Edward Ameling
p910
aVLarry MacDougall
p911
ag501
ag501
ag501
aVKaja Foglio
p912
aVAlex Horley-Orlandelli
p913
aVThomas M. Baxa
p914
aVAleksi Briclot
p915
aVKhang Le
p916
aVBrad Williams
p917
aVKaja Foglio
p918
aVAlex Horley-Orlandelli
p919
aVLars Grant-West
p920
aVDarrell Riche
p921
ag501
aVThomas M. Baxa
p922
aVStephen Daniele
p923
aVLawrence Snelly
p924
aVSusan Van Camp
p925
aVWinona Nelson
p926
aVGeorge Pratt
p927
aVMark Harrison
p928
aVBryan Talbot
p929
aVStuart Griffin
p930
aVWinona Nelson
p931
aVDaren Bader
p932
aVIzzy
p933
aVAndi Rusu
p934
aVRandy Asplund-Faith
p935
aVChristopher Rush
p936
aVCarl Critchlow
p937
aVRon Spencer
p938
aVAllen Williams
p939
aVMark Tedin
p940
aVMelissa A. Benson
p941
aVPaul Bonner
p942
aVIan Edward Ameling
p943
aVSam Burley
p944
aVVolkan Baga
p945
aVDom
p946
aVKathryn Rathke
p947
aVBud Cook
p948
aVLawrence Snelly
p949
aVNils Hamm
p950
aVKeith Parkinson
p951
aVPaolo Parente
p952
aVPete Venters
p953
aVRandy Asplund-Faith
p954
aVMark Poole
p955
aVNicola Leonard
p956
aVAndi Rusu
p957
aVSteven Belledin
p958
aVMark Tedin
p959
aVMark Tedin
p960
aVChristopher Rush
p961
aVJohn Coulthart
p962
aVJung Park
p963
aVChristopher Moeller
p964
aVJason A. Engle
p965
asS'powers'
p966
(lp967
g829
ag828
ag831
ag828
ag829
ag831
ag828
ag830
ag828
ag828
ag828
ag828
ag828
ag828
ag829
ag828
ag828
ag828
ag828
ag828
ag828
ag831
ag828
ag828
ag828
ag828
ag831
ag827
ag830
ag828
ag831
ag829
ag828
ag830
ag828
aV7
p968
ag828
ag831
ag829
ag828
ag831
ag829
aV9
p969
ag828
ag828
ag828
ag828
ag828
ag828
ag829
ag829
ag831
ag828
ag828
ag830
ag828
ag830
ag828
ag828
ag827
ag828
ag828
ag828
ag828
ag828
ag828
ag828
ag829
ag828
ag828
ag829
ag828
ag831
ag828
ag828
ag828
ag828
ag828
ag828
ag827
ag828
ag831
ag828
ag832
ag828
ag831
ag828
ag831
ag828
ag831
ag830
ag830
ag829
ag828
ag828
ag828
ag828
ag831
ag828
ag831
ag829
ag830
ag968
ag828
ag828
ag830
ag830
ag828
ag831
ag829
ag828
ag828
ag828
ag828
ag828
ag828
ag828
ag828
ag828
ag831
ag828
ag828
ag828
ag828
ag828
ag832
ag830
ag828
ag831
ag828
ag828
ag828
ag828
ag828
ag829
ag828
ag831
asS'types'
p970
(lp971
VCreature - Spirit
p972
aVLegendary Land
p973
aVCreature - Spirit
p974
aVEnchantment
p975
aVCreature - Spirit
p976
aVCreature - Devil
p977
aVArtifact
p978
aVCreature - Shapeshifter
p979
aVEnchantment
p980
aVArtifact
p981
aVSorcery
p982
aVSorcery
p983
aVArtifact
p984
aVEnchantment
p985
aVCreature - Human Spellshaper
p986
aVArtifact
p987
aVLand
p988
aVArtifact Creature - Spellshaper
p989
aVLegendary Land
p990
aVSorcery
p991
aVInstant - Arcane
p992
aVCreature - Demon
p993
aVArtifact
p994
aVArtifact
p995
aVEnchantment
p996
aVEnchantment - Aura
p997
aVLegendary Creature - Human Advisor
p998
aVLegendary Creature - Human Archer
p999
aVLegendary Creature - Human Soldier
p1000
aVInstant
p1001
aVCreature - Drake
p1002
aVCreature - Lizard
p1003
aVArtifact - Equipment
p1004
aVCreature - Spirit
p1005
aVSorcery
p1006
aVCreature - Beast
p1007
aVInstant - Arcane
p1008
aVLegendary Creature - Human Samurai
p1009
aVLegendary Creature - Spirit
p1010
aVInstant - Arcane
p1011
aVCreature - Angel
p1012
aVCreature - Lizard
p1013
aVLegendary Creature - Elf Warrior
p1014
aVEnchantment
p1015
aVArtifact Creature - Gargoyle
p1016
aVArtifact
p1017
aVSorcery
p1018
aVSorcery
p1019
aVSorcery
p1020
aVCreature - Human Spellshaper
p1021
aVCreature - Drake
p1022
aVCreature - Beast
p1023
aVInstant
p1024
aVInstant
p1025
aVCreature - Giant Soldier
p1026
aVInstant
p1027
aVCreature - Giant
p1028
aVEnchantment
p1029
aVSorcery
p1030
aVCreature - Goblin Shaman
p1031
aVArtifact
p1032
aVArtifact
p1033
aVSorcery
p1034
aVArtifact
p1035
aVArtifact
p1036
aVArtifact
p1037
aVArtifact Creature - Gargoyle
p1038
aVCreature - Human Monk
p1039
aVInstant
p1040
aVInstant
p1041
aVCreature - Devil
p1042
aVArtifact
p1043
aVCreature - Antelope
p1044
aVInstant
p1045
aVEnchantment - Aura
p1046
aVEnchantment - Aura
p1047
aVSorcery
p1048
aVSorcery
p1049
aVSorcery
p1050
aVCreature - Cleric
p1051
aVArtifact
p1052
aVCreature - Zombie
p1053
aVSorcery
p1054
aVCreature - Elemental
p1055
aVSorcery
p1056
aVCreature - Demon
p1057
aVLand
p1058
aVCreature - Human Soldier
p1059
aVSorcery
p1060
aVCreature - Elemental
p1061
aVCreature - Sliver
p1062
aVCreature - Elf Druid
p1063
aVCreature - Shapeshifter
p1064
aVEnchantment
p1065
aVLegendary Land
p1066
aVInstant
p1067
aVEnchantment
p1068
aVCreature - Human Warrior
p1069
aVArtifact
p1070
aVCreature - Drake
p1071
aVCreature - Human Wizard
p1072
aVCreature - Serpent
p1073
aVCreature - Devil
p1074
aVSorcery
p1075
aVInstant
p1076
aVLegendary Creature - Human Advisor
p1077
aVLegendary Creature - Human Archer
p1078
aVArtifact
p1079
aVCreature - Drake
p1080
aVCreature - Human Wizard
p1081
aVSorcery
p1082
aVEnchantment - Aura
p1083
aVSorcery
p1084
aVScheme
p1085
aVSorcery
p1086
aVLand
p1087
aVSorcery
p1088
aVWorld Enchantment
p1089
aVSorcery
p1090
aVCreature - Human Warrior Werewolf
p1091
aVInstant
p1092
aVSorcery
p1093
aVEnchantment
p1094
aVEnchantment - Aura
p1095
aVInstant
p1096
aVLegendary Creature - Human Archer
p1097
aVLegendary Creature - Human Soldier
p1098
aVLegendary Land
p1099
aVLegendary Creature - Human Advisor
p1100
aVSorcery
p1101
aVEnchantment - Aura
p1102
aVEnchantment - Aura
p1103
aVArtifact
p1104
aVSorcery
p1105
aVCreature - Devil
p1106
aVTransform Creature - Werewolf
p1107
aVCreature - Spirit
p1108
asS'numbers'
p1109
(lp1110
V114
p1111
aV165
p1112
aV30
p1113
aV37
p1114
aV111
p1115
aV151
p1116
aV219
p1117
aV110
p1118
aV68
p1119
aV212
p1120
aV76
p1121
aV75
p1122
aV33
p1123
aV171
p1124
aV54
p1125
aV313
p1126
aV330
p1127
aV314
p1128
aV319
p1129
ag501
ag501
ag501
aV11
p1130
aV12
p1131
aV20
p1132
aV21
p1133
aV181
p1134
aV182
p1135
aV183
p1136
aV20
p1137
aV38
p1138
aV72
p1139
aV222
p1140
aV166
p1141
aV71
p1142
aV292
p1143
aV57
p1144
aV89
p1145
aV58
p1146
aV119
p1147
aV22
p1148
aV147
p1149
aV236
p1150
aV127
p1151
aV223
p1152
aV268
p1153
aV96
p1154
aV165
p1155
aV109
p1156
aV87
p1157
aV55
p1158
aV137
p1159
aV54
p1160
aV137
p1161
aV109
p1162
aV134
p1163
aV173
p1164
aV174
p1165
aV372
p1166
aV151
p1167
aV267
p1168
aV268
p1169
aV134
p1170
aV265
p1171
aV264
p1172
aV266
p1173
aV205
p1174
aV151
p1175
aV61
p1176
aV105
p1177
aV166
p1178
aV237
p1179
aV50
p1180
aV74
p1181
aV177
p1182
aV80
p1183
aV131
p1184
aV199
p1185
aV130
p1186
aV97
p1187
aV162
p1188
aV75
p1189
aV57
p1190
aV97
p1191
aV107
p1192
aV91
p1193
aV173
p1194
ag827
aV155
p1195
aV79
p1196
aV84
p1197
aV141
p1198
ag501
aV222
p1199
aV330
p1200
aV104
p1201
aV136
p1202
aV108
p1203
aV14
p1204
aV54
p1205
aV55
p1206
aV56
p1207
aV153
p1208
aV24
p1209
aV69
p1210
aV40
p1211
aV106
p1212
aV107
p1213
aV82
p1214
aV81
p1215
aV86
p1216
aV52
p1217
aV53
p1218
aV40
p1219
aV96
p1220
aV245
p1221
aV123
p1222
aV52
p1223
aV162
p1224
aV165
p1225
aV84
p1226
aV133
p1227
aV63
p1228
aV95
p1229
aV34
p1230
aV166
p1231
aV167
p1232
aV179
p1233
aV291
p1234
aV76
p1235
aV136
p1236
aV137
p1237
aV115
p1238
aV44
p1239
aV106
p1240
aV98
p1241
aV53
p1242
as.