(dp0
S'rares'
p1
(lp2
VUncommon
p3
aVUncommon
p4
aVUncommon
p5
aVUncommon
p6
aVRare
p7
aVRare
p8
aVRare
p9
aVRare
p10
aVUncommon
p11
aVUncommon
p12
aVRare
p13
asS'editns'
p14
(lp15
VLimited Edition Beta
p16
aVFourth Edition
p17
aVRevised Edition
p18
aVUnlimited Edition
p19
aVInvasion
p20
aVInvasion
p21
aVInvasion
p22
aVInvasion
p23
aVFifth Edition
p24
aVLimited Edition Alpha
p25
aVMasters Edition IV
p26
asS'ids'
p27
(lp28
V472
p29
aV2245
p30
aV1271
p31
aV774
p32
aV23048
p33
aV23228
p34
aV23321
p35
aV26380
p36
aV4017
p37
aV177
p38
aV202457
p39
asS'texts'
p40
(lp41
VTrample
p42
aVDefender <i>(This creature can't attack.)</i><br>First strike
p43
aVEach player discards his or her hand and draws seven cards.
p44
aVEnchant creature <i>(Target a creature as you cast this. This card enters the battlefield attached to that creature.)</i><br>Enchanted creature gets +0/+2 and has reach. <i>(It can block creatures with flying.)</i>
p45
aV{T}: Destroy target creature if it shares a color with the most common color among all permanents or a color tied for most common. A creature destroyed this way can't be regenerated.
p46
aVWhen Tsabo's Web enters the battlefield, draw a card.<br>Each land with an activated ability that isn't a mana ability doesn't untap during its controller's untap step.
p47
aVFirst strike, protection from legendary creatures<br>{B}{B}, {T}: Destroy target legendary creature. It can't be regenerated.
p48
aVChoose a creature type. Target player reveals his or her hand and discards all creature cards of that type. Then destroy all creatures of that type that player controls. They can't be regenerated.
p49
aVDefender, flying <i>(This creature can't attack, and it can block creatures with flying.)</i>
p50
aVDefender <i>(This creature can't attack.)</i>
p51
aV{T}: Add {1} to your mana pool. If you control an Urza's Mine and an Urza's Power-Plant, add {3} to your mana pool instead.
p52
asS'costs'
p53
(lp54
V{3}{G}
p55
aV{3}{G}
p56
aV{3}{G}
p57
aV{3}{G}
p58
aV{2}{B}{B}
p59
aV{2}
p60
aV{5}{B}{R}
p61
aV{5}{B}
p62
aV{3}{G}
p63
aV{3}{G}
p64
aV{3}{G}
p65
asS'names'
p66
(lp67
VTsunami
p68
aVTsunami
p69
aVTsunami
p70
aVTsunami
p71
aVTsabo's Assassin
p72
aVTsabo's Web
p73
aVTsabo Tavoc
p74
aVTsabo's Decree
p75
aVTsunami
p76
aVTsunami
p77
aVTsunami
p78
asS'toughs'
p79
(lp80
S'N/A'
p81
ag81
ag81
ag81
aV1
p82
ag81
aV2
p83
ag81
ag81
ag81
ag81
asS'artists'
p84
(lp85
VRichard Thomas
p86
aVRichard Thomas
p87
aVRichard Thomas
p88
aVRichard Thomas
p89
aVGlen Angus
p90
aVCarl Critchlow
p91
aVMichael Sutfin
p92
aVThomas M. Baxa
p93
aVRichard Thomas
p94
aVRichard Thomas
p95
aVRichard Thomas
p96
asS'powers'
p97
(lp98
g81
ag81
ag81
ag81
ag82
ag81
ag83
ag81
ag81
ag81
ag81
asS'types'
p99
(lp100
VSorcery
p101
aVSorcery
p102
aVSorcery
p103
aVSorcery
p104
aVCreature - Zombie Assassin
p105
aVArtifact
p106
aVLegendary Creature - Horror
p107
aVInstant
p108
aVSorcery
p109
aVSorcery
p110
aVSorcery
p111
asS'numbers'
p112
(lp113
V264
p114
aV348
p115
aV274
p116
aV267
p117
aV128
p118
aV317
p119
aV281
p120
aV129
p121
aV417
p122
aV32
p123
aV171
p124
as.