(dp0
S'rares'
p1
(lp2
VRare
p3
aVCommon
p4
asS'editns'
p5
(lp6
VChampions of Kamigawa
p7
aVDragon's Maze
p8
asS'ids'
p9
(lp10
V75254
p11
aV369046
p12
asS'texts'
p13
(lp14
V{1}: Look at the top card of your library.<br>{2}: Reveal the top card of your library. If it's a land card, Cruel Deceiver gains "Whenever Cruel Deceiver deals damage to a creature, destroy that creature" until end of turn. Activate this ability only once each turn.
p15
aVEnchant creature<br>Enchanted creature gets +2/+2 and has trample and lifelink.
p16
asS'costs'
p17
(lp18
V{4}
p19
aV{5}{G}{W}
p20
asS'names'
p21
(lp22
VUba Mask
p23
aVUbul Sar Gatekeepers
p24
asS'toughs'
p25
(lp26
S'N/A'
p27
aV1
p28
asS'artists'
p29
(lp30
VRandy Gallegos
p31
aVVolkan Baga
p32
asS'powers'
p33
(lp34
g27
aV2
p35
asS'types'
p36
(lp37
VArtifact
p38
aVCreature - Zombie Soldier
p39
asS'numbers'
p40
(lp41
V272
p42
aV30
p43
as.