(dp0
S'rares'
p1
(lp2
VMythic Rare
p3
asS'editns'
p4
(lp5
VKhans of Tarkir
p6
asS'ids'
p7
(lp8
V386709
p9
asS'texts'
p10
(lp11
VFlying
p12
asS'costs'
p13
(lp14
V{4}{G}{G}
p15
asS'names'
p16
(lp17
VUgin's Nexus
p18
asS'toughs'
p19
(lp20
S'N/A'
p21
asS'artists'
p22
(lp23
VSam Burley
p24
asS'powers'
p25
(lp26
g21
asS'types'
p27
(lp28
VLegendary Artifact
p29
asS'numbers'
p30
(lp31
V227
p32
as.