(dp0
S'rares'
p1
(lp2
VRare
p3
aVRare
p4
asS'editns'
p5
(lp6
VChampions of Kamigawa
p7
aVCommander 2013 Edition
p8
asS'ids'
p9
(lp10
V78855
p11
aV376565
p12
asS'texts'
p13
(lp14
VTarget player discards two cards.
p15
aVFlying<br>{2}, Return two lands you control to their owner's hand: Copy target instant or sorcery spell. You may choose new targets for the copy.
p16
asS'costs'
p17
(lp18
V{4}{U}{U}
p19
aV{4}{U}{U}
p20
asS'names'
p21
(lp22
VUyo, Silent Prophet
p23
aVUyo, Silent Prophet
p24
asS'toughs'
p25
(lp26
V4
p27
aV1
p28
asS'artists'
p29
(lp30
VJohn Bolton
p31
aVJohn Bolton
p32
asS'powers'
p33
(lp34
g27
aV2
p35
asS'types'
p36
(lp37
VLegendary Creature - Moonfolk Wizard
p38
aVLegendary Creature - Moonfolk Wizard
p39
asS'numbers'
p40
(lp41
V99
p42
aV64
p43
as.