(dp0
S'rares'
p1
(lp2
VRare
p3
aVSpecial
p4
asS'editns'
p5
(lp6
VTempest
p7
aVTime Spiral "Timeshifted"
p8
asS'ids'
p9
(lp10
V4920
p11
aV109759
p12
asS'texts'
p13
(lp14
S''
p15
aVGemstone Mine enters the battlefield with three mining counters on it.<br>{T}, Remove a mining counter from Gemstone Mine: Add one mana of any color to your mana pool. If there are no mining counters on Gemstone Mine, sacrifice it.
p16
asS'costs'
p17
(lp18
V{2}{B}{G}
p19
aV{2}{B}{G}
p20
asS'names'
p21
(lp22
VVhati il-Dal
p23
aVVhati il-Dal
p24
asS'toughs'
p25
(lp26
V3
p27
aV4
p28
asS'artists'
p29
(lp30
VRon Spencer
p31
aVRon Spencer
p32
asS'powers'
p33
(lp34
V1
p35
aV6
p36
asS'types'
p37
(lp38
VLegendary Creature - Human Warrior
p39
aVLegendary Creature - Human Warrior
p40
asS'numbers'
p41
(lp42
V346
p43
aV104
p44
as.