(dp0
S'rares'
p1
(lp2
VSpecial
p3
aVUncommon
p4
aVRare
p5
aVUncommon
p6
aVRare
p7
aVUncommon
p8
aVMythic Rare
p9
aVCommon
p10
aVUncommon
p11
aVUncommon
p12
aVUncommon
p13
aVUncommon
p14
aVRare
p15
aVRare
p16
aVUncommon
p17
aVRare
p18
aVRare
p19
aVUncommon
p20
aVRare
p21
aVRare
p22
aVCommon
p23
aVUncommon
p24
aVUncommon
p25
aVRare
p26
aVCommon
p27
aVUncommon
p28
aVCommon
p29
aVRare
p30
aVRare
p31
aVCommon
p32
aVRare
p33
aVCommon
p34
aVUncommon
p35
aVRare
p36
aVRare
p37
aVRare
p38
aVRare
p39
aVRare
p40
aVRare
p41
aVRare
p42
aVRare
p43
aVCommon
p44
aVCommon
p45
aVUncommon
p46
aVUncommon
p47
aVRare
p48
aVUncommon
p49
aVCommon
p50
aVCommon
p51
aVCommon
p52
aVRare
p53
aVMythic Rare
p54
aVCommon
p55
aVRare
p56
aVCommon
p57
aVRare
p58
aVUncommon
p59
aVRare
p60
aVCommon
p61
aVCommon
p62
aVCommon
p63
aVUncommon
p64
aVRare
p65
aVUncommon
p66
aVUncommon
p67
aVUncommon
p68
aVRare
p69
aVUncommon
p70
aVRare
p71
aVCommon
p72
aVUncommon
p73
aVRare
p74
aVCommon
p75
aVUncommon
p76
aVCommon
p77
aVRare
p78
aVUncommon
p79
aVRare
p80
aVUncommon
p81
aVRare
p82
aVRare
p83
aVRare
p84
aVRare
p85
aVRare
p86
aVRare
p87
aVCommon
p88
aVUncommon
p89
aVCommon
p90
aVUncommon
p91
aVRare
p92
aVCommon
p93
aVRare
p94
aVUncommon
p95
aVUncommon
p96
aVRare
p97
aVCommon
p98
aVUncommon
p99
aVRare
p100
aVUncommon
p101
aVRare
p102
aVCommon
p103
aVMythic Rare
p104
aVUncommon
p105
aVUncommon
p106
aVUncommon
p107
aVRare
p108
aVCommon
p109
aVUncommon
p110
aVCommon
p111
aVRare
p112
aVCommon
p113
aVRare
p114
aVUncommon
p115
aVCommon
p116
aVRare
p117
aVRare
p118
aVUncommon
p119
aVRare
p120
aVCommon
p121
aVRare
p122
aVCommon
p123
aVUncommon
p124
aVRare
p125
aVRare
p126
aVRare
p127
aVUncommon
p128
asS'editns'
p129
(lp130
VAnthologies
p131
aVMagic: The Gathering-Commander
p132
aVMagic 2012
p133
aVLimited Edition Beta
p134
aVLimited Edition Beta
p135
aVMorningtide
p136
aVMagic 2013
p137
aVFourth Edition
p138
aVFourth Edition
p139
aVDuel Decks: Ajani vs. Nicol Bolas
p140
aVMagic 2014 Core Set
p141
aVTempest
p142
aVTempest
p143
aVMercadian Masques
p144
aVMercadian Masques
p145
aVVintage Masters
p146
aVModern Masters
p147
aVModern Masters
p148
aVThe Dark
p149
aVThe Dark
p150
aVThe Dark
p151
aVMasters Edition III
p152
aVRevised Edition
p153
aVMasters Edition II
p154
aVMasters Edition II
p155
aVMasters Edition II
p156
aVNinth Edition
p157
aVNinth Edition
p158
aVEventide
p159
aVEventide
p160
aVConflux
p161
aVConflux
p162
aVAvacyn Restored
p163
aVAvacyn Restored
p164
aVOnslaught
p165
aVOnslaught
p166
aVOnslaught
p167
aVOnslaught
p168
aVOnslaught
p169
aVOnslaught
p170
aVRavnica: City of Guilds
p171
aVRavnica: City of Guilds
p172
aVRavnica: City of Guilds
p173
aVRavnica: City of Guilds
p174
aVRavnica: City of Guilds
p175
aVRavnica: City of Guilds
p176
aVCommander 2013 Edition
p177
aVOdyssey
p178
aVOdyssey
p179
aVTime Spiral
p180
aVTime Spiral
p181
aVReturn to Ravnica
p182
aVGatecrash
p183
aVExodus
p184
aVExodus
p185
aVColdsnap
p186
aVUnlimited Edition
p187
aVUnlimited Edition
p188
aVIce Age
p189
aVIce Age
p190
aVIce Age
p191
aVIce Age
p192
aVZendikar
p193
aVClassic Sixth Edition
p194
aVClassic Sixth Edition
p195
aVMirrodin
p196
aVMirrodin
p197
aVShards of Alara
p198
aVSeventh Edition
p199
aVSeventh Edition
p200
aVSeventh Edition
p201
aVRise of the Eldrazi
p202
aVJudgment
p203
aVJudgment
p204
aVJudgment
p205
aVJudgment
p206
aVJudgment
p207
aVJudgment
p208
aVJudgment
p209
aVJudgment
p210
aVShadowmoor
p211
aVShadowmoor
p212
aVShadowmoor
p213
aVShadowmoor
p214
aVShadowmoor
p215
aVShadowmoor
p216
aVStarter 1999
p217
aVScourge
p218
aVUrza's Saga
p219
aVUrza's Saga
p220
aVMasters Edition
p221
aVMagic: The Gathering\u2014Conspiracy
p222
aVMagic: The Gathering\u2014Conspiracy
p223
aVMagic: The Gathering\u2014Conspiracy
p224
aVMagic: The Gathering\u2014Conspiracy
p225
aVEighth Edition
p226
aVEighth Edition
p227
aVEighth Edition
p228
aVNemesis
p229
aVWorldwake
p230
aVInvasion
p231
aVJourney into Nyx
p232
aVFifth Edition
p233
aVFifth Edition
p234
aVFifth Edition
p235
aVKhans of Tarkir
p236
aVKhans of Tarkir
p237
aVMirage
p238
aVInnistrad
p239
aVInnistrad
p240
aVInnistrad
p241
aVLimited Edition Alpha
p242
aVLimited Edition Alpha
p243
aVBeatdown Box Set
p244
aVMasters Edition IV
p245
aVMasters Edition IV
p246
aVDragon's Maze
p247
aVLegends
p248
aVLegends
p249
aVLorwyn
p250
aVLorwyn
p251
aVLorwyn
p252
aVPortal Three Kingdoms
p253
aVPortal
p254
aVDark Ascension
p255
aVDark Ascension
p256
asS'ids'
p257
(lp258
V-2146729913
p259
aV247293
p260
aV227302
p261
aV342
p262
aV387
p263
aV152728
p264
aV278195
p265
aV2139
p266
aV2082
p267
aV249368
p268
aV370665
p269
aV4911
p270
aV4921
p271
aV19747
p272
aV19852
p273
aV383154
p274
aV370406
p275
aV370532
p276
aV1745
p277
aV1782
p278
aV1744
p279
aV201271
p280
aV1142
p281
aV184778
p282
aV184682
p283
aV184539
p284
aV83336
p285
aV83338
p286
aV151135
p287
aV158599
p288
aV175401
p289
aV142298
p290
aV276501
p291
aV240090
p292
aV39506
p293
aV39684
p294
aV40188
p295
aV40189
p296
aV40190
p297
aV40191
p298
aV83747
p299
aV83908
p300
aV87896
p301
aV88946
p302
aV88993
p303
aV89049
p304
aV376591
p305
aV29772
p306
aV31779
p307
aV113583
p308
aV118870
p309
aV253575
p310
aV366265
p311
aV6156
p312
aV6135
p313
aV121230
p314
aV644
p315
aV689
p316
aV2544
p317
aV2602
p318
aV2603
p319
aV2660
p320
aV191376
p321
aV15429
p322
aV14763
p323
aV46074
p324
aV46791
p325
aV175062
p326
aV25553
p327
aV13147
p328
aV25653
p329
aV193484
p330
aV25974
p331
aV33720
p332
aV34809
p333
aV34811
p334
aV34927
p335
aV34939
p336
aV34954
p337
aV35056
p338
aV141991
p339
aV146747
p340
aV146762
p341
aV147379
p342
aV151987
p343
aV153985
p344
aV20224
p345
aV43596
p346
aV8876
p347
aV5576
p348
aV159751
p349
aV382408
p350
aV382409
p351
aV382410
p352
aV382411
p353
aV45400
p354
aV45462
p355
aV45219
p356
aV21374
p357
aV189162
p358
aV22982
p359
aV380528
p360
aV3821
p361
aV4027
p362
aV4097
p363
aV386729
p364
aV386730
p365
aV3424
p366
aV226880
p367
aV241983
p368
aV220654
p369
aV92
p370
aV47
p371
aV27271
p372
aV202555
p373
aV202591
p374
aV369027
p375
aV1555
p376
aV1554
p377
aV140226
p378
aV145816
p379
aV146594
p380
aV10522
p381
aV4327
p382
aV253426
p383
aV247124
p384
asS'texts'
p385
(lp386
VFlash (You may cast this spell any time you could cast an instant.)<br><br>First strike (This creature deals combat damage before creatures without first strike.)
p387
aVFlying<br>As long as Wonder is in your graveyard and you control an Island, creatures you control have flying.
p388
aVYou gain 7 life.
p389
aS''
p390
ag390
aVKinship- At the beginning of your upkeep, you may look at the top card of your library. If it shares a creature type with Wolf-Skull Shaman, you may reveal it. If you do, put a 2/2 green Wolf creature token onto the battlefield.
p391
aVTrample<br>When Elderscale Wurm enters the battlefield, if your life total is less than 7, your life total becomes 7.<br>As long as you have 7 or more life, damage that would reduce your life total to less than 7 reduces it to 7 instead.
p392
aVTap X target creatures.
p393
ag390
aVReturn target creature card from a graveyard and target creature on the battlefield to their owners' hands.<br>
p394
ag390
aVFlying<br>As Dracoplasm enters the battlefield, sacrifice any number of creatures. Dracoplasm's power becomes the total power of those creatures and its toughness becomes their total toughness.<br>{R}: Dracoplasm gets +1/+0 until end of turn.
p395
aVCaldera Lake enters the battlefield tapped.<br>{T}: Add {1} to your mana pool.<br>{T}: Add {U} or {R} to your mana pool. Caldera Lake deals 1 damage to you.
p396
aV{X}, {T}: Draw a card. X is the number of cards in an opponent's hand.
p397
ag390
ag390
aVTrample<br>When Woodfall Primus enters the battlefield, destroy target noncreature permanent.<br>Persist <i>(When this creature dies, if it had no -1/-1 counters on it, return it to the battlefield under its owner's control with a -1/-1 counter on it.)</i>
p398
aVPut a 1/1 black and green Worm creature token onto the battlefield for each land card in your graveyard.<br>Retrace <i>(You may cast this card from your graveyard by discarding a land card in addition to paying its other costs.)</i>
p399
aVPlayers can't play lands.<br>Lands can't enter the battlefield.<br>At the beginning of each upkeep, any player may sacrifice two lands or have Worms of the Earth deal 5 damage to him or her. If a player does either, destroy Worms of the Earth.
p400
aV{G}{G}: Wormwood Treefolk gains forestwalk until end of turn and deals 2 damage to you.<br>{B}{B}: Wormwood Treefolk gains swampwalk until end of turn and deals 2 damage to you.
p401
ag390
ag390
ag390
ag390
ag390
ag390
ag390
ag390
aVPut a 1/1 black and green Worm creature token onto the battlefield for each land card in your graveyard.<br>Retrace <i>(You may cast this card from your graveyard by discarding a land card in addition to paying its other costs.)</i>
p402
aVWhenever you cast a spell that's both black and green, Woodlurker Mimic becomes 4/5 and gains wither until end of turn. <i>(It deals damage to creatures in the form of -1/-1 counters.)</i>
p403
aVEnchant creature<br>When a creature dies, destroy enchanted creature.
p404
aVProtection from green
p405
aVSoulbond <i>(You may pair this creature with another unpaired creature when either enters the battlefield. They remain paired for as long as you control both of them.)</i><br>As long as Wolfir Silverheart is paired with another creature, each of those creatures gets +4/+4.
p406
aV{2}{G}{G}: Yew Spirit gets +X/+X until end of turn, where X is its power.
p407
aV{T}, Pay 1 life, Sacrifice Wooded Foothills: Search your library for a Mountain or Forest card and put it onto the battlefield. Then shuffle your library.
p408
aV{1}: The next time you would draw a card this turn, put a 2/2 green Bear creature token onto the battlefield instead.
p409
aV{1}: The next time you would draw a card this turn, each player returns a permanent he or she controls to its owner's hand instead.
p410
aV{1}: The next time you would draw a card this turn, you gain 5 life instead.
p411
aV{1}: The next time you would draw a card this turn, each opponent discards a card instead.
p412
aV{1}: The next time you would draw a card this turn, Words of War deals 2 damage to target creature or player instead.
p413
aVFlying<br>Creatures can't attack you.
p414
aVTap four untapped creatures you control: Destroy target artifact or enchantment.
p415
aVWhen Vedalken Dismisser enters the battlefield, put target creature on top of its owner's library.
p416
aVPrevent all damage that would be dealt to creatures you control by sources you control.
p417
aVSwampwalk<br>Sacrifice Sewerdreg: Exile target card from a graveyard.
p418
aVTarget player sacrifices a creature. You draw cards equal to that creature's power.
p419
aVFlying<br>As long as Wonder is in your graveyard and you control an Island, creatures you control have flying.
p420
aV{1}{G}, Sacrifice Diligent Farmhand: Search your library for a basic land card and put that card onto the battlefield tapped. Then shuffle your library.<br>If Diligent Farmhand is in a graveyard, effects from spells named Muscle Burst count it as a card named Muscle Burst.
p421
aVWhen Minotaur Explorer enters the battlefield, sacrifice it unless you discard a card at random.
p422
aV{G}: Wormwood Dryad gains forestwalk until end of turn and deals 1 damage to you.<br>{B}: Wormwood Dryad gains swampwalk until end of turn and deals 1 damage to you.
p423
aVSplit second <i>(As long as this spell is on the stack, players can't cast spells or activate abilities that aren't mana abilities.)</i><br>Untap target permanent and gain control of it until end of turn. It gains haste until end of turn.
p424
aVR
p425
aV{G}{U}: This turn, each creature you control enters the battlefield with an additional +1/+1 counter on it.<br>{G}{U}, Remove a +1/+1 counter from a creature you control: Draw a card.
p426
aVWorkhorse enters the battlefield with four +1/+1 counters on it.<br>Remove a +1/+1 counter from Workhorse: Add {1} to your mana pool.
p427
aVWhen Wood Elves enters the battlefield, search your library for a Forest card and put that card onto the battlefield. Then shuffle your library.
p428
aV{T}, Sacrifice a creature: Orcish Bloodpainter deals 1 damage to target creature or player.
p429
ag390
ag390
aVReturn target creature and all white Auras you own attached to it to their owners' hands.
p430
aVReach <i>(This creature can block creatures with flying.)</i><br>Whenever Woolly Spider blocks a creature with flying, Woolly Spider gets +0/+2 until end of turn.
p431
aVFlying<br>{G}: Regenerate Yavimaya Gnats.
p432
ag390
aVG
p433
aV{1}, {T}: Target land becomes the basic land type of your choice until end of turn.
p434
ag390
aVFear <i>(This creature can't be blocked except by artifact creatures and/or black creatures.)</i><br>Whenever Woebearer deals combat damage to a player, you may return target creature card from your graveyard to your hand.
p435
aVWhenever equipped creature deals combat damage to a player, destroy all permanents other than Worldslayer.<br>Equip {5} <i>({5}: Attach to target creature you control. Equip only as a sorcery.)</i>
p436
aVWhenever another creature dies, you may gain 1 life.
p437
aVDiscard all the cards in your hand, then draw that many cards.
p438
ag390
ag390
ag433
aVFlying<br>When Wormfang Drake enters the battlefield, sacrifice it unless you exile a creature you control other than Wormfang Drake.<br>When Wormfang Drake leaves the battlefield, return the exiled card to the battlefield under its owner's control.
p439
aVFlying<br>As long as Wonder is in your graveyard and you control an Island, creatures you control have flying.
p440
aVWhen Wormfang Newt enters the battlefield, exile a land you control.<br>When Wormfang Newt leaves the battlefield, return the exiled card to the battlefield under its owner's control.
p441
aVWhen Wormfang Behemoth enters the battlefield, exile all cards from your hand.<br>When Wormfang Behemoth leaves the battlefield, return the exiled cards to their owner's hand.
p442
aVWormfang Crab is unblockable.<br>When Wormfang Crab enters the battlefield, an opponent chooses a permanent you control other than Wormfang Crab and exiles it.<br>When Wormfang Crab leaves the battlefield, return the exiled card to the battlefield under its owner's control.
p443
aVFlying<br>When Wormfang Manta enters the battlefield, you skip your next turn.<br>When Wormfang Manta leaves the battlefield, you take an extra turn after this one.
p444
aVWhen Wormfang Turtle enters the battlefield, exile a land you control.<br>When Wormfang Turtle leaves the battlefield, return the exiled card to the battlefield under its owner's control.
p445
aVFlying, trample<br>When Worldgorger Dragon enters the battlefield, exile all other permanents you control.<br>When Worldgorger Dragon leaves the battlefield, return the exiled cards to the battlefield under their owners' control.
p446
aVReturn all permanents to their owners' hands. Each player chooses up to seven cards in his or her hand, then shuffles the rest into his or her library. Empty all mana pools.
p447
aVIf you would gain life, you gain twice that much life instead.
p448
aVTarget player discards his or her hand unless he or she pays 7 life.
p449
aVFirst strike<br>Wither <i>(This deals damage to creatures in the form of -1/-1 counters.)</i>
p450
aV{W/U}: Parapet Watchers gets +0/+1 until end of turn.
p451
aVWither <i>(This deals damage to creatures in the form of -1/-1 counters.)</i><br>Whenever Slinking Giant blocks or becomes blocked, it gets -3/-0 until end of turn.
p452
ag390
aVMorph {2}{G}{G} <i>(You may cast this face down as a 2/2 creature for {3}. Turn it face up any time for its morph cost.)</i><br>When Woodcloaker is turned face up, target creature gains trample until end of turn.
p453
aV{T}: Add {U} to your mana pool for each artifact you control.
p454
ag390
aVReturn target creature and all white Auras you own attached to it to their owners' hands.
p455
aVWrap in Flames deals 1 damage to each of up to three target creatures. Those creatures can't block this turn.
p456
aVRegenerate each creature you control.
p457
ag390
ag390
aVWhen Elvish Pioneer enters the battlefield, you may put a basic land card from your hand onto the battlefield tapped.
p458
ag390
ag390
aVFading 3 <i>(This creature enters the battlefield with three fade counters on it. At the beginning of your upkeep, remove a fade counter from it. If you can't, sacrifice it.)</i><br>{1}, Remove a fade counter from Woodripper: Destroy target artifact.
p459
ag390
aVDomain- Look at the top X cards of your library, where X is the number of basic land types among lands you control. Put one of those cards into your hand and the rest on the bottom of your library in any order.
p460
ag390
aVWhenever a player casts a green spell, you may pay {1}. If you do, you gain 1 life.
p461
aVFlying
p462
aVEnchant Wall<br>Enchanted Wall can attack as though it didn't have defender.
p463
ag390
ag390
ag390
aVU
p464
ag464
ag425
aVEach player chooses a number of lands he or she controls equal to the number of lands controlled by the player who controls the fewest, then sacrifices the rest. Players discard cards and sacrifice creatures the same way.
p465
ag390
ag390
ag390
ag390
aV{T}: Add {G} to your mana pool.<br>Whenever you tap Zhur-Taa Druid for mana, it deals 1 damage to each opponent.
p466
aVChoose a player who cast one or more sorcery spells this turn. Backdraft deals damage to that player equal to half the damage dealt by one of those sorcery spells this turn, rounded down.
p467
ag390
aVFear <i>(This creature can't be blocked except by artifact creatures and/or black creatures.)</i><br>At the beginning of your upkeep, you may return target Goblin card from your graveyard to your hand.
p468
aVChangeling <i>(This card is every creature type at all times.)</i>
p469
aVAs Ashling's Prerogative enters the battlefield, choose odd or even. <i>(Zero is even.)</i><br>Each creature with converted mana cost of the chosen value has haste.<br>Each creature without converted mana cost of the chosen value enters the battlefield tapped.
p470
aVRolling Earthquake deals X damage to each creature without horsemanship and each player.
p471
ag390
aVReturn all Zombie creature cards from your graveyard to the battlefield tapped, then destroy all Humans.
p472
ag390
asS'costs'
p473
(lp474
V{1}{G}{G}
p475
aV{2}{U}
p476
aV{U}
p477
aV{1}
p478
aV{B}{B}
p479
aV{1}{G}
p480
aV{X}{R}{R}
p481
aV{X}{B}{B}
p482
aV{1}
p483
aV{U}
p484
aV{R}{R}
p485
aV{W}
p486
aV{G}{U}
p487
aV{3}
p488
aV{1}{R}
p489
aV{1}{G}
p490
aV{5}{G}{G}{G}
p491
aV{2}{B/G}{B/G}{B/G}
p492
aV{2}{B}{B}{B}
p493
aV{3}{G}{G}
p494
aV{X}{B}{B}
p495
aV{3}{G}{G}
p496
aV{1}
p497
aV{6}{G}{G}
p498
aV{1}{G}{G}
p499
aV{1}{G}{G}
p500
aV{2}{G}
p501
aV{3}{W}
p502
aV{2}{B/G}{B/G}{B/G}
p503
aV{1}{B/G}
p504
aV{2}{G}{G}
p505
aV{3}{R}
p506
aV{4}{G}
p507
aV{U}
p508
aS'0'
p509
aV{2}{G}
p510
aV{2}{U}
p511
aV{2}{W}
p512
aV{2}{B}
p513
aV{2}{R}
p514
aV{3}{B}{B}{G}
p515
aV{2}{B}{G}
p516
aV{W}
p517
aV{3}{R}
p518
aV{2}{W}{W}
p519
aV{3}{B}{B}
p520
aV{3}{U}
p521
aV{G}
p522
aV{1}{U}
p523
aV{2}{G}
p524
aV{3}{R}{R}
p525
aV{1}{G}{W}
p526
aV{1}{B}
p527
aV{6}
p528
aV{2}{G}
p529
aV{2}{W}{W}
p530
aV{1}
p531
aV{B}{B}
p532
aV{U}
p533
aV{1}{G}{G}
p534
aV{1}{G}{G}
p535
aV{1}{R}
p536
aV{3}{U}{U}
p537
aV{G}
p538
aV{1}
p539
aV{4}{B}
p540
aV{5}
p541
aV{W}{B}
p542
aV{3}{W}
p543
aV{2}{G}
p544
aV{1}
p545
aV{2}
p546
aV{2}{U}
p547
aV{3}{U}
p548
aV{1}{U}
p549
aV{3}{U}{U}
p550
aV{3}{U}
p551
aV{5}{U}{U}
p552
aV{2}{U}
p553
aV{3}{R}{R}{R}
p554
aV{4}{W/U}{W/U}{W/U}{W/U}
p555
ag509
aV{5}{B}
p556
aV{4}{R/G}{R/G}
p557
aV{5}{G}{G}{G}
p558
aV{5}{W}
p559
aV{2}{G}
p560
aV{5}{G}
p561
aV{3}
p562
aV{3}{W}
p563
aV{U}
p564
aV{1}{U}
p565
aV{2}{G}{G}
p566
aV{G}{U}
p567
ag509
aV{2}{G}
p568
aV{1}
p569
aV{3}{W}
p570
aV{3}{G}{G}
p571
aV{U}
p572
aV{1}{U}
p573
aV{4}{R}
p574
aV{1}
p575
aV{2}{G}{G}
p576
aV{1}{R}
p577
ag509
aV{1}{U}{R}
p578
aV{G}
p579
aV{1}{B}
p580
ag509
aV{4}
p581
aV{B}{B}
p582
aV{1}
p583
aV{1}{G}{G}
p584
aV{3}{G}
p585
aV{B}{B}
p586
aV{2}{U}
p587
aV{3}{G}
p588
aV{2}{G}{G}
p589
aV{3}
p590
aV{4}{U}
p591
aV{1}{W}
p592
aV{6}{G}{G}
p593
aV{2}{G}
p594
aV{2}{G}
p595
aV{G}
p596
asS'names'
p597
(lp598
VWoolly Spider
p599
aVWonder
p600
aVWorldslayer
p601
aVWooden Sphere
p602
aVWord of Command
p603
aVWolf-Skull Shaman
p604
aVWorldfire
p605
aVWord of Binding
p606
aVWooden Sphere
p607
aVWoolly Thoctar
p608
aVWoodborn Behemoth
p609
aVWorthy Cause
p610
aVWood Sage
p611
aVWorry Beads
p612
aVWord of Blasting
p613
aVWorldgorger Dragon
p614
aVWoodfall Primus
p615
aVWorm Harvest
p616
aVWorms of the Earth
p617
aVWormwood Treefolk
p618
aVWord of Binding
p619
aVWormwood Treefolk
p620
aVWooden Sphere
p621
aVWolf Pack
p622
aVWoolly Mammoths
p623
aVWoolly Spider
p624
aVWood Elves
p625
aVWorship
p626
aVWorm Harvest
p627
aVWoodlurker Mimic
p628
aVWorldheart Phoenix
p629
aVWorldly Counsel
p630
aVWolfir Avenger
p631
aVWolfir Silverheart
p632
aVWooded Foothills
p633
aVWords of Wilding
p634
aVWords of Wind
p635
aVWords of Worship
p636
aVWords of Waste
p637
aVWords of War
p638
aVWoodwraith Corrupter
p639
aVWoodwraith Strangler
p640
aVWojek Siren
p641
aVWojek Embermage
p642
aVWojek Apothecary
p643
aVWoebringer Demon
p644
aVWonder
p645
aVWoodland Druid
p646
aVWords of Wisdom
p647
aVWormwood Dryad
p648
aVWord of Seizing
p649
aVWorldspine Wurm
p650
aVWojek Halberdiers
p651
aVWorkhorse
p652
aVWood Elves
p653
aVWoolly Razorback
p654
aVWooden Sphere
p655
aVWord of Command
p656
aVWord of Undoing
p657
aVWoolly Mammoths
p658
aVWoolly Spider
p659
aVWord of Blasting
p660
aVWorld Queller
p661
aVWorldly Tutor
p662
aVWooden Sphere
p663
aVWoebearer
p664
aVWorldslayer
p665
aVWoolly Thoctar
p666
aVWorship
p667
aVWood Elves
p668
aVWooden Sphere
p669
aVWorld at War
p670
aVWormfang Drake
p671
aVWonder
p672
aVWormfang Newt
p673
aVWormfang Behemoth
p674
aVWormfang Crab
p675
aVWormfang Manta
p676
aVWormfang Turtle
p677
aVWorldgorger Dragon
p678
aVWorldpurge
p679
aVWooded Bastion
p680
aVWound Reflection
p681
aVWort, the Raidmother
p682
aVWoodfall Primus
p683
aVWoeleecher
p684
aVWood Elves
p685
aVWoodcloaker
p686
aVWorn Powerstone
p687
aVWorship
p688
aVWord of Undoing
p689
aVWolfbriar Elemental
p690
aVWood Sage
p691
aVWoodvine Elemental
p692
aVWorldknit
p693
aVWood Elves
p694
aVWooden Sphere
p695
aVWorship
p696
aVWoodripper
p697
aVWolfbriar Elemental
p698
aVWorldly Counsel
p699
aVWorst Fears
p700
aVWooden Sphere
p701
aVWolverine Pack
p702
aVWord of Blasting
p703
aVWooded Foothills
p704
aVWoolly Loxodon
p705
aVWorldly Tutor
p706
aVWooden Stake
p707
aVWoodland Cemetery
p708
aVWoodland Sleuth
p709
aVWord of Command
p710
aVWooden Sphere
p711
aVWoolly Spider
p712
aVWood Elemental
p713
aVWord of Command
p714
aVWoodlot Crawler
p715
aVWood Elemental
p716
aVWolverine Pack
p717
aVWort, Boggart Auntie
p718
aVWoodland Changeling
p719
aVWoodland Guidance
p720
aVWolf Pack
p721
aVWood Elves
p722
aVWolfbitten Captive
p723
aVWolfhunter's Quiver
p724
asS'toughs'
p725
(lp726
V1
p727
aV3
p728
aS'N/A'
p729
ag729
ag729
aV2
p730
ag729
ag729
ag729
ag727
ag730
ag729
ag727
ag729
ag729
ag728
ag728
ag729
ag729
aV4
p731
ag729
ag727
ag729
ag728
aV0
p732
ag730
ag727
ag729
ag729
ag731
ag728
ag729
ag728
ag727
ag729
ag729
ag729
ag729
ag729
ag729
ag727
aV5
p733
ag729
ag730
ag728
ag727
ag731
ag730
ag729
ag727
ag729
ag731
ag730
ag729
ag727
ag730
ag729
ag729
ag729
ag730
ag727
ag729
ag728
ag729
ag729
ag727
ag729
ag727
ag729
ag733
ag729
ag729
ag731
ag730
ag730
ag733
aV6
p734
ag727
ag731
aV7
p735
ag729
ag729
ag729
aV8
p736
ag728
ag731
ag727
ag728
ag729
ag729
ag729
ag727
ag730
ag727
ag729
ag727
ag729
ag729
ag734
ag727
ag729
ag729
ag729
ag730
ag729
ag729
ag730
ag729
ag729
ag729
ag731
ag729
ag729
ag728
ag727
ag729
ag730
ag727
ag733
ag734
ag727
ag729
ag734
ag727
ag730
ag729
asS'artists'
p737
(lp738
VDaniel Gelon
p739
aVRebecca Guay
p740
ag390
aVMark Tedin
p741
aVJesper Myrfors
p742
aVJim Murray
p743
aVIzzy
p744
aVRon Spencer
p745
aVMark Tedin
p746
aVWayne Reynolds
p747
aVMatt Stewart
p748
aVJohn Matson
p749
aVPaolo Parente
p750
aVrk post
p751
aVEric Peterson
p752
aVWayne England
p753
ag390
ag390
aVAnson Maddocks
p754
aVJesper Myrfors
p755
aVRon Spencer
p756
aVLi Wang
p757
aVMark Tedin
p758
aVYang Jun Kwon
p759
aVDan Frazier
p760
aVDaniel Gelon
p761
aVChristopher Moeller
p762
aVMark Zug
p763
aVChuck Lukacs
p764
aVFranz Vohwinkel
p765
aVAleksi Briclot
p766
aVMatt Cavotta
p767
aVDaniel Ljunggren
p768
aVRaymond Swanland
p769
aVRob Alexander
p770
aVWayne England
p771
aVEric Peterson
p772
aVRebecca Guay
p773
aVJerry Tiritilli
p774
aVJustin Sweet
p775
aVGreg Staples
p776
aVPat Lee
p777
aVZoltan Boros & Gabor Szikszai
p778
aVLuca Zontini
p779
aVKeith Garletts
p780
aVDaren Bader
p781
aVRebecca Guay
p782
aVRick Farrell
p783
aVEric Peterson
p784
aVWarren Mahy
p785
aVVance Kovacs
p786
aVRichard Wright
p787
aVNic Klein
p788
aVDiTerlizzi
p789
aVRebecca Guay
p790
aVRichard Sardinha
p791
aVMark Tedin
p792
aVJesper Myrfors
p793
aVChristopher Rush
p794
aVDan Frazier
p795
aVDaniel Gelon
p796
aVKen Meyer, Jr.
p797
aVJames Paick
p798
aVDavid O'Connor
p799
aVDonato Giancola
p800
aVMatt Thompson
p801
aVGreg Staples
p802
aVWayne Reynolds
p803
aVrk post
p804
aVChristopher Moeller
p805
aVTerese Nielsen
p806
aVIgor Kieryluk
p807
aVThomas M. Baxa
p808
aVRebecca Guay
p809
aVDoug Chaffee
p810
aVHeather Hudson
p811
aVGlen Angus
p812
aVHeather Hudson
p813
aVJohn Avon
p814
aVWayne England
p815
aVChippy
p816
aVChristopher Moeller
p817
aVTerese Nielsen & Ron Spencer
p818
aVDave Allsop
p819
aVAdam Rex
p820
aVIzzy
p821
aVRebecca Guay
p822
aVJim Nelson
p823
aVHenry G. Higgenbotham
p824
aVMark Zug
p825
aVChristopher Rush
p826
aVChippy
p827
aVParente
p828
aVMike Bierek
p829
aVAdam Paquette
p830
aVChristopher Moeller
p831
aVDonato Giancola
p832
aVMark Zug
p833
aVAlan Pollack
p834
aVChippy
p835
aVGary Ruddell
p836
aVEric Deschamps
p837
aVDonato Giancola
p838
aVSteve White
p839
aVKen Meyer, Jr.
p840
aVJonas De Ro
p841
aVKarla Ortiz
p842
aVDavid O'Connor
p843
aVDavid Palumbo
p844
aVLars Grant-West
p845
aVTomasz Jedruszek
p846
aVJesper Myrfors
p847
aVMark Tedin
p848
aVDaniel Gelon
p849
aVBrian Snoddy
p850
aVJesper Myrfors
p851
aVGreg Staples
p852
aVBrian Snoddy
p853
aVJeff A. Menges
p854
aVLarry MacDougall
p855
aVFranz Vohwinkel
p856
aVRichard Sardinha
p857
aVYang Jun Kwon
p858
aVRebecca Guay
p859
aVRyan Pancoast
p860
aVPeter Mohrbacher
p861
asS'powers'
p862
(lp863
g727
ag730
ag729
ag729
ag729
ag730
ag729
ag729
ag729
ag733
ag728
ag729
ag727
ag729
ag729
ag727
ag731
ag729
ag729
ag730
ag729
ag727
ag729
ag732
ag732
ag728
ag732
ag729
ag729
ag730
ag728
ag729
ag728
ag731
ag729
ag729
ag729
ag729
ag729
ag729
ag728
ag730
ag729
ag730
ag727
ag727
ag731
ag727
ag729
ag732
ag729
aV*
p864
ag727
ag729
ag727
ag730
ag729
ag729
ag729
ag730
ag727
ag729
ag730
ag729
ag729
ag727
ag729
ag731
ag729
ag728
ag729
ag729
ag728
ag730
ag730
ag733
ag728
ag734
ag730
ag735
ag729
ag729
ag729
ag731
ag728
ag731
ag727
ag728
ag729
ag729
ag729
ag730
ag727
ag734
ag729
ag727
ag729
ag729
ag731
ag730
ag729
ag729
ag729
ag728
ag729
ag729
ag731
ag729
ag729
ag729
ag727
ag729
ag729
ag728
ag727
ag729
ag730
ag727
ag727
ag728
ag730
ag729
ag735
ag727
ag730
ag729
asS'types'
p865
(lp866
VCreature - Spider
p867
aVCreature - Incarnation
p868
aVArtifact - Equipment
p869
aVArtifact
p870
aVInstant
p871
aVCreature - Elf Shaman
p872
aVSorcery
p873
aVSorcery
p874
aVArtifact
p875
aVCreature - Beast
p876
aVCreature - Elemental
p877
aVInstant
p878
aVCreature - Human Druid
p879
aVArtifact
p880
aVInstant
p881
aVCreature - Nightmare Dragon
p882
aVCreature - Treefolk Shaman
p883
aVSorcery
p884
aVEnchantment
p885
aVCreature - Treefolk
p886
aVSorcery
p887
aVCreature - Treefolk
p888
aVArtifact
p889
aVCreature - Wolf
p890
aVCreature - Elephant
p891
aVCreature - Spider
p892
aVCreature - Elf Scout
p893
aVEnchantment
p894
aVSorcery
p895
aVCreature - Shapeshifter
p896
aVCreature - Phoenix
p897
aVInstant
p898
aVCreature - Wolf Warrior
p899
aVCreature - Wolf Warrior
p900
aVLand
p901
aVEnchantment
p902
aVEnchantment
p903
aVEnchantment
p904
aVEnchantment
p905
aVEnchantment
p906
aVCreature - Elemental Horror
p907
aVCreature - Plant Zombie
p908
aVInstant
p909
aVCreature - Human Wizard
p910
aVCreature - Human Cleric
p911
aVCreature - Demon
p912
aVCreature - Incarnation
p913
aVCreature - Human Druid
p914
aVInstant
p915
aVCreature - Dryad
p916
aVInstant
p917
aVCreature - Wurm
p918
aVCreature - Human Soldier
p919
aVArtifact Creature - Horse
p920
aVCreature - Elf Scout
p921
aVCreature - Boar Beast
p922
aVArtifact
p923
aVInstant
p924
aVInstant
p925
aVCreature - Elephant
p926
aVCreature - Spider
p927
aVInstant
p928
aVCreature - Avatar
p929
aVInstant
p930
aVArtifact
p931
aVCreature - Zombie
p932
aVArtifact - Equipment
p933
aVCreature - Beast
p934
aVEnchantment
p935
aVCreature - Elf Scout
p936
aVArtifact
p937
aVSorcery
p938
aVCreature - Nightmare Drake
p939
aVCreature - Incarnation
p940
aVCreature - Nightmare Salamander Beast
p941
aVCreature - Nightmare Fish Beast
p942
aVCreature - Nightmare Crab
p943
aVCreature - Nightmare Fish Beast
p944
aVCreature - Nightmare Turtle Beast
p945
aVCreature - Nightmare Dragon
p946
aVSorcery
p947
aVLand
p948
aVEnchantment
p949
aVLegendary Creature - Goblin Shaman
p950
aVCreature - Treefolk Shaman
p951
aVCreature - Elemental
p952
aVCreature - Elf Scout
p953
aVCreature - Elf
p954
aVArtifact
p955
aVEnchantment
p956
aVInstant
p957
aVCreature - Elemental
p958
aVCreature - Human Druid
p959
aVCreature - Elemental
p960
aVConspiracy
p961
aVCreature - Elf Scout
p962
aVArtifact
p963
aVEnchantment
p964
aVCreature - Beast
p965
aVCreature - Elemental
p966
aVInstant
p967
aVSorcery
p968
aVArtifact
p969
aVCreature - Wolverine
p970
aVInstant
p971
aVLand
p972
aVCreature - Elephant Warrior
p973
aVInstant
p974
aVArtifact - Equipment
p975
aVLand
p976
aVCreature - Human Scout
p977
aVInstant
p978
aVArtifact
p979
aVCreature - Spider
p980
aVCreature - Elemental
p981
aVInstant
p982
aVCreature - Insect
p983
aVCreature - Elemental
p984
aVCreature - Wolverine
p985
aVLegendary Creature - Goblin Shaman
p986
aVCreature - Shapeshifter
p987
aVSorcery
p988
aVCreature - Wolf
p989
aVCreature - Elf Scout
p990
aVCreature - Human Werewolf
p991
aVArtifact - Equipment
p992
asS'numbers'
p993
(lp994
V71
p995
aV71
p996
aV222
p997
aV299
p998
aV300
p999
aV140
p1000
aV158
p1001
aV59
p1002
aV375
p1003
aV13
p1004
aV203
p1005
aV206
p1006
aV213
p1007
aV315
p1008
aV228
p1009
aV193
p1010
ag390
ag390
aV23
p1011
aV47
p1012
aV119
p1013
aV140
p1014
aV304
p1015
aV187
p1016
aV188
p1017
aV189
p1018
aV283
p1019
aV55
p1020
aV131
p1021
aV130
p1022
aV77
p1023
aV39
p1024
aV205
p1025
aV206
p1026
aV330
p1027
aV305
p1028
aV122
p1029
aV61
p1030
aV182
p1031
aV244
p1032
aV240
p1033
aV241
p1034
aV37
p1035
aV152
p1036
aV36
p1037
aV113
p1038
aV67
p1039
aV284
p1040
aV114
p1041
aV233
p1042
aV188
p1043
aV140
p1044
aV208
p1045
aV142
p1046
aV130
p1047
aV25
p1048
aV299
p1049
aV300
p1050
aV103
p1051
aV140
p1052
aV141
p1053
aV380
p1054
aV39
p1055
aV269
p1056
aV318
p1057
aV83
p1058
aV276
p1059
aV209
p1060
aV56
p1061
aV284
p1062
aV324
p1063
aV172
p1064
aV57
p1065
aV54
p1066
aV59
p1067
aV55
p1068
aV56
p1069
aV58
p1070
aV60
p1071
aV103
p1072
aV156
p1073
aV281
p1074
aV81
p1075
aV223
p1076
aV135
p1077
aV27
p1078
aV153
p1079
aV134
p1080
aV318
p1081
aV57
p1082
aV56
p1083
aV182
p1084
aV195
p1085
aV52
p1086
aV13
p1087
aV289
p1088
aV321
p1089
aV57
p1090
aV125
p1091
aV118
p1092
aV89
p1093
aV87
p1094
aV23
p1095
aV118
p1096
aV159
p1097
aV249
p1098
aV158
p1099
aV350
p1100
aV237
p1101
aV249
p1102
aV210
p1103
aV89
p1104
aV288
p1105
aV89
p1106
aV175
p1107
aV103
p1108
aV118
p1109
aV81
p1110
aV309
p1111
aV252
p1112
aV242
p1113
aV243
p1114
aV158
p1115
aV221
p1116
aV133
p1117
aV154
p1118
as.