(dp0
S'rares'
p1
(lp2
VRare
p3
asS'editns'
p4
(lp5
VPortal Three Kingdoms
p6
asS'ids'
p7
(lp8
V13831
p9
asS'texts'
p10
(lp11
VU
p12
asS'costs'
p13
(lp14
V{1}{B}{B}
p15
asS'names'
p16
(lp17
VXun Yu, Wei Advisor
p18
asS'toughs'
p19
(lp20
V1
p21
asS'artists'
p22
(lp23
VJack Wei
p24
asS'powers'
p25
(lp26
g21
asS'types'
p27
(lp28
VLegendary Creature - Human Advisor
p29
asS'numbers'
p30
(lp31
V93
p32
as.