(dp0
S'rares'
p1
(lp2
VRare
p3
aVRare
p4
asS'editns'
p5
(lp6
VMasters Edition
p7
aVArabian Nights
p8
asS'ids'
p9
(lp10
V159844
p11
aV967
p12
asS'texts'
p13
(lp14
VWhenever Ydwen Efreet blocks, flip a coin. If you lose the flip, remove Ydwen Efreet from combat and it can't block this turn. Creatures it was blocking that had become blocked by only Ydwen Efreet this combat become unblocked.
p15
aVWhenever Ydwen Efreet blocks, flip a coin. If you lose the flip, remove Ydwen Efreet from combat and it can't block this turn. Creatures it was blocking that had become blocked by only Ydwen Efreet this combat become unblocked.
p16
asS'costs'
p17
(lp18
V{R}{R}{R}
p19
aV{R}{R}{R}
p20
asS'names'
p21
(lp22
VYdwen Efreet
p23
aVYdwen Efreet
p24
asS'toughs'
p25
(lp26
V2
p27
aV6
p28
asS'artists'
p29
(lp30
VDrew Tucker
p31
aVDrew Tucker
p32
asS'powers'
p33
(lp34
g27
aV3
p35
asS'types'
p36
(lp37
VCreature - Efreet
p38
aVCreature - Efreet
p39
asS'numbers'
p40
(lp41
V112
p42
aV25
p43
as.